   1              		.file	"attitude_compl_euler.c"
   2              		.global	__floatsisf
   3              		.global	__mulsf3
   4              		.global	__floatsidf
   5              		.global	__muldf3
   6              		.global	__truncdfsf2
   7              		.global	__gesf2
   8              		.global	__addsf3
   9              		.global	__subsf3
  10              		.global	__divsf3
  11              		.global	__ltsf2
  12              		.global	__extendsfdf2
  13              		.global	__adddf3
  14              		.global	__subdf3
  15              		.global	__divdf3
  16              		.global	__gtdf2
  17              		.global	__ltdf2
  18              		.text
  19              		.align	2
  20              		.global	complimentary_filter_predict_rad
  22              	complimentary_filter_predict_rad:
  23              		@ Function supports interworking.
  24              		@ args = 16, pretend = 0, frame = 104
  25              		@ frame_needed = 0, uses_anonymous_args = 0
  26 0000 F04F2DE9 		stmfd	sp!, {r4, r5, r6, r7, r8, r9, sl, fp, lr}
  27 0004 68D04DE2 		sub	sp, sp, #104
  28 0008 8C408DE2 		add	r4, sp, #140
  29 000c 300094E8 		ldmia	r4, {r4-r5}
  30 0010 04C8A0E1 		mov	ip, r4, asl #16
  31 0014 4CC8A0E1 		mov	ip, ip, asr #16
  32 0018 FFC46CE2 		rsb	ip, ip, #-16777216
  33 001c FFC88CE2 		add	ip, ip, #16711680
  34 0020 FFCC8CE2 		add	ip, ip, #65280
  35 0024 0080A0E1 		mov	r8, r0
  36 0028 0190A0E1 		mov	r9, r1
  37 002c C8008CE2 		add	r0, ip, #200
  38 0030 0818A0E1 		mov	r1, r8, asl #16
  39 0034 0260A0E1 		mov	r6, r2
  40 0038 0370A0E1 		mov	r7, r3
  41 003c 21A8A0E1 		mov	sl, r1, lsr #16
  42 0040 FEFFFFEB 		bl	__floatsisf
  43 0044 48149FE5 		ldr	r1, .L79+24
  44 0048 FEFFFFEB 		bl	__mulsf3
  45 004c 4448A0E1 		mov	r4, r4, asr #16
  46 0050 FF4464E2 		rsb	r4, r4, #-16777216
  47 0054 FF4884E2 		add	r4, r4, #16711680
  48 0058 FF4C84E2 		add	r4, r4, #65280
  49 005c 00008DE5 		str	r0, [sp, #0]	@ float
  50 0060 EF0084E2 		add	r0, r4, #239
  51 0064 FEFFFFEB 		bl	__floatsisf
  52 0068 28149FE5 		ldr	r1, .L79+28
  53 006c FEFFFFEB 		bl	__mulsf3
  54 0070 04008DE5 		str	r0, [sp, #4]	@ float
  55 0074 0608A0E1 		mov	r0, r6, asl #16
  56 0078 2008A0E1 		mov	r0, r0, lsr #16
  57 007c 1D0B60E2 		rsb	r0, r0, #29696
  58 0080 540080E2 		add	r0, r0, #84
  59 0084 FEFFFFEB 		bl	__floatsidf
  60 0088 FB2F8FE2 		adr	r2, .L79
  61 008c 0C0092E8 		ldmia	r2, {r2-r3}
  62 0090 FEFFFFEB 		bl	__muldf3
  63 0094 FEFFFFEB 		bl	__truncdfsf2
  64 0098 08008DE5 		str	r0, [sp, #8]	@ float
  65 009c 2608A0E1 		mov	r0, r6, lsr #16
  66 00a0 1D0B40E2 		sub	r0, r0, #29696
  67 00a4 990040E2 		sub	r0, r0, #153
  68 00a8 FEFFFFEB 		bl	__floatsidf
  69 00ac 3D2E8FE2 		adr	r2, .L79+8
  70 00b0 0C0092E8 		ldmia	r2, {r2-r3}
  71 00b4 FEFFFFEB 		bl	__muldf3
  72 00b8 FEFFFFEB 		bl	__truncdfsf2
  73 00bc 0C008DE5 		str	r0, [sp, #12]	@ float
  74 00c0 0708A0E1 		mov	r0, r7, asl #16
  75 00c4 2008A0E1 		mov	r0, r0, lsr #16
  76 00c8 1D0B60E2 		rsb	r0, r0, #29696
  77 00cc CA0080E2 		add	r0, r0, #202
  78 00d0 FEFFFFEB 		bl	__floatsidf
  79 00d4 3B2E8FE2 		adr	r2, .L79+16
  80 00d8 0C0092E8 		ldmia	r2, {r2-r3}
  81 00dc FEFFFFEB 		bl	__muldf3
  82 00e0 FEFFFFEB 		bl	__truncdfsf2
  83 00e4 10008DE5 		str	r0, [sp, #16]	@ float
  84 00e8 4808A0E1 		mov	r0, r8, asr #16
  85 00ec FF0460E2 		rsb	r0, r0, #-16777216
  86 00f0 FF0880E2 		add	r0, r0, #16711680
  87 00f4 FF0C80E2 		add	r0, r0, #65280
  88 00f8 E20080E2 		add	r0, r0, #226
  89 00fc FEFFFFEB 		bl	__floatsisf
  90 0100 0060A0E1 		mov	r6, r0
  91 0104 0908A0E1 		mov	r0, r9, asl #16
  92 0108 4008A0E1 		mov	r0, r0, asr #16
  93 010c 010080E2 		add	r0, r0, #1
  94 0110 FEFFFFEB 		bl	__floatsisf
  95 0114 0010A0E3 		mov	r1, #0
  96 0118 0070A0E1 		mov	r7, r0
  97 011c 0600A0E1 		mov	r0, r6
  98 0120 FEFFFFEB 		bl	__gesf2
  99 0124 D114E0E3 		mvn	r1, #-788529152
 100 0128 000050E3 		cmp	r0, #0
 101 012c 091741E2 		sub	r1, r1, #2359296
 102 0130 0600A0A1 		movge	r0, r6
 103 0134 020186B2 		addlt	r0, r6, #-2147483648
 104 0138 191C41E2 		sub	r1, r1, #6400
 105 013c FEFFFFEB 		bl	__addsf3
 106 0140 0010A0E3 		mov	r1, #0
 107 0144 0050A0E1 		mov	r5, r0
 108 0148 0700A0E1 		mov	r0, r7
 109 014c FEFFFFEB 		bl	__gesf2
 110 0150 000050E3 		cmp	r0, #0
 111 0154 A20300BA 		blt	.L6
 112 0158 0510A0E1 		mov	r1, r5
 113 015c 0700A0E1 		mov	r0, r7
 114 0160 FEFFFFEB 		bl	__subsf3
 115 0164 0510A0E1 		mov	r1, r5
 116 0168 0040A0E1 		mov	r4, r0
 117 016c 0700A0E1 		mov	r0, r7
 118 0170 FEFFFFEB 		bl	__addsf3
 119 0174 0010A0E1 		mov	r1, r0
 120 0178 0400A0E1 		mov	r0, r4
 121 017c FEFFFFEB 		bl	__divsf3
 122 0180 9351E0E3 		mvn	r5, #-1073741788
 123 0184 B65845E2 		sub	r5, r5, #11927552
 124 0188 0040A0E1 		mov	r4, r0
 125 018c 0F5A45E2 		sub	r5, r5, #61440
 126              	.L9:
 127 0190 0400A0E1 		mov	r0, r4
 128 0194 10139FE5 		ldr	r1, .L79+48
 129 0198 FEFFFFEB 		bl	__mulsf3
 130 019c 0010A0E1 		mov	r1, r0
 131 01a0 0400A0E1 		mov	r0, r4
 132 01a4 FEFFFFEB 		bl	__mulsf3
 133 01a8 00139FE5 		ldr	r1, .L79+52
 134 01ac FEFFFFEB 		bl	__subsf3
 135 01b0 0010A0E1 		mov	r1, r0
 136 01b4 0400A0E1 		mov	r0, r4
 137 01b8 FEFFFFEB 		bl	__mulsf3
 138 01bc 0010A0E1 		mov	r1, r0
 139 01c0 0500A0E1 		mov	r0, r5
 140 01c4 FEFFFFEB 		bl	__addsf3
 141 01c8 0010A0E3 		mov	r1, #0
 142 01cc 00B0A0E1 		mov	fp, r0
 143 01d0 0600A0E1 		mov	r0, r6
 144 01d4 FEFFFFEB 		bl	__ltsf2
 145 01d8 000050E3 		cmp	r0, #0
 146 01dc 0A08A0E1 		mov	r0, sl, asl #16
 147 01e0 4008A0E1 		mov	r0, r0, asr #16
 148 01e4 FF0460E2 		rsb	r0, r0, #-16777216
 149 01e8 FF0880E2 		add	r0, r0, #16711680
 150 01ec FF0C80E2 		add	r0, r0, #65280
 151 01f0 02318BB2 		addlt	r3, fp, #-2147483648
 152 01f4 F90080E2 		add	r0, r0, #249
 153 01f8 03B0A0B1 		movlt	fp, r3
 154 01fc FEFFFFEB 		bl	__floatsisf
 155 0200 00A0A0E1 		mov	sl, r0
 156 0204 0B00A0E1 		mov	r0, fp
 157 0208 FEFFFFEB 		bl	lookup_sin
 158 020c 0040A0E1 		mov	r4, r0
 159 0210 0B00A0E1 		mov	r0, fp
 160 0214 FEFFFFEB 		bl	lookup_cos
 161 0218 0010A0E1 		mov	r1, r0
 162 021c 0400A0E1 		mov	r0, r4
 163 0220 FEFFFFEB 		bl	__addsf3
 164 0224 0010A0E1 		mov	r1, r0
 165 0228 0700A0E1 		mov	r0, r7
 166 022c FEFFFFEB 		bl	__mulsf3
 167 0230 0010A0E3 		mov	r1, #0
 168 0234 0060A0E1 		mov	r6, r0
 169 0238 0A00A0E1 		mov	r0, sl
 170 023c FEFFFFEB 		bl	__gesf2
 171 0240 D114E0E3 		mvn	r1, #-788529152
 172 0244 000050E3 		cmp	r0, #0
 173 0248 091741E2 		sub	r1, r1, #2359296
 174 024c 0A00A0A1 		movge	r0, sl
 175 0250 02018AB2 		addlt	r0, sl, #-2147483648
 176 0254 191C41E2 		sub	r1, r1, #6400
 177 0258 FEFFFFEB 		bl	__addsf3
 178 025c 0010A0E3 		mov	r1, #0
 179 0260 0050A0E1 		mov	r5, r0
 180 0264 0600A0E1 		mov	r0, r6
 181 0268 FEFFFFEB 		bl	__gesf2
 182 026c 000050E3 		cmp	r0, #0
 183 0270 4C0300BA 		blt	.L17
 184 0274 0510A0E1 		mov	r1, r5
 185 0278 0600A0E1 		mov	r0, r6
 186 027c FEFFFFEB 		bl	__subsf3
 187 0280 0510A0E1 		mov	r1, r5
 188 0284 0040A0E1 		mov	r4, r0
 189 0288 0600A0E1 		mov	r0, r6
 190 028c FEFFFFEB 		bl	__addsf3
 191 0290 0010A0E1 		mov	r1, r0
 192 0294 0400A0E1 		mov	r0, r4
 193 0298 FEFFFFEB 		bl	__divsf3
 194 029c 9351E0E3 		mvn	r5, #-1073741788
 195 02a0 B65845E2 		sub	r5, r5, #11927552
 196 02a4 0040A0E1 		mov	r4, r0
 197 02a8 0F5A45E2 		sub	r5, r5, #61440
 198              	.L20:
 199 02ac 0400A0E1 		mov	r0, r4
 200 02b0 F4119FE5 		ldr	r1, .L79+48
 201 02b4 FEFFFFEB 		bl	__mulsf3
 202 02b8 0010A0E1 		mov	r1, r0
 203 02bc 0400A0E1 		mov	r0, r4
 204 02c0 FEFFFFEB 		bl	__mulsf3
 205 02c4 E4119FE5 		ldr	r1, .L79+52
 206 02c8 FEFFFFEB 		bl	__subsf3
 207 02cc 0010A0E1 		mov	r1, r0
 208 02d0 0400A0E1 		mov	r0, r4
 209 02d4 FEFFFFEB 		bl	__mulsf3
 210 02d8 0010A0E1 		mov	r1, r0
 211 02dc 0500A0E1 		mov	r0, r5
 212 02e0 FEFFFFEB 		bl	__addsf3
 213 02e4 0010A0E3 		mov	r1, #0
 214 02e8 0080A0E1 		mov	r8, r0
 215 02ec 0A00A0E1 		mov	r0, sl
 216 02f0 FEFFFFEB 		bl	__ltsf2
 217 02f4 A0619FE5 		ldr	r6, .L79+32
 218 02f8 000050E3 		cmp	r0, #0
 219 02fc 023188B2 		addlt	r3, r8, #-2147483648
 220 0300 000096E5 		ldr	r0, [r6, #0]	@ float
 221 0304 0380A0B1 		movlt	r8, r3
 222 0308 FEFFFFEB 		bl	__extendsfdf2
 223 030c 692F8FE2 		adr	r2, .L79+60
 224 0310 0C0092E8 		ldmia	r2, {r2-r3}
 225 0314 18008DE5 		str	r0, [sp, #24]
 226 0318 1C108DE5 		str	r1, [sp, #28]
 227 031c FEFFFFEB 		bl	__muldf3
 228 0320 0040A0E1 		mov	r4, r0
 229 0324 0B00A0E1 		mov	r0, fp
 230 0328 0150A0E1 		mov	r5, r1
 231 032c FEFFFFEB 		bl	__extendsfdf2
 232 0330 FF25A0E3 		mov	r2, #1069547520
 233 0334 012682E2 		add	r2, r2, #1048576
 234 0338 0030A0E3 		mov	r3, #0
 235 033c FEFFFFEB 		bl	__muldf3
 236 0340 0020A0E1 		mov	r2, r0
 237 0344 0130A0E1 		mov	r3, r1
 238 0348 0400A0E1 		mov	r0, r4
 239 034c 0510A0E1 		mov	r1, r5
 240 0350 FEFFFFEB 		bl	__adddf3
 241 0354 FEFFFFEB 		bl	__truncdfsf2
 242 0358 40719FE5 		ldr	r7, .L79+36
 243 035c 000086E5 		str	r0, [r6, #0]	@ float
 244 0360 000097E5 		ldr	r0, [r7, #0]	@ float
 245 0364 FEFFFFEB 		bl	__extendsfdf2
 246 0368 028188E2 		add	r8, r8, #-2147483648
 247 036c 512F8FE2 		adr	r2, .L79+60
 248 0370 0C0092E8 		ldmia	r2, {r2-r3}
 249 0374 14808DE5 		str	r8, [sp, #20]
 250 0378 20008DE5 		str	r0, [sp, #32]
 251 037c 24108DE5 		str	r1, [sp, #36]
 252 0380 FEFFFFEB 		bl	__muldf3
 253 0384 0040A0E1 		mov	r4, r0
 254 0388 14009DE5 		ldr	r0, [sp, #20]	@ float
 255 038c 0150A0E1 		mov	r5, r1
 256 0390 FEFFFFEB 		bl	__extendsfdf2
 257 0394 FF25A0E3 		mov	r2, #1069547520
 258 0398 012682E2 		add	r2, r2, #1048576
 259 039c 0030A0E3 		mov	r3, #0
 260 03a0 FEFFFFEB 		bl	__muldf3
 261 03a4 0020A0E1 		mov	r2, r0
 262 03a8 0130A0E1 		mov	r3, r1
 263 03ac 0400A0E1 		mov	r0, r4
 264 03b0 0510A0E1 		mov	r1, r5
 265 03b4 FEFFFFEB 		bl	__adddf3
 266 03b8 FEFFFFEB 		bl	__truncdfsf2
 267 03bc E0809FE5 		ldr	r8, .L79+40
 268 03c0 000087E5 		str	r0, [r7, #0]	@ float
 269 03c4 000098E5 		ldr	r0, [r8, #0]	@ float
 270 03c8 FEFFFFEB 		bl	__extendsfdf2
 271 03cc 0090A0E1 		mov	r9, r0
 272 03d0 01A0A0E1 		mov	sl, r1
 273 03d4 08009DE5 		ldr	r0, [sp, #8]	@ float
 274 03d8 0010A0E3 		mov	r1, #0
 275 03dc FEFFFFEB 		bl	__mulsf3
 276 03e0 FEFFFFEB 		bl	__extendsfdf2
 277 03e4 28008DE5 		str	r0, [sp, #40]
 278 03e8 2C108DE5 		str	r1, [sp, #44]
 279 03ec 08009DE5 		ldr	r0, [sp, #8]	@ float
 280 03f0 FEFFFFEB 		bl	__extendsfdf2
 281 03f4 BC208FE2 		adr	r2, .L79+60
 282 03f8 0C0092E8 		ldmia	r2, {r2-r3}
 283 03fc 30008DE5 		str	r0, [sp, #48]
 284 0400 34108DE5 		str	r1, [sp, #52]
 285 0404 0900A0E1 		mov	r0, r9
 286 0408 0A10A0E1 		mov	r1, sl
 287 040c FEFFFFEB 		bl	__muldf3
 288 0410 FF25A0E3 		mov	r2, #1069547520
 289 0414 0040A0E1 		mov	r4, r0
 290 0418 0150A0E1 		mov	r5, r1
 291 041c 0030A0E3 		mov	r3, #0
 292 0420 30008DE2 		add	r0, sp, #48
 293 0424 030090E8 		ldmia	r0, {r0-r1}
 294 0428 FEFFFFEB 		bl	__muldf3
 295 042c 0020A0E1 		mov	r2, r0
 296 0430 0130A0E1 		mov	r3, r1
 297 0434 0400A0E1 		mov	r0, r4
 298 0438 0510A0E1 		mov	r1, r5
 299 043c FEFFFFEB 		bl	__adddf3
 300 0440 FEFFFFEB 		bl	__truncdfsf2
 301 0444 5C609FE5 		ldr	r6, .L79+44
 302 0448 000088E5 		str	r0, [r8, #0]	@ float
 303 044c 000096E5 		ldr	r0, [r6, #0]	@ float
 304 0450 FEFFFFEB 		bl	__extendsfdf2
 305 0454 0070A0E1 		mov	r7, r0
 306 0458 0180A0E1 		mov	r8, r1
 307 045c 0C009DE5 		ldr	r0, [sp, #12]	@ float
 308 0460 0010A0E3 		mov	r1, #0
 309 0464 FEFFFFEB 		bl	__mulsf3
 310 0468 FEFFFFEB 		bl	__extendsfdf2
 311 046c 38008DE5 		str	r0, [sp, #56]
 312 0470 3C108DE5 		str	r1, [sp, #60]
 313 0474 0C009DE5 		ldr	r0, [sp, #12]	@ float
 314 0478 140000EA 		b	.L80
 315              	.L81:
 316              		.align	2
 317              	.L79:
 318 047c AA7F503F 		.word	1062240170
 319 0480 5CE84A04 		.word	72018012
 320 0484 5C38503F 		.word	1062221916
 321 0488 2AE3DF67 		.word	1742725930
 322 048c B16A503F 		.word	1062234801
 323 0490 F304C24E 		.word	1321338099
 324 0494 ABAAAA3C 		.word	1017817771
 325 0498 A1A0A03C 		.word	1017159841
 326 049c 24000000 		.word	phi_acc_state.2874
 327 04a0 20000000 		.word	theta_acc_state.2875
 328 04a4 18000000 		.word	phi_gyro_state.2877
 329 04a8 14000000 		.word	theta_gyro_state.2878
 330 04ac 6C783A3E 		.word	1044019308
 331 04b0 14AE773F 		.word	1064807956
 332 04b4 00000000 		.word	psi_prev.2892
 333 04b8 7A14EE3F 		.word	1072567418
 334 04bc 14AE47E1 		.word	-515396076
 335 04c0 51B8CE3F 		.word	1070512209
 336 04c4 B81E85EB 		.word	-343597384
 337 04c8 E17AC43F 		.word	1069841121
 338 04cc 7B14AE47 		.word	1202590843
 339              	.L80:
 340 04d0 FEFFFFEB 		bl	__extendsfdf2
 341 04d4 24204FE2 		adr	r2, .L79+60
 342 04d8 0C0092E8 		ldmia	r2, {r2-r3}
 343 04dc 40008DE5 		str	r0, [sp, #64]
 344 04e0 44108DE5 		str	r1, [sp, #68]
 345 04e4 0700A0E1 		mov	r0, r7
 346 04e8 0810A0E1 		mov	r1, r8
 347 04ec FEFFFFEB 		bl	__muldf3
 348 04f0 FF25A0E3 		mov	r2, #1069547520
 349 04f4 0040A0E1 		mov	r4, r0
 350 04f8 0150A0E1 		mov	r5, r1
 351 04fc 0030A0E3 		mov	r3, #0
 352 0500 40008DE2 		add	r0, sp, #64
 353 0504 030090E8 		ldmia	r0, {r0-r1}
 354 0508 FEFFFFEB 		bl	__muldf3
 355 050c 0020A0E1 		mov	r2, r0
 356 0510 0130A0E1 		mov	r3, r1
 357 0514 0400A0E1 		mov	r0, r4
 358 0518 0510A0E1 		mov	r1, r5
 359 051c FEFFFFEB 		bl	__adddf3
 360 0520 FEFFFFEB 		bl	__truncdfsf2
 361 0524 6C204FE2 		adr	r2, .L79+68
 362 0528 0C0092E8 		ldmia	r2, {r2-r3}
 363 052c 000086E5 		str	r0, [r6, #0]	@ float
 364 0530 18008DE2 		add	r0, sp, #24
 365 0534 030090E8 		ldmia	r0, {r0-r1}
 366 0538 FEFFFFEB 		bl	__muldf3
 367 053c 0040A0E1 		mov	r4, r0
 368 0540 0150A0E1 		mov	r5, r1
 369 0544 0B00A0E1 		mov	r0, fp
 370 0548 0010A0E3 		mov	r1, #0
 371 054c FEFFFFEB 		bl	__mulsf3
 372 0550 FEFFFFEB 		bl	__extendsfdf2
 373 0554 0020A0E1 		mov	r2, r0
 374 0558 0130A0E1 		mov	r3, r1
 375 055c 0400A0E1 		mov	r0, r4
 376 0560 0510A0E1 		mov	r1, r5
 377 0564 FEFFFFEB 		bl	__adddf3
 378 0568 FEFFFFEB 		bl	__truncdfsf2
 379 056c 0A10A0E1 		mov	r1, sl
 380 0570 0040A0E1 		mov	r4, r0
 381 0574 B4204FE2 		adr	r2, .L79+76
 382 0578 0C0092E8 		ldmia	r2, {r2-r3}
 383 057c 0900A0E1 		mov	r0, r9
 384 0580 FEFFFFEB 		bl	__muldf3
 385 0584 28208DE2 		add	r2, sp, #40
 386 0588 0C0092E8 		ldmia	r2, {r2-r3}
 387 058c FEFFFFEB 		bl	__adddf3
 388 0590 FEFFFFEB 		bl	__truncdfsf2
 389 0594 0010A0E1 		mov	r1, r0
 390 0598 0400A0E1 		mov	r0, r4
 391 059c FEFFFFEB 		bl	__addsf3
 392 05a0 E8204FE2 		adr	r2, .L79+68
 393 05a4 0C0092E8 		ldmia	r2, {r2-r3}
 394 05a8 60008DE5 		str	r0, [sp, #96]	@ float
 395 05ac 20008DE2 		add	r0, sp, #32
 396 05b0 030090E8 		ldmia	r0, {r0-r1}
 397 05b4 FEFFFFEB 		bl	__muldf3
 398 05b8 0040A0E1 		mov	r4, r0
 399 05bc 0150A0E1 		mov	r5, r1
 400 05c0 14009DE5 		ldr	r0, [sp, #20]	@ float
 401 05c4 0010A0E3 		mov	r1, #0
 402 05c8 FEFFFFEB 		bl	__mulsf3
 403 05cc FEFFFFEB 		bl	__extendsfdf2
 404 05d0 0020A0E1 		mov	r2, r0
 405 05d4 0130A0E1 		mov	r3, r1
 406 05d8 0400A0E1 		mov	r0, r4
 407 05dc 0510A0E1 		mov	r1, r5
 408 05e0 FEFFFFEB 		bl	__adddf3
 409 05e4 FEFFFFEB 		bl	__truncdfsf2
 410 05e8 0810A0E1 		mov	r1, r8
 411 05ec 0040A0E1 		mov	r4, r0
 412 05f0 132E4FE2 		adr	r2, .L79+76
 413 05f4 0C0092E8 		ldmia	r2, {r2-r3}
 414 05f8 0700A0E1 		mov	r0, r7
 415 05fc FEFFFFEB 		bl	__muldf3
 416 0600 38208DE2 		add	r2, sp, #56
 417 0604 0C0092E8 		ldmia	r2, {r2-r3}
 418 0608 FEFFFFEB 		bl	__adddf3
 419 060c FEFFFFEB 		bl	__truncdfsf2
 420 0610 0010A0E1 		mov	r1, r0
 421 0614 0400A0E1 		mov	r0, r4
 422 0618 FEFFFFEB 		bl	__addsf3
 423 061c 64008DE5 		str	r0, [sp, #100]	@ float
 424 0620 FF05A0E3 		mov	r0, #1069547520
 425 0624 C30980E2 		add	r0, r0, #3194880
 426 0628 550F80E2 		add	r0, r0, #340
 427 062c 0311A0E3 		mov	r1, #-1073741824
 428 0630 FEFFFFEB 		bl	sin
 429 0634 0080A0E1 		mov	r8, r0
 430 0638 64009DE5 		ldr	r0, [sp, #100]	@ float
 431 063c 0190A0E1 		mov	r9, r1
 432 0640 FEFFFFEB 		bl	__extendsfdf2
 433 0644 0060A0E1 		mov	r6, r0
 434 0648 0170A0E1 		mov	r7, r1
 435 064c FEFFFFEB 		bl	cos
 436 0650 48008DE5 		str	r0, [sp, #72]
 437 0654 4C108DE5 		str	r1, [sp, #76]
 438 0658 60009DE5 		ldr	r0, [sp, #96]	@ float
 439 065c FEFFFFEB 		bl	__extendsfdf2
 440 0660 00A0A0E1 		mov	sl, r0
 441 0664 00009DE5 		ldr	r0, [sp, #0]	@ float
 442 0668 01B0A0E1 		mov	fp, r1
 443 066c FEFFFFEB 		bl	__extendsfdf2
 444 0670 0040A0E1 		mov	r4, r0
 445 0674 0150A0E1 		mov	r5, r1
 446 0678 0600A0E1 		mov	r0, r6
 447 067c 0710A0E1 		mov	r1, r7
 448 0680 FEFFFFEB 		bl	sin
 449 0684 0020A0E1 		mov	r2, r0
 450 0688 0130A0E1 		mov	r3, r1
 451 068c 0400A0E1 		mov	r0, r4
 452 0690 0510A0E1 		mov	r1, r5
 453 0694 FEFFFFEB 		bl	__muldf3
 454 0698 0020A0E1 		mov	r2, r0
 455 069c 0130A0E1 		mov	r3, r1
 456 06a0 0800A0E1 		mov	r0, r8
 457 06a4 0910A0E1 		mov	r1, r9
 458 06a8 FEFFFFEB 		bl	__adddf3
 459 06ac 0060A0E1 		mov	r6, r0
 460 06b0 04009DE5 		ldr	r0, [sp, #4]	@ float
 461 06b4 0170A0E1 		mov	r7, r1
 462 06b8 FEFFFFEB 		bl	__extendsfdf2
 463 06bc 48208DE2 		add	r2, sp, #72
 464 06c0 0C0092E8 		ldmia	r2, {r2-r3}
 465 06c4 FEFFFFEB 		bl	__muldf3
 466 06c8 0040A0E1 		mov	r4, r0
 467 06cc 0150A0E1 		mov	r5, r1
 468 06d0 0A00A0E1 		mov	r0, sl
 469 06d4 0B10A0E1 		mov	r1, fp
 470 06d8 FEFFFFEB 		bl	sin
 471 06dc 0020A0E1 		mov	r2, r0
 472 06e0 0130A0E1 		mov	r3, r1
 473 06e4 0400A0E1 		mov	r0, r4
 474 06e8 0510A0E1 		mov	r1, r5
 475 06ec FEFFFFEB 		bl	__muldf3
 476 06f0 0020A0E1 		mov	r2, r0
 477 06f4 0130A0E1 		mov	r3, r1
 478 06f8 0600A0E1 		mov	r0, r6
 479 06fc 0710A0E1 		mov	r1, r7
 480 0700 FEFFFFEB 		bl	__subdf3
 481 0704 0040A0E1 		mov	r4, r0
 482 0708 0150A0E1 		mov	r5, r1
 483 070c 0A00A0E1 		mov	r0, sl
 484 0710 0B10A0E1 		mov	r1, fp
 485 0714 FEFFFFEB 		bl	cos
 486 0718 0020A0E1 		mov	r2, r0
 487 071c 0130A0E1 		mov	r3, r1
 488 0720 48008DE2 		add	r0, sp, #72
 489 0724 030090E8 		ldmia	r0, {r0-r1}
 490 0728 FEFFFFEB 		bl	__muldf3
 491 072c 0020A0E1 		mov	r2, r0
 492 0730 0130A0E1 		mov	r3, r1
 493 0734 0400A0E1 		mov	r0, r4
 494 0738 0510A0E1 		mov	r1, r5
 495 073c FEFFFFEB 		bl	__divdf3
 496 0740 FEFFFFEB 		bl	__truncdfsf2
 497 0744 00A0A0E1 		mov	sl, r0
 498 0748 64009DE5 		ldr	r0, [sp, #100]	@ float
 499 074c FEFFFFEB 		bl	lookup_cos
 500 0750 0040A0E1 		mov	r4, r0
 501 0754 60009DE5 		ldr	r0, [sp, #96]	@ float
 502 0758 FEFFFFEB 		bl	lookup_sin
 503 075c 0060A0E1 		mov	r6, r0
 504 0760 64009DE5 		ldr	r0, [sp, #100]	@ float
 505 0764 FEFFFFEB 		bl	lookup_sin
 506 0768 0050A0E1 		mov	r5, r0
 507 076c 60009DE5 		ldr	r0, [sp, #96]	@ float
 508 0770 FEFFFFEB 		bl	lookup_cos
 509 0774 0080A0E1 		mov	r8, r0
 510 0778 64009DE5 		ldr	r0, [sp, #100]	@ float
 511 077c FEFFFFEB 		bl	lookup_sin
 512 0780 0410A0E1 		mov	r1, r4
 513 0784 0070A0E1 		mov	r7, r0
 514 0788 00009DE5 		ldr	r0, [sp, #0]	@ float
 515 078c FEFFFFEB 		bl	__mulsf3
 516 0790 0510A0E1 		mov	r1, r5
 517 0794 0040A0E1 		mov	r4, r0
 518 0798 0600A0E1 		mov	r0, r6
 519 079c FEFFFFEB 		bl	__mulsf3
 520 07a0 0010A0E1 		mov	r1, r0
 521 07a4 04009DE5 		ldr	r0, [sp, #4]	@ float
 522 07a8 FEFFFFEB 		bl	__mulsf3
 523 07ac 0010A0E1 		mov	r1, r0
 524 07b0 0400A0E1 		mov	r0, r4
 525 07b4 FEFFFFEB 		bl	__addsf3
 526 07b8 0710A0E1 		mov	r1, r7
 527 07bc 0040A0E1 		mov	r4, r0
 528 07c0 0800A0E1 		mov	r0, r8
 529 07c4 FEFFFFEB 		bl	__mulsf3
 530 07c8 0010A0E1 		mov	r1, r0
 531 07cc 0A00A0E1 		mov	r0, sl
 532 07d0 FEFFFFEB 		bl	__mulsf3
 533 07d4 0010A0E1 		mov	r1, r0
 534 07d8 0400A0E1 		mov	r0, r4
 535 07dc FEFFFFEB 		bl	__addsf3
 536 07e0 0070A0E1 		mov	r7, r0
 537 07e4 60009DE5 		ldr	r0, [sp, #96]	@ float
 538 07e8 FEFFFFEB 		bl	lookup_cos
 539 07ec 0040A0E1 		mov	r4, r0
 540 07f0 60009DE5 		ldr	r0, [sp, #96]	@ float
 541 07f4 FEFFFFEB 		bl	lookup_sin
 542 07f8 0410A0E1 		mov	r1, r4
 543 07fc 0050A0E1 		mov	r5, r0
 544 0800 04009DE5 		ldr	r0, [sp, #4]	@ float
 545 0804 FEFFFFEB 		bl	__mulsf3
 546 0808 0510A0E1 		mov	r1, r5
 547 080c 0040A0E1 		mov	r4, r0
 548 0810 0A00A0E1 		mov	r0, sl
 549 0814 FEFFFFEB 		bl	__mulsf3
 550 0818 0010A0E1 		mov	r1, r0
 551 081c 0400A0E1 		mov	r0, r4
 552 0820 FEFFFFEB 		bl	__subsf3
 553 0824 0010A0E3 		mov	r1, #0
 554 0828 0060A0E1 		mov	r6, r0
 555 082c 0700A0E1 		mov	r0, r7
 556 0830 FEFFFFEB 		bl	__gesf2
 557 0834 D114E0E3 		mvn	r1, #-788529152
 558 0838 000050E3 		cmp	r0, #0
 559 083c 091741E2 		sub	r1, r1, #2359296
 560 0840 0700A0A1 		movge	r0, r7
 561 0844 020187B2 		addlt	r0, r7, #-2147483648
 562 0848 191C41E2 		sub	r1, r1, #6400
 563 084c FEFFFFEB 		bl	__addsf3
 564 0850 0010A0E3 		mov	r1, #0
 565 0854 0050A0E1 		mov	r5, r0
 566 0858 0600A0E1 		mov	r0, r6
 567 085c FEFFFFEB 		bl	__gesf2
 568 0860 000050E3 		cmp	r0, #0
 569 0864 C00100BA 		blt	.L28
 570 0868 0510A0E1 		mov	r1, r5
 571 086c 0600A0E1 		mov	r0, r6
 572 0870 FEFFFFEB 		bl	__subsf3
 573 0874 0510A0E1 		mov	r1, r5
 574 0878 0040A0E1 		mov	r4, r0
 575 087c 0600A0E1 		mov	r0, r6
 576 0880 FEFFFFEB 		bl	__addsf3
 577 0884 0010A0E1 		mov	r1, r0
 578 0888 0400A0E1 		mov	r0, r4
 579 088c FEFFFFEB 		bl	__divsf3
 580 0890 9351E0E3 		mvn	r5, #-1073741788
 581 0894 B65845E2 		sub	r5, r5, #11927552
 582 0898 0040A0E1 		mov	r4, r0
 583 089c 0F5A45E2 		sub	r5, r5, #61440
 584              	.L31:
 585 08a0 0400A0E1 		mov	r0, r4
 586 08a4 00141FE5 		ldr	r1, .L79+48
 587 08a8 FEFFFFEB 		bl	__mulsf3
 588 08ac 0010A0E1 		mov	r1, r0
 589 08b0 0400A0E1 		mov	r0, r4
 590 08b4 FEFFFFEB 		bl	__mulsf3
 591 08b8 10141FE5 		ldr	r1, .L79+52
 592 08bc FEFFFFEB 		bl	__subsf3
 593 08c0 0010A0E1 		mov	r1, r0
 594 08c4 0400A0E1 		mov	r0, r4
 595 08c8 FEFFFFEB 		bl	__mulsf3
 596 08cc 0010A0E1 		mov	r1, r0
 597 08d0 0500A0E1 		mov	r0, r5
 598 08d4 FEFFFFEB 		bl	__addsf3
 599 08d8 0010A0E3 		mov	r1, #0
 600 08dc 00B0A0E1 		mov	fp, r0
 601 08e0 0700A0E1 		mov	r0, r7
 602 08e4 FEFFFFEB 		bl	__ltsf2
 603 08e8 3C841FE5 		ldr	r8, .L79+56
 604 08ec 000050E3 		cmp	r0, #0
 605 08f0 02318BB2 		addlt	r3, fp, #-2147483648
 606 08f4 000098E5 		ldr	r0, [r8, #0]	@ float
 607 08f8 03B0A0B1 		movlt	fp, r3
 608 08fc FEFFFFEB 		bl	__extendsfdf2
 609 0900 FB2F8FE2 		adr	r2, .L82
 610 0904 0C0092E8 		ldmia	r2, {r2-r3}
 611 0908 0040A0E1 		mov	r4, r0
 612 090c 0150A0E1 		mov	r5, r1
 613 0910 FEFFFFEB 		bl	__gtdf2
 614 0914 000050E3 		cmp	r0, #0
 615 0918 270100DA 		ble	.L35
 616 091c 0B00A0E1 		mov	r0, fp
 617 0920 FEFFFFEB 		bl	__extendsfdf2
 618 0924 3D2E8FE2 		adr	r2, .L82+8
 619 0928 0C0092E8 		ldmia	r2, {r2-r3}
 620 092c 0060A0E1 		mov	r6, r0
 621 0930 0170A0E1 		mov	r7, r1
 622 0934 0400A0E1 		mov	r0, r4
 623 0938 0510A0E1 		mov	r1, r5
 624 093c FEFFFFEB 		bl	__subdf3
 625 0940 0020A0E1 		mov	r2, r0
 626 0944 0130A0E1 		mov	r3, r1
 627 0948 0600A0E1 		mov	r0, r6
 628 094c 0710A0E1 		mov	r1, r7
 629 0950 FEFFFFEB 		bl	__ltdf2
 630 0954 000050E3 		cmp	r0, #0
 631 0958 1B0100AA 		bge	.L38
 632              	.L70:
 633 095c 0600A0E1 		mov	r0, r6
 634 0960 0710A0E1 		mov	r1, r7
 635 0964 FB2F8FE2 		adr	r2, .L82+100
 636 0968 0C0092E8 		ldmia	r2, {r2-r3}
 637 096c FEFFFFEB 		bl	__adddf3
 638              	.L71:
 639 0970 FEFFFFEB 		bl	__truncdfsf2
 640 0974 00B0A0E1 		mov	fp, r0
 641 0978 FEFFFFEB 		bl	__extendsfdf2
 642 097c 0060A0E1 		mov	r6, r0
 643 0980 0170A0E1 		mov	r7, r1
 644              	.L41:
 645 0984 0600A0E1 		mov	r0, r6
 646 0988 0710A0E1 		mov	r1, r7
 647 098c F12F8FE2 		adr	r2, .L82+100
 648 0990 0C0092E8 		ldmia	r2, {r2-r3}
 649 0994 FEFFFFEB 		bl	__gtdf2
 650 0998 000050E3 		cmp	r0, #0
 651 099c 320100DA 		ble	.L56
 652              	.L78:
 653 09a0 0600A0E1 		mov	r0, r6
 654 09a4 0710A0E1 		mov	r1, r7
 655 09a8 EA2F8FE2 		adr	r2, .L82+100
 656 09ac 0C0092E8 		ldmia	r2, {r2-r3}
 657 09b0 FEFFFFEB 		bl	__subdf3
 658              	.L72:
 659 09b4 FEFFFFEB 		bl	__truncdfsf2
 660 09b8 54239FE5 		ldr	r2, .L82+32
 661 09bc 0030A0E3 		mov	r3, #0
 662 09c0 003082E5 		str	r3, [r2, #0]	@ float
 663 09c4 00B0A0E1 		mov	fp, r0
 664 09c8 FEFFFFEB 		bl	__extendsfdf2
 665 09cc 0060A0E1 		mov	r6, r0
 666 09d0 0170A0E1 		mov	r7, r1
 667              	.L59:
 668 09d4 38339FE5 		ldr	r3, .L82+32
 669 09d8 00B088E5 		str	fp, [r8, #0]	@ float
 670 09dc 000093E5 		ldr	r0, [r3, #0]	@ float
 671 09e0 FEFFFFEB 		bl	__extendsfdf2
 672 09e4 CF2F8FE2 		adr	r2, .L82+52
 673 09e8 0C0092E8 		ldmia	r2, {r2-r3}
 674 09ec 0080A0E1 		mov	r8, r0
 675 09f0 0190A0E1 		mov	r9, r1
 676 09f4 FEFFFFEB 		bl	__muldf3
 677 09f8 FF25A0E3 		mov	r2, #1069547520
 678 09fc 0040A0E1 		mov	r4, r0
 679 0a00 0150A0E1 		mov	r5, r1
 680 0a04 0600A0E1 		mov	r0, r6
 681 0a08 0710A0E1 		mov	r1, r7
 682 0a0c 012682E2 		add	r2, r2, #1048576
 683 0a10 0030A0E3 		mov	r3, #0
 684 0a14 FEFFFFEB 		bl	__muldf3
 685 0a18 0130A0E1 		mov	r3, r1
 686 0a1c 0020A0E1 		mov	r2, r0
 687 0a20 0510A0E1 		mov	r1, r5
 688 0a24 0400A0E1 		mov	r0, r4
 689 0a28 FEFFFFEB 		bl	__adddf3
 690 0a2c FEFFFFEB 		bl	__truncdfsf2
 691 0a30 E0A29FE5 		ldr	sl, .L82+36
 692 0a34 D8229FE5 		ldr	r2, .L82+32
 693 0a38 000082E5 		str	r0, [r2, #0]	@ float
 694 0a3c 00009AE5 		ldr	r0, [sl, #0]	@ float
 695 0a40 FEFFFFEB 		bl	__extendsfdf2
 696 0a44 0170A0E1 		mov	r7, r1
 697 0a48 0060A0E1 		mov	r6, r0
 698 0a4c 0010A0E3 		mov	r1, #0
 699 0a50 10009DE5 		ldr	r0, [sp, #16]	@ float
 700 0a54 FEFFFFEB 		bl	__mulsf3
 701 0a58 FEFFFFEB 		bl	__extendsfdf2
 702 0a5c 50008DE5 		str	r0, [sp, #80]
 703 0a60 54108DE5 		str	r1, [sp, #84]
 704 0a64 10009DE5 		ldr	r0, [sp, #16]	@ float
 705 0a68 FEFFFFEB 		bl	__extendsfdf2
 706 0a6c AD2F8FE2 		adr	r2, .L82+52
 707 0a70 0C0092E8 		ldmia	r2, {r2-r3}
 708 0a74 58008DE5 		str	r0, [sp, #88]
 709 0a78 5C108DE5 		str	r1, [sp, #92]
 710 0a7c 0710A0E1 		mov	r1, r7
 711 0a80 0600A0E1 		mov	r0, r6
 712 0a84 FEFFFFEB 		bl	__muldf3
 713 0a88 FF25A0E3 		mov	r2, #1069547520
 714 0a8c 0040A0E1 		mov	r4, r0
 715 0a90 0150A0E1 		mov	r5, r1
 716 0a94 0030A0E3 		mov	r3, #0
 717 0a98 58008DE2 		add	r0, sp, #88
 718 0a9c 030090E8 		ldmia	r0, {r0-r1}
 719 0aa0 FEFFFFEB 		bl	__muldf3
 720 0aa4 0020A0E1 		mov	r2, r0
 721 0aa8 0130A0E1 		mov	r3, r1
 722 0aac 0400A0E1 		mov	r0, r4
 723 0ab0 0510A0E1 		mov	r1, r5
 724 0ab4 FEFFFFEB 		bl	__adddf3
 725 0ab8 FEFFFFEB 		bl	__truncdfsf2
 726 0abc 092D8FE2 		adr	r2, .L82+16
 727 0ac0 0C0092E8 		ldmia	r2, {r2-r3}
 728 0ac4 00008AE5 		str	r0, [sl, #0]	@ float
 729 0ac8 0910A0E1 		mov	r1, r9
 730 0acc 0800A0E1 		mov	r0, r8
 731 0ad0 FEFFFFEB 		bl	__muldf3
 732 0ad4 0040A0E1 		mov	r4, r0
 733 0ad8 0150A0E1 		mov	r5, r1
 734 0adc 0B00A0E1 		mov	r0, fp
 735 0ae0 0010A0E3 		mov	r1, #0
 736 0ae4 FEFFFFEB 		bl	__mulsf3
 737 0ae8 FEFFFFEB 		bl	__extendsfdf2
 738 0aec 0020A0E1 		mov	r2, r0
 739 0af0 0130A0E1 		mov	r3, r1
 740 0af4 0400A0E1 		mov	r0, r4
 741 0af8 0510A0E1 		mov	r1, r5
 742 0afc FEFFFFEB 		bl	__adddf3
 743 0b00 FEFFFFEB 		bl	__truncdfsf2
 744 0b04 0710A0E1 		mov	r1, r7
 745 0b08 0040A0E1 		mov	r4, r0
 746 0b0c 7E2F8FE2 		adr	r2, .L82+24
 747 0b10 0C0092E8 		ldmia	r2, {r2-r3}
 748 0b14 0600A0E1 		mov	r0, r6
 749 0b18 FEFFFFEB 		bl	__muldf3
 750 0b1c 50208DE2 		add	r2, sp, #80
 751 0b20 0C0092E8 		ldmia	r2, {r2-r3}
 752 0b24 FEFFFFEB 		bl	__adddf3
 753 0b28 FEFFFFEB 		bl	__truncdfsf2
 754 0b2c 0010A0E1 		mov	r1, r0
 755 0b30 0400A0E1 		mov	r0, r4
 756 0b34 FEFFFFEB 		bl	__addsf3
 757 0b38 0070A0E1 		mov	r7, r0
 758 0b3c FEFFFFEB 		bl	__extendsfdf2
 759 0b40 6D2F8FE2 		adr	r2, .L82+8
 760 0b44 0C0092E8 		ldmia	r2, {r2-r3}
 761 0b48 0040A0E1 		mov	r4, r0
 762 0b4c 0150A0E1 		mov	r5, r1
 763 0b50 FEFFFFEB 		bl	__gtdf2
 764 0b54 000050E3 		cmp	r0, #0
 765 0b58 F40000DA 		ble	.L62
 766 0b5c 7D2F8FE2 		adr	r2, .L82+100
 767 0b60 0C0092E8 		ldmia	r2, {r2-r3}
 768 0b64 0400A0E1 		mov	r0, r4
 769 0b68 0510A0E1 		mov	r1, r5
 770 0b6c FEFFFFEB 		bl	__subdf3
 771 0b70 FEFFFFEB 		bl	__truncdfsf2
 772 0b74 0070A0E1 		mov	r7, r0
 773              	.L65:
 774 0b78 94309DE5 		ldr	r3, [sp, #148]
 775 0b7c 60209DE5 		ldr	r2, [sp, #96]	@ float
 776 0b80 002083E5 		str	r2, [r3, #0]	@ float
 777 0b84 64209DE5 		ldr	r2, [sp, #100]	@ float
 778 0b88 087083E5 		str	r7, [r3, #8]	@ float
 779 0b8c 88619FE5 		ldr	r6, .L82+40
 780 0b90 042083E5 		str	r2, [r3, #4]	@ float
 781 0b94 000096E5 		ldr	r0, [r6, #0]	@ float
 782 0b98 FEFFFFEB 		bl	__extendsfdf2
 783 0b9c 162E8FE2 		adr	r2, .L82+16
 784 0ba0 0C0092E8 		ldmia	r2, {r2-r3}
 785 0ba4 0040A0E1 		mov	r4, r0
 786 0ba8 0150A0E1 		mov	r5, r1
 787 0bac FEFFFFEB 		bl	__muldf3
 788 0bb0 0020A0E1 		mov	r2, r0
 789 0bb4 0130A0E1 		mov	r3, r1
 790 0bb8 28008DE2 		add	r0, sp, #40
 791 0bbc 030090E8 		ldmia	r0, {r0-r1}
 792 0bc0 FEFFFFEB 		bl	__adddf3
 793 0bc4 FEFFFFEB 		bl	__truncdfsf2
 794 0bc8 98309DE5 		ldr	r3, [sp, #152]
 795 0bcc 0510A0E1 		mov	r1, r5
 796 0bd0 000083E5 		str	r0, [r3, #0]	@ float
 797 0bd4 532F8FE2 		adr	r2, .L82+52
 798 0bd8 0C0092E8 		ldmia	r2, {r2-r3}
 799 0bdc 0400A0E1 		mov	r0, r4
 800 0be0 FEFFFFEB 		bl	__muldf3
 801 0be4 FF25A0E3 		mov	r2, #1069547520
 802 0be8 0040A0E1 		mov	r4, r0
 803 0bec 0150A0E1 		mov	r5, r1
 804 0bf0 012682E2 		add	r2, r2, #1048576
 805 0bf4 0030A0E3 		mov	r3, #0
 806 0bf8 30008DE2 		add	r0, sp, #48
 807 0bfc 030090E8 		ldmia	r0, {r0-r1}
 808 0c00 FEFFFFEB 		bl	__muldf3
 809 0c04 0020A0E1 		mov	r2, r0
 810 0c08 0130A0E1 		mov	r3, r1
 811 0c0c 0400A0E1 		mov	r0, r4
 812 0c10 0510A0E1 		mov	r1, r5
 813 0c14 FEFFFFEB 		bl	__adddf3
 814 0c18 FEFFFFEB 		bl	__truncdfsf2
 815 0c1c FC709FE5 		ldr	r7, .L82+44
 816 0c20 000086E5 		str	r0, [r6, #0]	@ float
 817 0c24 000097E5 		ldr	r0, [r7, #0]	@ float
 818 0c28 FEFFFFEB 		bl	__extendsfdf2
 819 0c2c D0208FE2 		adr	r2, .L82+16
 820 0c30 0C0092E8 		ldmia	r2, {r2-r3}
 821 0c34 0040A0E1 		mov	r4, r0
 822 0c38 0150A0E1 		mov	r5, r1
 823 0c3c FEFFFFEB 		bl	__muldf3
 824 0c40 0020A0E1 		mov	r2, r0
 825 0c44 0130A0E1 		mov	r3, r1
 826 0c48 38008DE2 		add	r0, sp, #56
 827 0c4c 030090E8 		ldmia	r0, {r0-r1}
 828 0c50 FEFFFFEB 		bl	__adddf3
 829 0c54 FEFFFFEB 		bl	__truncdfsf2
 830 0c58 98209DE5 		ldr	r2, [sp, #152]
 831 0c5c 0510A0E1 		mov	r1, r5
 832 0c60 040082E5 		str	r0, [r2, #4]	@ float
 833 0c64 BC208FE2 		adr	r2, .L82+52
 834 0c68 0C0092E8 		ldmia	r2, {r2-r3}
 835 0c6c 0400A0E1 		mov	r0, r4
 836 0c70 FEFFFFEB 		bl	__muldf3
 837 0c74 FF25A0E3 		mov	r2, #1069547520
 838 0c78 0040A0E1 		mov	r4, r0
 839 0c7c 0150A0E1 		mov	r5, r1
 840 0c80 012682E2 		add	r2, r2, #1048576
 841 0c84 0030A0E3 		mov	r3, #0
 842 0c88 40008DE2 		add	r0, sp, #64
 843 0c8c 030090E8 		ldmia	r0, {r0-r1}
 844 0c90 FEFFFFEB 		bl	__muldf3
 845 0c94 0020A0E1 		mov	r2, r0
 846 0c98 0130A0E1 		mov	r3, r1
 847 0c9c 0400A0E1 		mov	r0, r4
 848 0ca0 0510A0E1 		mov	r1, r5
 849 0ca4 FEFFFFEB 		bl	__adddf3
 850 0ca8 FEFFFFEB 		bl	__truncdfsf2
 851 0cac 70609FE5 		ldr	r6, .L82+48
 852 0cb0 000087E5 		str	r0, [r7, #0]	@ float
 853 0cb4 000096E5 		ldr	r0, [r6, #0]	@ float
 854 0cb8 FEFFFFEB 		bl	__extendsfdf2
 855 0cbc 40208FE2 		adr	r2, .L82+16
 856 0cc0 0C0092E8 		ldmia	r2, {r2-r3}
 857 0cc4 0040A0E1 		mov	r4, r0
 858 0cc8 0150A0E1 		mov	r5, r1
 859 0ccc FEFFFFEB 		bl	__muldf3
 860 0cd0 0020A0E1 		mov	r2, r0
 861 0cd4 0130A0E1 		mov	r3, r1
 862 0cd8 50008DE2 		add	r0, sp, #80
 863 0cdc 030090E8 		ldmia	r0, {r0-r1}
 864 0ce0 FEFFFFEB 		bl	__adddf3
 865 0ce4 FEFFFFEB 		bl	__truncdfsf2
 866 0ce8 98309DE5 		ldr	r3, [sp, #152]
 867 0cec 0510A0E1 		mov	r1, r5
 868 0cf0 1A0000EA 		b	.L83
 869              	.L84:
 870              		.align	2
 871              	.L82:
 872 0cf4 FB21F93F 		.word	1073291771
 873 0cf8 182D4454 		.word	1413754136
 874 0cfc FB210940 		.word	1074340347
 875 0d00 182D4454 		.word	1413754136
 876 0d04 51B8CE3F 		.word	1070512209
 877 0d08 B81E85EB 		.word	-343597384
 878 0d0c E17AC43F 		.word	1069841121
 879 0d10 7B14AE47 		.word	1202590843
 880 0d14 1C000000 		.word	psi_mag_state.2876
 881 0d18 10000000 		.word	psi_gyro_state.2879
 882 0d1c 0C000000 		.word	phi_rate_state.2880
 883 0d20 08000000 		.word	theta_rate_state.2881
 884 0d24 04000000 		.word	psi_rate_state.2882
 885 0d28 7A14EE3F 		.word	1072567418
 886 0d2c 14AE47E1 		.word	-515396076
 887 0d30 FB21F93F 		.word	1073291771
 888 0d34 182D4454 		.word	1413754136
 889 0d38 FB21F9BF 		.word	-1074191877
 890 0d3c 182D4454 		.word	1413754136
 891 0d40 FB2119C0 		.word	-1072094725
 892 0d44 182D4454 		.word	1413754136
 893 0d48 FB210940 		.word	1074340347
 894 0d4c 182D4454 		.word	1413754136
 895 0d50 FB2109C0 		.word	-1073143301
 896 0d54 182D4454 		.word	1413754136
 897 0d58 FB211940 		.word	1075388923
 898 0d5c 182D4454 		.word	1413754136
 899              	.L83:
 900 0d60 080083E5 		str	r0, [r3, #8]	@ float
 901 0d64 44204FE2 		adr	r2, .L82+52
 902 0d68 0C0092E8 		ldmia	r2, {r2-r3}
 903 0d6c 0400A0E1 		mov	r0, r4
 904 0d70 FEFFFFEB 		bl	__muldf3
 905 0d74 FF25A0E3 		mov	r2, #1069547520
 906 0d78 0040A0E1 		mov	r4, r0
 907 0d7c 0150A0E1 		mov	r5, r1
 908 0d80 012682E2 		add	r2, r2, #1048576
 909 0d84 0030A0E3 		mov	r3, #0
 910 0d88 58008DE2 		add	r0, sp, #88
 911 0d8c 030090E8 		ldmia	r0, {r0-r1}
 912 0d90 FEFFFFEB 		bl	__muldf3
 913 0d94 0020A0E1 		mov	r2, r0
 914 0d98 0130A0E1 		mov	r3, r1
 915 0d9c 0400A0E1 		mov	r0, r4
 916 0da0 0510A0E1 		mov	r1, r5
 917 0da4 FEFFFFEB 		bl	__adddf3
 918 0da8 FEFFFFEB 		bl	__truncdfsf2
 919 0dac 000086E5 		str	r0, [r6, #0]	@ float
 920 0db0 68D08DE2 		add	sp, sp, #104
 921 0db4 F04FBDE8 		ldmfd	sp!, {r4, r5, r6, r7, r8, r9, sl, fp, lr}
 922 0db8 1EFF2FE1 		bx	lr
 923              	.L35:
 924 0dbc 0B00A0E1 		mov	r0, fp
 925 0dc0 FEFFFFEB 		bl	__extendsfdf2
 926 0dc4 0060A0E1 		mov	r6, r0
 927 0dc8 0170A0E1 		mov	r7, r1
 928              	.L38:
 929 0dcc 0400A0E1 		mov	r0, r4
 930 0dd0 0510A0E1 		mov	r1, r5
 931 0dd4 A4204FE2 		adr	r2, .L82+68
 932 0dd8 0C0092E8 		ldmia	r2, {r2-r3}
 933 0ddc FEFFFFEB 		bl	__ltdf2
 934 0de0 000050E3 		cmp	r0, #0
 935 0de4 2D0000BA 		blt	.L76
 936              	.L42:
 937 0de8 0600A0E1 		mov	r0, r6
 938 0dec 0710A0E1 		mov	r1, r7
 939 0df0 C8204FE2 		adr	r2, .L82+60
 940 0df4 0C0092E8 		ldmia	r2, {r2-r3}
 941 0df8 FEFFFFEB 		bl	__gtdf2
 942 0dfc 000050E3 		cmp	r0, #0
 943 0e00 380000CA 		bgt	.L77
 944              	.L47:
 945 0e04 0600A0E1 		mov	r0, r6
 946 0e08 0710A0E1 		mov	r1, r7
 947 0e0c DC204FE2 		adr	r2, .L82+68
 948 0e10 0C0092E8 		ldmia	r2, {r2-r3}
 949 0e14 FEFFFFEB 		bl	__ltdf2
 950 0e18 000050E3 		cmp	r0, #0
 951 0e1c D8FEFFAA 		bge	.L41
 952 0e20 E0204FE2 		adr	r2, .L82+84
 953 0e24 0C0092E8 		ldmia	r2, {r2-r3}
 954 0e28 0600A0E1 		mov	r0, r6
 955 0e2c 0710A0E1 		mov	r1, r7
 956 0e30 FEFFFFEB 		bl	__adddf3
 957 0e34 0020A0E1 		mov	r2, r0
 958 0e38 0130A0E1 		mov	r3, r1
 959 0e3c 0400A0E1 		mov	r0, r4
 960 0e40 0510A0E1 		mov	r1, r5
 961 0e44 FEFFFFEB 		bl	__gtdf2
 962 0e48 000050E3 		cmp	r0, #0
 963 0e4c C2FEFFCA 		bgt	.L70
 964 0e50 0600A0E1 		mov	r0, r6
 965 0e54 0710A0E1 		mov	r1, r7
 966 0e58 422F4FE2 		adr	r2, .L82+100
 967 0e5c 0C0092E8 		ldmia	r2, {r2-r3}
 968 0e60 FEFFFFEB 		bl	__gtdf2
 969 0e64 000050E3 		cmp	r0, #0
 970 0e68 CCFEFFCA 		bgt	.L78
 971              	.L56:
 972 0e6c 0600A0E1 		mov	r0, r6
 973 0e70 0710A0E1 		mov	r1, r7
 974 0e74 4F2F4FE2 		adr	r2, .L82+76
 975 0e78 0C0092E8 		ldmia	r2, {r2-r3}
 976 0e7c FEFFFFEB 		bl	__ltdf2
 977 0e80 000050E3 		cmp	r0, #0
 978 0e84 D2FEFFAA 		bge	.L59
 979 0e88 0600A0E1 		mov	r0, r6
 980 0e8c 0710A0E1 		mov	r1, r7
 981 0e90 052D4FE2 		adr	r2, .L82+100
 982 0e94 0C0092E8 		ldmia	r2, {r2-r3}
 983 0e98 FEFFFFEB 		bl	__adddf3
 984 0e9c C4FEFFEA 		b	.L72
 985              	.L76:
 986 0ea0 162E4FE2 		adr	r2, .L82+84
 987 0ea4 0C0092E8 		ldmia	r2, {r2-r3}
 988 0ea8 0400A0E1 		mov	r0, r4
 989 0eac 0510A0E1 		mov	r1, r5
 990 0eb0 FEFFFFEB 		bl	__adddf3
 991 0eb4 0020A0E1 		mov	r2, r0
 992 0eb8 0130A0E1 		mov	r3, r1
 993 0ebc 0600A0E1 		mov	r0, r6
 994 0ec0 0710A0E1 		mov	r1, r7
 995 0ec4 FEFFFFEB 		bl	__gtdf2
 996 0ec8 000050E3 		cmp	r0, #0
 997 0ecc C5FFFFDA 		ble	.L42
 998 0ed0 0600A0E1 		mov	r0, r6
 999 0ed4 0710A0E1 		mov	r1, r7
 1000 0ed8 622F4FE2 		adr	r2, .L82+100
 1001 0edc 0C0092E8 		ldmia	r2, {r2-r3}
 1002 0ee0 FEFFFFEB 		bl	__subdf3
 1003 0ee4 A1FEFFEA 		b	.L71
 1004              	.L77:
 1005 0ee8 6A2F4FE2 		adr	r2, .L82+84
 1006 0eec 0C0092E8 		ldmia	r2, {r2-r3}
 1007 0ef0 0600A0E1 		mov	r0, r6
 1008 0ef4 0710A0E1 		mov	r1, r7
 1009 0ef8 FEFFFFEB 		bl	__subdf3
 1010 0efc 0020A0E1 		mov	r2, r0
 1011 0f00 0130A0E1 		mov	r3, r1
 1012 0f04 0400A0E1 		mov	r0, r4
 1013 0f08 0510A0E1 		mov	r1, r5
 1014 0f0c FEFFFFEB 		bl	__ltdf2
 1015 0f10 000050E3 		cmp	r0, #0
 1016 0f14 BAFFFFAA 		bge	.L47
 1017 0f18 0600A0E1 		mov	r0, r6
 1018 0f1c 0710A0E1 		mov	r1, r7
 1019 0f20 1D2E4FE2 		adr	r2, .L82+100
 1020 0f24 0C0092E8 		ldmia	r2, {r2-r3}
 1021 0f28 FEFFFFEB 		bl	__subdf3
 1022 0f2c 8FFEFFEA 		b	.L71
 1023              	.L62:
 1024 0f30 0400A0E1 		mov	r0, r4
 1025 0f34 0510A0E1 		mov	r1, r5
 1026 0f38 1F2E4FE2 		adr	r2, .L82+92
 1027 0f3c 0C0092E8 		ldmia	r2, {r2-r3}
 1028 0f40 FEFFFFEB 		bl	__ltdf2
 1029 0f44 000050E3 		cmp	r0, #0
 1030 0f48 0AFFFFAA 		bge	.L65
 1031 0f4c 7F2F4FE2 		adr	r2, .L82+100
 1032 0f50 0C0092E8 		ldmia	r2, {r2-r3}
 1033 0f54 0400A0E1 		mov	r0, r4
 1034 0f58 0510A0E1 		mov	r1, r5
 1035 0f5c FEFFFFEB 		bl	__adddf3
 1036 0f60 FEFFFFEB 		bl	__truncdfsf2
 1037 0f64 0070A0E1 		mov	r7, r0
 1038 0f68 02FFFFEA 		b	.L65
 1039              	.L28:
 1040 0f6c 0510A0E1 		mov	r1, r5
 1041 0f70 0600A0E1 		mov	r0, r6
 1042 0f74 FEFFFFEB 		bl	__addsf3
 1043 0f78 0610A0E1 		mov	r1, r6
 1044 0f7c 0040A0E1 		mov	r4, r0
 1045 0f80 0500A0E1 		mov	r0, r5
 1046 0f84 FEFFFFEB 		bl	__subsf3
 1047 0f88 0010A0E1 		mov	r1, r0
 1048 0f8c 0400A0E1 		mov	r0, r4
 1049 0f90 FEFFFFEB 		bl	__divsf3
 1050 0f94 5B59A0E3 		mov	r5, #1490944
 1051 0f98 BE5E85E2 		add	r5, r5, #3040
 1052 0f9c 115185E2 		add	r5, r5, #1073741828
 1053 0fa0 0040A0E1 		mov	r4, r0
 1054 0fa4 3DFEFFEA 		b	.L31
 1055              	.L17:
 1056 0fa8 0510A0E1 		mov	r1, r5
 1057 0fac 0600A0E1 		mov	r0, r6
 1058 0fb0 FEFFFFEB 		bl	__addsf3
 1059 0fb4 0610A0E1 		mov	r1, r6
 1060 0fb8 0040A0E1 		mov	r4, r0
 1061 0fbc 0500A0E1 		mov	r0, r5
 1062 0fc0 FEFFFFEB 		bl	__subsf3
 1063 0fc4 0010A0E1 		mov	r1, r0
 1064 0fc8 0400A0E1 		mov	r0, r4
 1065 0fcc FEFFFFEB 		bl	__divsf3
 1066 0fd0 5B59A0E3 		mov	r5, #1490944
 1067 0fd4 BE5E85E2 		add	r5, r5, #3040
 1068 0fd8 115185E2 		add	r5, r5, #1073741828
 1069 0fdc 0040A0E1 		mov	r4, r0
 1070 0fe0 B1FCFFEA 		b	.L20
 1071              	.L6:
 1072 0fe4 0510A0E1 		mov	r1, r5
 1073 0fe8 0700A0E1 		mov	r0, r7
 1074 0fec FEFFFFEB 		bl	__addsf3
 1075 0ff0 0710A0E1 		mov	r1, r7
 1076 0ff4 0040A0E1 		mov	r4, r0
 1077 0ff8 0500A0E1 		mov	r0, r5
 1078 0ffc FEFFFFEB 		bl	__subsf3
 1079 1000 0010A0E1 		mov	r1, r0
 1080 1004 0400A0E1 		mov	r0, r4
 1081 1008 FEFFFFEB 		bl	__divsf3
 1082 100c 5B59A0E3 		mov	r5, #1490944
 1083 1010 BE5E85E2 		add	r5, r5, #3040
 1084 1014 115185E2 		add	r5, r5, #1073741828
 1085 1018 0040A0E1 		mov	r4, r0
 1086 101c 5BFCFFEA 		b	.L9
 1088              		.bss
 1089              		.align	2
 1090              	psi_prev.2892:
 1091 0000 00000000 		.space	4
 1092              		.align	2
 1093              	psi_rate_state.2882:
 1094 0004 00000000 		.space	4
 1095              		.align	2
 1096              	theta_rate_state.2881:
 1097 0008 00000000 		.space	4
 1098              		.align	2
 1099              	phi_rate_state.2880:
 1100 000c 00000000 		.space	4
 1101              		.align	2
 1102              	psi_gyro_state.2879:
 1103 0010 00000000 		.space	4
 1104              		.align	2
 1105              	theta_gyro_state.2878:
 1106 0014 00000000 		.space	4
 1107              		.align	2
 1108              	phi_gyro_state.2877:
 1109 0018 00000000 		.space	4
 1110              		.align	2
 1111              	psi_mag_state.2876:
 1112 001c 00000000 		.space	4
 1113              		.align	2
 1114              	theta_acc_state.2875:
 1115 0020 00000000 		.space	4
 1116              		.align	2
 1117              	phi_acc_state.2874:
 1118 0024 00000000 		.space	4
 1119              		.comm	global_param_id,4,4
 1120              		.comm	state_fly_id,4,4
 1121              		.comm	global_data,2700,4
 1122              		.ident	"GCC: (GNU) 4.1.1 (WinARM)"
DEFINED SYMBOLS
                            *ABS*:00000000 attitude_compl_euler.c
C:\Users\Srdjan\AppData\Local\Temp/cc4Abaaa.s:22     .text:00000000 complimentary_filter_predict_rad
C:\Users\Srdjan\AppData\Local\Temp/cc4Abaaa.s:26     .text:00000000 $a
C:\Users\Srdjan\AppData\Local\Temp/cc4Abaaa.s:318    .text:0000047c $d
C:\Users\Srdjan\AppData\Local\Temp/cc4Abaaa.s:1117   .bss:00000024 phi_acc_state.2874
C:\Users\Srdjan\AppData\Local\Temp/cc4Abaaa.s:1114   .bss:00000020 theta_acc_state.2875
C:\Users\Srdjan\AppData\Local\Temp/cc4Abaaa.s:1108   .bss:00000018 phi_gyro_state.2877
C:\Users\Srdjan\AppData\Local\Temp/cc4Abaaa.s:1105   .bss:00000014 theta_gyro_state.2878
C:\Users\Srdjan\AppData\Local\Temp/cc4Abaaa.s:1090   .bss:00000000 psi_prev.2892
C:\Users\Srdjan\AppData\Local\Temp/cc4Abaaa.s:340    .text:000004d0 $a
C:\Users\Srdjan\AppData\Local\Temp/cc4Abaaa.s:872    .text:00000cf4 $d
C:\Users\Srdjan\AppData\Local\Temp/cc4Abaaa.s:1111   .bss:0000001c psi_mag_state.2876
C:\Users\Srdjan\AppData\Local\Temp/cc4Abaaa.s:1102   .bss:00000010 psi_gyro_state.2879
C:\Users\Srdjan\AppData\Local\Temp/cc4Abaaa.s:1099   .bss:0000000c phi_rate_state.2880
C:\Users\Srdjan\AppData\Local\Temp/cc4Abaaa.s:1096   .bss:00000008 theta_rate_state.2881
C:\Users\Srdjan\AppData\Local\Temp/cc4Abaaa.s:1093   .bss:00000004 psi_rate_state.2882
C:\Users\Srdjan\AppData\Local\Temp/cc4Abaaa.s:900    .text:00000d60 $a
                             .bss:00000000 $d
                            *COM*:00000004 global_param_id
                            *COM*:00000004 state_fly_id
                            *COM*:00000a8c global_data

UNDEFINED SYMBOLS
__floatsisf
__mulsf3
__floatsidf
__muldf3
__truncdfsf2
__gesf2
__addsf3
__subsf3
__divsf3
__ltsf2
__extendsfdf2
__adddf3
__subdf3
__divdf3
__gtdf2
__ltdf2
lookup_sin
lookup_cos
sin
cos
