   1              		.file	"calibration.c"
   2              		.text
   3              		.align	2
   4              		.global	start_mag_calibration
   6              	start_mag_calibration:
   7              		@ Function supports interworking.
   8              		@ args = 0, pretend = 0, frame = 0
   9              		@ frame_needed = 0, uses_anonymous_args = 0
  10              		@ link register save eliminated.
  11              		@ lr needed for prologue
  12 0000 1EFF2FE1 		bx	lr
  14              		.section	.rodata.str1.4,"aMS",%progbits,1
  15              		.align	2
  16              	.LC0:
  17 0000 43616C69 		.ascii	"Calibration finished. UART buffers cleared.\000"
  17      62726174 
  17      696F6E20 
  17      66696E69 
  17      73686564 
  18              		.text
  19              		.align	2
  20              		.global	calibration_exit
  22              	calibration_exit:
  23              		@ Function supports interworking.
  24              		@ args = 0, pretend = 0, frame = 0
  25              		@ frame_needed = 0, uses_anonymous_args = 0
  26 0004 10402DE9 		stmfd	sp!, {r4, lr}
  27 0008 6C309FE5 		ldr	r3, .L17
  28 000c 0000D3E5 		ldrb	r0, [r3, #0]	@ zero_extendqisi2
  29 0010 FEFFFFEB 		bl	sys_set_mode
  30 0014 64309FE5 		ldr	r3, .L17+4
  31 0018 0000D3E5 		ldrb	r0, [r3, #0]	@ zero_extendqisi2
  32 001c FEFFFFEB 		bl	sys_set_state
  33 0020 0040A0E3 		mov	r4, #0
  34              	.L4:
  35 0024 014084E2 		add	r4, r4, #1
  36 0028 FEFFFFEB 		bl	debug_message_send_one
  37 002c 100054E3 		cmp	r4, #16
  38 0030 FBFFFF1A 		bne	.L4
  39 0034 FEFFFFEB 		bl	uart0_char_available
  40 0038 000050E3 		cmp	r0, #0
  41 003c 0700000A 		beq	.L13
  42              	.L6:
  43 0040 FEFFFFEB 		bl	uart0_get_char
  44 0044 FEFFFFEB 		bl	uart0_char_available
  45 0048 000050E3 		cmp	r0, #0
  46 004c FBFFFF1A 		bne	.L6
  47 0050 FEFFFFEB 		bl	uart1_char_available
  48 0054 000050E3 		cmp	r0, #0
  49 0058 0300000A 		beq	.L16
  50              	.L8:
  51 005c FEFFFFEB 		bl	uart1_get_char
  52              	.L13:
  53 0060 FEFFFFEB 		bl	uart1_char_available
  54 0064 000050E3 		cmp	r0, #0
  55 0068 FBFFFF1A 		bne	.L8
  56              	.L16:
  57 006c 10009FE5 		ldr	r0, .L17+8
  58 0070 FEFFFFEB 		bl	debug_message_buffer
  59 0074 1040BDE8 		ldmfd	sp!, {r4, lr}
  60 0078 1EFF2FE1 		bx	lr
  61              	.L18:
  62              		.align	2
  63              	.L17:
  64 007c 51000000 		.word	calibration_prev_mode
  65 0080 50000000 		.word	calibration_prev_state
  66 0084 00000000 		.word	.LC0
  68              		.section	.rodata.str1.4
  69              		.align	2
  70              	.LC1:
  71 002c 53746172 		.ascii	"Starting calibration.\000"
  71      74696E67 
  71      2063616C 
  71      69627261 
  71      74696F6E 
  72 0042 0000     		.align	2
  73              	.LC2:
  74 0044 43616E27 		.ascii	"Can't calibrate during flight!!!\000"
  74      74206361 
  74      6C696272 
  74      61746520 
  74      64757269 
  75 0065 000000   		.text
  76              		.align	2
  77              		.global	calibration_enter
  79              	calibration_enter:
  80              		@ Function supports interworking.
  81              		@ args = 0, pretend = 0, frame = 304
  82              		@ frame_needed = 0, uses_anonymous_args = 0
  83 0088 F04F2DE9 		stmfd	sp!, {r4, r5, r6, r7, r8, r9, sl, fp, lr}
  84 008c 13DE4DE2 		sub	sp, sp, #304
  85 0090 FEFFFFEB 		bl	sys_state_is_flying
  86 0094 000050E3 		cmp	r0, #0
  87 0098 00008DE5 		str	r0, [sp, #0]
  88 009c FB00001A 		bne	.L20
  89 00a0 FEFFFFEB 		bl	sys_get_state
  90 00a4 F4339FE5 		ldr	r3, .L40
  91 00a8 0000C3E5 		strb	r0, [r3, #0]
  92 00ac FEFFFFEB 		bl	sys_get_mode
  93 00b0 EC339FE5 		ldr	r3, .L40+4
  94 00b4 0000C3E5 		strb	r0, [r3, #0]
  95 00b8 0100A0E3 		mov	r0, #1
  96 00bc FEFFFFEB 		bl	sys_set_mode
  97 00c0 0200A0E3 		mov	r0, #2
  98 00c4 FEFFFFEB 		bl	sys_set_state
  99 00c8 D8B39FE5 		ldr	fp, .L40+8
 100 00cc D8039FE5 		ldr	r0, .L40+12
 101 00d0 FEFFFFEB 		bl	debug_message_buffer
 102 00d4 1A2EA0E3 		mov	r2, #416
 103 00d8 B2609BE1 		ldrh	r6, [fp, r2]
 104 00dc 1A3EA0E3 		mov	r3, #416
 105 00e0 5021DBE5 		ldrb	r2, [fp, #336]	@ zero_extendqisi2
 106 00e4 023083E2 		add	r3, r3, #2
 107 00e8 B3509BE1 		ldrh	r5, [fp, r3]
 108 00ec 04208DE5 		str	r2, [sp, #4]
 109 00f0 5431DBE5 		ldrb	r3, [fp, #340]	@ zero_extendqisi2
 110 00f4 5C21DBE5 		ldrb	r2, [fp, #348]	@ zero_extendqisi2
 111 00f8 08308DE5 		str	r3, [sp, #8]
 112 00fc 0C208DE5 		str	r2, [sp, #12]
 113 0100 6441DBE5 		ldrb	r4, [fp, #356]	@ zero_extendqisi2
 114 0104 FEFFFFEB 		bl	communication_get_uart_drop_rate
 115 0108 A0139FE5 		ldr	r1, .L40+16
 116 010c A0239FE5 		ldr	r2, .L40+20
 117 0110 9C339FE5 		ldr	r3, .L40+20
 118 0114 0EA0D1E5 		ldrb	sl, [r1, #14]	@ zero_extendqisi2
 119 0118 0120D2E5 		ldrb	r2, [r2, #1]	@ zero_extendqisi2
 120 011c 0030D3E5 		ldrb	r3, [r3, #0]	@ zero_extendqisi2
 121 0120 10208DE5 		str	r2, [sp, #16]
 122 0124 01208AE2 		add	r2, sl, #1
 123 0128 14308DE5 		str	r3, [sp, #20]
 124 012c 0E20C1E5 		strb	r2, [r1, #14]
 125 0130 2230A0E3 		mov	r3, #34
 126 0134 2C30CDE5 		strb	r3, [sp, #44]
 127 0138 04309DE5 		ldr	r3, [sp, #4]
 128 013c 2D30CDE5 		strb	r3, [sp, #45]
 129 0140 08208DE2 		add	r2, sp, #8
 130 0144 0C0092E8 		ldmia	r2, {r2, r3}	@ phole ldm
 131 0148 2F30CDE5 		strb	r3, [sp, #47]
 132 014c 0B30A0E3 		mov	r3, #11
 133 0150 0558A0E1 		mov	r5, r5, asl #16
 134 0154 0668A0E1 		mov	r6, r6, asl #16
 135 0158 0448A0E1 		mov	r4, r4, asl #16
 136 015c 0008A0E1 		mov	r0, r0, asl #16
 137 0160 2E20CDE5 		strb	r2, [sp, #46]
 138 0164 2830CDE5 		strb	r3, [sp, #40]
 139 0168 14209DE5 		ldr	r2, [sp, #20]
 140 016c 10309DE5 		ldr	r3, [sp, #16]
 141 0170 25CCA0E1 		mov	ip, r5, lsr #24
 142 0174 26ECA0E1 		mov	lr, r6, lsr #24
 143 0178 247CA0E1 		mov	r7, r4, lsr #24
 144 017c 208CA0E1 		mov	r8, r0, lsr #24
 145 0180 2558A0E1 		mov	r5, r5, lsr #16
 146 0184 2008A0E1 		mov	r0, r0, lsr #16
 147 0188 2668A0E1 		mov	r6, r6, lsr #16
 148 018c 2448A0E1 		mov	r4, r4, lsr #16
 149 0190 30C0CDE5 		strb	ip, [sp, #48]
 150 0194 3700CDE5 		strb	r0, [sp, #55]
 151 0198 01C8A0E3 		mov	ip, #65536
 152 019c 3150CDE5 		strb	r5, [sp, #49]
 153 01a0 32E0CDE5 		strb	lr, [sp, #50]
 154 01a4 3360CDE5 		strb	r6, [sp, #51]
 155 01a8 3470CDE5 		strb	r7, [sp, #52]
 156 01ac 3540CDE5 		strb	r4, [sp, #53]
 157 01b0 3680CDE5 		strb	r8, [sp, #54]
 158 01b4 2A20CDE5 		strb	r2, [sp, #42]
 159 01b8 2B30CDE5 		strb	r3, [sp, #43]
 160 01bc 29A0CDE5 		strb	sl, [sp, #41]
 161 01c0 00009DE5 		ldr	r0, [sp, #0]
 162 01c4 01C04CE2 		sub	ip, ip, #1
 163 01c8 28908DE2 		add	r9, sp, #40
 164              	.L22:
 165 01cc 0930D0E7 		ldrb	r3, [r0, r9]	@ zero_extendqisi2
 166 01d0 0C3023E0 		eor	r3, r3, ip
 167 01d4 FF3003E2 		and	r3, r3, #255
 168 01d8 033223E0 		eor	r3, r3, r3, asl #4
 169 01dc FF3003E2 		and	r3, r3, #255
 170 01e0 0324A0E1 		mov	r2, r3, asl #8
 171 01e4 2C2482E1 		orr	r2, r2, ip, lsr #8
 172 01e8 232222E0 		eor	r2, r2, r3, lsr #4
 173 01ec 832122E0 		eor	r2, r2, r3, asl #3
 174 01f0 010080E2 		add	r0, r0, #1
 175 01f4 0228A0E1 		mov	r2, r2, asl #16
 176 01f8 100050E3 		cmp	r0, #16
 177 01fc 22C8A0E1 		mov	ip, r2, lsr #16
 178 0200 F1FFFF1A 		bne	.L22
 179 0204 2C34A0E1 		mov	r3, ip, lsr #8
 180 0208 100040E2 		sub	r0, r0, #16
 181 020c 5510A0E3 		mov	r1, #85
 182 0210 2D31CDE5 		strb	r3, [sp, #301]
 183 0214 2CC1CDE5 		strb	ip, [sp, #300]
 184 0218 FEFFFFEB 		bl	comm_send_ch
 185 021c 0000A0E3 		mov	r0, #0
 186 0220 2810DDE5 		ldrb	r1, [sp, #40]	@ zero_extendqisi2
 187 0224 FEFFFFEB 		bl	comm_send_ch
 188 0228 0000A0E3 		mov	r0, #0
 189 022c 2910DDE5 		ldrb	r1, [sp, #41]	@ zero_extendqisi2
 190 0230 FEFFFFEB 		bl	comm_send_ch
 191 0234 0000A0E3 		mov	r0, #0
 192 0238 2A10DDE5 		ldrb	r1, [sp, #42]	@ zero_extendqisi2
 193 023c FEFFFFEB 		bl	comm_send_ch
 194 0240 0000A0E3 		mov	r0, #0
 195 0244 2B10DDE5 		ldrb	r1, [sp, #43]	@ zero_extendqisi2
 196 0248 FEFFFFEB 		bl	comm_send_ch
 197 024c 0000A0E3 		mov	r0, #0
 198 0250 2C10DDE5 		ldrb	r1, [sp, #44]	@ zero_extendqisi2
 199 0254 FEFFFFEB 		bl	comm_send_ch
 200 0258 2830DDE5 		ldrb	r3, [sp, #40]	@ zero_extendqisi2
 201 025c 000053E3 		cmp	r3, #0
 202 0260 0B00000A 		beq	.L24
 203 0264 0040A0E3 		mov	r4, #0
 204              	.L26:
 205 0268 132E8DE2 		add	r2, sp, #304
 206 026c 043082E0 		add	r3, r2, r4
 207 0270 031153E5 		ldrb	r1, [r3, #-259]	@ zero_extendqisi2
 208 0274 0000A0E3 		mov	r0, #0
 209 0278 FEFFFFEB 		bl	comm_send_ch
 210 027c 013084E2 		add	r3, r4, #1
 211 0280 0338A0E1 		mov	r3, r3, asl #16
 212 0284 2820DDE5 		ldrb	r2, [sp, #40]	@ zero_extendqisi2
 213 0288 2348A0E1 		mov	r4, r3, lsr #16
 214 028c 040052E1 		cmp	r2, r4
 215 0290 F4FFFF8A 		bhi	.L26
 216              	.L24:
 217 0294 0000A0E3 		mov	r0, #0
 218 0298 2C11DDE5 		ldrb	r1, [sp, #300]	@ zero_extendqisi2
 219 029c FEFFFFEB 		bl	comm_send_ch
 220 02a0 2D11DDE5 		ldrb	r1, [sp, #301]	@ zero_extendqisi2
 221 02a4 0000A0E3 		mov	r0, #0
 222 02a8 FEFFFFEB 		bl	comm_send_ch
 223 02ac 1A3EA0E3 		mov	r3, #416
 224 02b0 023083E2 		add	r3, r3, #2
 225 02b4 1A2EA0E3 		mov	r2, #416
 226 02b8 B3409BE1 		ldrh	r4, [fp, r3]
 227 02bc B2509BE1 		ldrh	r5, [fp, r2]
 228 02c0 5031DBE5 		ldrb	r3, [fp, #336]	@ zero_extendqisi2
 229 02c4 5421DBE5 		ldrb	r2, [fp, #340]	@ zero_extendqisi2
 230 02c8 6461DBE5 		ldrb	r6, [fp, #356]	@ zero_extendqisi2
 231 02cc 24308DE5 		str	r3, [sp, #36]
 232 02d0 20208DE5 		str	r2, [sp, #32]
 233 02d4 5CB1DBE5 		ldrb	fp, [fp, #348]	@ zero_extendqisi2
 234 02d8 FEFFFFEB 		bl	communication_get_uart_drop_rate
 235 02dc D4119FE5 		ldr	r1, .L40+24
 236 02e0 CC219FE5 		ldr	r2, .L40+20
 237 02e4 C8319FE5 		ldr	r3, .L40+20
 238 02e8 0EA0D1E5 		ldrb	sl, [r1, #14]	@ zero_extendqisi2
 239 02ec 0020D2E5 		ldrb	r2, [r2, #0]	@ zero_extendqisi2
 240 02f0 0130D3E5 		ldrb	r3, [r3, #1]	@ zero_extendqisi2
 241 02f4 1C208DE5 		str	r2, [sp, #28]
 242 02f8 01208AE2 		add	r2, sl, #1
 243 02fc 18308DE5 		str	r3, [sp, #24]
 244 0300 0E20C1E5 		strb	r2, [r1, #14]
 245 0304 2230A0E3 		mov	r3, #34
 246 0308 2C30CDE5 		strb	r3, [sp, #44]
 247 030c 20208DE2 		add	r2, sp, #32
 248 0310 0C0092E8 		ldmia	r2, {r2, r3}	@ phole ldm
 249 0314 2D30CDE5 		strb	r3, [sp, #45]
 250 0318 0B30A0E3 		mov	r3, #11
 251 031c 0448A0E1 		mov	r4, r4, asl #16
 252 0320 0558A0E1 		mov	r5, r5, asl #16
 253 0324 0668A0E1 		mov	r6, r6, asl #16
 254 0328 0008A0E1 		mov	r0, r0, asl #16
 255 032c 2E20CDE5 		strb	r2, [sp, #46]
 256 0330 2830CDE5 		strb	r3, [sp, #40]
 257 0334 18208DE2 		add	r2, sp, #24
 258 0338 0C0092E8 		ldmia	r2, {r2, r3}	@ phole ldm
 259 033c 24CCA0E1 		mov	ip, r4, lsr #24
 260 0340 25ECA0E1 		mov	lr, r5, lsr #24
 261 0344 267CA0E1 		mov	r7, r6, lsr #24
 262 0348 208CA0E1 		mov	r8, r0, lsr #24
 263 034c 2448A0E1 		mov	r4, r4, lsr #16
 264 0350 2558A0E1 		mov	r5, r5, lsr #16
 265 0354 2668A0E1 		mov	r6, r6, lsr #16
 266 0358 2008A0E1 		mov	r0, r0, lsr #16
 267 035c 30C0CDE5 		strb	ip, [sp, #48]
 268 0360 2FB0CDE5 		strb	fp, [sp, #47]
 269 0364 01C8A0E3 		mov	ip, #65536
 270 0368 3140CDE5 		strb	r4, [sp, #49]
 271 036c 32E0CDE5 		strb	lr, [sp, #50]
 272 0370 3350CDE5 		strb	r5, [sp, #51]
 273 0374 3470CDE5 		strb	r7, [sp, #52]
 274 0378 3560CDE5 		strb	r6, [sp, #53]
 275 037c 3680CDE5 		strb	r8, [sp, #54]
 276 0380 3700CDE5 		strb	r0, [sp, #55]
 277 0384 2A30CDE5 		strb	r3, [sp, #42]
 278 0388 2B20CDE5 		strb	r2, [sp, #43]
 279 038c 29A0CDE5 		strb	sl, [sp, #41]
 280 0390 01C04CE2 		sub	ip, ip, #1
 281 0394 0010A0E3 		mov	r1, #0
 282              	.L27:
 283 0398 0930D1E7 		ldrb	r3, [r1, r9]	@ zero_extendqisi2
 284 039c 0C3023E0 		eor	r3, r3, ip
 285 03a0 FF3003E2 		and	r3, r3, #255
 286 03a4 033223E0 		eor	r3, r3, r3, asl #4
 287 03a8 FF3003E2 		and	r3, r3, #255
 288 03ac 0324A0E1 		mov	r2, r3, asl #8
 289 03b0 2C2482E1 		orr	r2, r2, ip, lsr #8
 290 03b4 232222E0 		eor	r2, r2, r3, lsr #4
 291 03b8 832122E0 		eor	r2, r2, r3, asl #3
 292 03bc 011081E2 		add	r1, r1, #1
 293 03c0 0228A0E1 		mov	r2, r2, asl #16
 294 03c4 100051E3 		cmp	r1, #16
 295 03c8 22C8A0E1 		mov	ip, r2, lsr #16
 296 03cc F1FFFF1A 		bne	.L27
 297 03d0 2C34A0E1 		mov	r3, ip, lsr #8
 298 03d4 0100A0E3 		mov	r0, #1
 299 03d8 451081E2 		add	r1, r1, #69
 300 03dc 2D31CDE5 		strb	r3, [sp, #301]
 301 03e0 2CC1CDE5 		strb	ip, [sp, #300]
 302 03e4 FEFFFFEB 		bl	comm_send_ch
 303 03e8 0100A0E3 		mov	r0, #1
 304 03ec 2810DDE5 		ldrb	r1, [sp, #40]	@ zero_extendqisi2
 305 03f0 FEFFFFEB 		bl	comm_send_ch
 306 03f4 0100A0E3 		mov	r0, #1
 307 03f8 2910DDE5 		ldrb	r1, [sp, #41]	@ zero_extendqisi2
 308 03fc FEFFFFEB 		bl	comm_send_ch
 309 0400 0100A0E3 		mov	r0, #1
 310 0404 2A10DDE5 		ldrb	r1, [sp, #42]	@ zero_extendqisi2
 311 0408 FEFFFFEB 		bl	comm_send_ch
 312 040c 0100A0E3 		mov	r0, #1
 313 0410 2B10DDE5 		ldrb	r1, [sp, #43]	@ zero_extendqisi2
 314 0414 FEFFFFEB 		bl	comm_send_ch
 315 0418 0100A0E3 		mov	r0, #1
 316 041c 2C10DDE5 		ldrb	r1, [sp, #44]	@ zero_extendqisi2
 317 0420 FEFFFFEB 		bl	comm_send_ch
 318 0424 2830DDE5 		ldrb	r3, [sp, #40]	@ zero_extendqisi2
 319 0428 000053E3 		cmp	r3, #0
 320 042c 0B00000A 		beq	.L29
 321 0430 0040A0E3 		mov	r4, #0
 322              	.L31:
 323 0434 132E8DE2 		add	r2, sp, #304
 324 0438 043082E0 		add	r3, r2, r4
 325 043c 031153E5 		ldrb	r1, [r3, #-259]	@ zero_extendqisi2
 326 0440 0100A0E3 		mov	r0, #1
 327 0444 FEFFFFEB 		bl	comm_send_ch
 328 0448 013084E2 		add	r3, r4, #1
 329 044c 0338A0E1 		mov	r3, r3, asl #16
 330 0450 2820DDE5 		ldrb	r2, [sp, #40]	@ zero_extendqisi2
 331 0454 2348A0E1 		mov	r4, r3, lsr #16
 332 0458 040052E1 		cmp	r2, r4
 333 045c F4FFFF8A 		bhi	.L31
 334              	.L29:
 335 0460 0100A0E3 		mov	r0, #1
 336 0464 2C11DDE5 		ldrb	r1, [sp, #300]	@ zero_extendqisi2
 337 0468 FEFFFFEB 		bl	comm_send_ch
 338 046c 0100A0E3 		mov	r0, #1
 339 0470 2D11DDE5 		ldrb	r1, [sp, #301]	@ zero_extendqisi2
 340 0474 FEFFFFEB 		bl	comm_send_ch
 341 0478 FEFFFFEB 		bl	debug_message_send_one
 342 047c FEFFFFEB 		bl	debug_message_send_one
 343 0480 0100A0E3 		mov	r0, #1
 344              	.L32:
 345 0484 13DE8DE2 		add	sp, sp, #304
 346 0488 F04FBDE8 		ldmfd	sp!, {r4, r5, r6, r7, r8, r9, sl, fp, lr}
 347 048c 1EFF2FE1 		bx	lr
 348              	.L20:
 349 0490 24009FE5 		ldr	r0, .L40+28
 350 0494 FEFFFFEB 		bl	debug_message_buffer
 351 0498 0000A0E3 		mov	r0, #0
 352 049c F8FFFFEA 		b	.L32
 353              	.L41:
 354              		.align	2
 355              	.L40:
 356 04a0 50000000 		.word	calibration_prev_state
 357 04a4 51000000 		.word	calibration_prev_mode
 358 04a8 00000000 		.word	global_data
 359 04ac 2C000000 		.word	.LC1
 360 04b0 00000000 		.word	m_mavlink_status.2040
 361 04b4 00000000 		.word	mavlink_system
 362 04b8 14000000 		.word	m_mavlink_status.2040+20
 363 04bc 44000000 		.word	.LC2
 365              		.global	__floatsisf
 366              		.global	__addsf3
 367              		.align	2
 368              		.global	start_gyro_calibration
 370              	start_gyro_calibration:
 371              		@ Function supports interworking.
 372              		@ args = 0, pretend = 0, frame = 0
 373              		@ frame_needed = 0, uses_anonymous_args = 0
 374 04c0 F0412DE9 		stmfd	sp!, {r4, r5, r6, r7, r8, lr}
 375 04c4 FEFFFFEB 		bl	calibration_enter
 376 04c8 000050E3 		cmp	r0, #0
 377 04cc 3900000A 		beq	.L59
 378 04d0 0070A0E3 		mov	r7, #0
 379 04d4 0780A0E1 		mov	r8, r7
 380 04d8 0760A0E1 		mov	r6, r7
 381 04dc 0750A0E1 		mov	r5, r7
 382              	.L45:
 383 04e0 0000A0E3 		mov	r0, #0
 384 04e4 0110A0E3 		mov	r1, #1
 385 04e8 FEFFFFEB 		bl	ads8341_read
 386              	.L46:
 387 04ec FEFFFFEB 		bl	spi_running
 388 04f0 004050E2 		subs	r4, r0, #0
 389 04f4 FCFFFF1A 		bne	.L46
 390 04f8 0110A0E3 		mov	r1, #1
 391 04fc FEFFFFEB 		bl	ads8341_get_value
 392 0500 0410A0E1 		mov	r1, r4
 393 0504 006086E0 		add	r6, r6, r0
 394 0508 0400A0E1 		mov	r0, r4
 395 050c FEFFFFEB 		bl	ads8341_read
 396              	.L48:
 397 0510 FEFFFFEB 		bl	spi_running
 398 0514 004050E2 		subs	r4, r0, #0
 399 0518 FCFFFF1A 		bne	.L48
 400 051c 0410A0E1 		mov	r1, r4
 401 0520 FEFFFFEB 		bl	ads8341_get_value
 402 0524 0210A0E3 		mov	r1, #2
 403 0528 007087E0 		add	r7, r7, r0
 404 052c 0400A0E1 		mov	r0, r4
 405 0530 FEFFFFEB 		bl	ads8341_read
 406              	.L50:
 407 0534 FEFFFFEB 		bl	spi_running
 408 0538 000050E3 		cmp	r0, #0
 409 053c FCFFFF1A 		bne	.L50
 410 0540 0210A0E3 		mov	r1, #2
 411 0544 FEFFFFEB 		bl	ads8341_get_value
 412 0548 273CA0E3 		mov	r3, #9984
 413 054c 015085E2 		add	r5, r5, #1
 414 0550 103083E2 		add	r3, r3, #16
 415 0554 030055E1 		cmp	r5, r3
 416 0558 008088E0 		add	r8, r8, r0
 417 055c DFFFFF1A 		bne	.L45
 418 0560 58309FE5 		ldr	r3, .L68
 419 0564 931680E0 		umull	r1, r0, r3, r6
 420 0568 A006A0E1 		mov	r0, r0, lsr #13
 421 056c FEFFFFEB 		bl	__floatsisf
 422 0570 48309FE5 		ldr	r3, .L68
 423 0574 0020A0E1 		mov	r2, r0
 424 0578 931780E0 		umull	r1, r0, r3, r7
 425 057c 40309FE5 		ldr	r3, .L68+4
 426 0580 A006A0E1 		mov	r0, r0, lsr #13
 427 0584 2C2383E5 		str	r2, [r3, #812]	@ float
 428 0588 FEFFFFEB 		bl	__floatsisf
 429 058c 2C309FE5 		ldr	r3, .L68
 430 0590 0020A0E1 		mov	r2, r0
 431 0594 931880E0 		umull	r1, r0, r3, r8
 432 0598 24309FE5 		ldr	r3, .L68+4
 433 059c A006A0E1 		mov	r0, r0, lsr #13
 434 05a0 302383E5 		str	r2, [r3, #816]	@ float
 435 05a4 FEFFFFEB 		bl	__floatsisf
 436 05a8 14309FE5 		ldr	r3, .L68+4
 437 05ac 340383E5 		str	r0, [r3, #820]	@ float
 438 05b0 F041BDE8 		ldmfd	sp!, {r4, r5, r6, r7, r8, lr}
 439 05b4 FEFFFFEA 		b	calibration_exit
 440              	.L59:
 441 05b8 F041BDE8 		ldmfd	sp!, {r4, r5, r6, r7, r8, lr}
 442 05bc 1EFF2FE1 		bx	lr
 443              	.L69:
 444              		.align	2
 445              	.L68:
 446 05c0 5917B7D1 		.word	-776530087
 447 05c4 00000000 		.word	global_data
 449              		.align	2
 450              		.global	start_pressure_calibration
 452              	start_pressure_calibration:
 453              		@ Function supports interworking.
 454              		@ args = 0, pretend = 0, frame = 0
 455              		@ frame_needed = 0, uses_anonymous_args = 0
 456 05c8 04E02DE5 		str	lr, [sp, #-4]!
 457 05cc FEFFFFEB 		bl	calibration_enter
 458 05d0 000050E3 		cmp	r0, #0
 459 05d4 0100001A 		bne	.L74
 460 05d8 04E09DE4 		ldr	lr, [sp], #4
 461 05dc 1EFF2FE1 		bx	lr
 462              	.L74:
 463 05e0 04E09DE4 		ldr	lr, [sp], #4
 464 05e4 FEFFFFEA 		b	calibration_exit
 466              		.global	__fixunssfsi
 467              		.align	2
 468              		.global	start_rc_calibration
 470              	start_rc_calibration:
 471              		@ Function supports interworking.
 472              		@ args = 0, pretend = 0, frame = 4
 473              		@ frame_needed = 1, uses_anonymous_args = 0
 474 05e8 0DC0A0E1 		mov	ip, sp
 475 05ec F0DF2DE9 		stmfd	sp!, {r4, r5, r6, r7, r8, r9, sl, fp, ip, lr, pc}
 476 05f0 04B04CE2 		sub	fp, ip, #4
 477 05f4 04D04DE2 		sub	sp, sp, #4
 478 05f8 FEFFFFEB 		bl	calibration_enter
 479 05fc 000050E3 		cmp	r0, #0
 480 0600 0200001A 		bne	.L95
 481              	.L84:
 482 0604 28D04BE2 		sub	sp, fp, #40
 483 0608 F06F9DE8 		ldmfd	sp, {r4, r5, r6, r7, r8, r9, sl, fp, sp, lr}
 484 060c 1EFF2FE1 		bx	lr
 485              	.L95:
 486 0610 2CD00BE5 		str	sp, [fp, #-44]
 487 0614 28D04DE2 		sub	sp, sp, #40
 488 0618 2D11A0E1 		mov	r1, sp, lsr #2
 489 061c 28D04DE2 		sub	sp, sp, #40
 490 0620 2D21A0E1 		mov	r2, sp, lsr #2
 491 0624 28D04DE2 		sub	sp, sp, #40
 492 0628 2D31A0E1 		mov	r3, sp, lsr #2
 493 062c 0050A0E3 		mov	r5, #0
 494 0630 0181A0E1 		mov	r8, r1, asl #2
 495 0634 0261A0E1 		mov	r6, r2, asl #2
 496 0638 0371A0E1 		mov	r7, r3, asl #2
 497 063c 0540A0E1 		mov	r4, r5
 498 0640 7D9EA0E3 		mov	r9, #2000
 499 0644 FAAFA0E3 		mov	sl, #1000
 500              	.L78:
 501 0648 015085E2 		add	r5, r5, #1
 502 064c 0500A0E1 		mov	r0, r5
 503 0650 FEFFFFEB 		bl	ppm_get_channel
 504 0654 090055E3 		cmp	r5, #9
 505 0658 080084E7 		str	r0, [r4, r8]
 506 065c 069084E7 		str	r9, [r4, r6]
 507 0660 07A084E7 		str	sl, [r4, r7]
 508 0664 044084E2 		add	r4, r4, #4
 509 0668 F6FFFF1A 		bne	.L78
 510 066c 6C709FE5 		ldr	r7, .L96
 511              	.L94:
 512 0670 0050A0E3 		mov	r5, #0
 513 0674 0540A0E1 		mov	r4, r5
 514              	.L80:
 515 0678 014084E2 		add	r4, r4, #1
 516 067c 0400A0E1 		mov	r0, r4
 517 0680 FEFFFFEB 		bl	ppm_get_channel
 518 0684 063095E7 		ldr	r3, [r5, r6]
 519 0688 030050E1 		cmp	r0, r3
 520 068c 06008597 		strls	r0, [r5, r6]
 521 0690 06308587 		strhi	r3, [r5, r6]
 522 0694 090054E3 		cmp	r4, #9
 523 0698 045085E2 		add	r5, r5, #4
 524 069c F5FFFF1A 		bne	.L80
 525 06a0 BC0397E5 		ldr	r0, [r7, #956]	@ float
 526 06a4 FEFFFFEB 		bl	__fixunssfsi
 527 06a8 FEFFFFEB 		bl	ppm_get_channel
 528 06ac 4B0E50E3 		cmp	r0, #1200
 529 06b0 EEFFFFAA 		bge	.L94
 530 06b4 24309FE5 		ldr	r3, .L96
 531 06b8 C00393E5 		ldr	r0, [r3, #960]	@ float
 532 06bc FEFFFFEB 		bl	__fixunssfsi
 533 06c0 FEFFFFEB 		bl	ppm_get_channel
 534 06c4 073CA0E3 		mov	r3, #1792
 535 06c8 083083E2 		add	r3, r3, #8
 536 06cc 030050E1 		cmp	r0, r3
 537 06d0 E6FFFFDA 		ble	.L94
 538 06d4 FEFFFFEB 		bl	calibration_exit
 539 06d8 2CD01BE5 		ldr	sp, [fp, #-44]
 540 06dc C8FFFFEA 		b	.L84
 541              	.L97:
 542              		.align	2
 543              	.L96:
 544 06e0 00000000 		.word	global_data
 546              		.bss
 547              		.align	2
 548              	m_mavlink_status.2040:
 549 0000 00000000 		.space	80
 549      00000000 
 549      00000000 
 549      00000000 
 549      00000000 
 550              	calibration_prev_state:
 551 0050 00       		.space	1
 552              	calibration_prev_mode:
 553 0051 00       		.space	1
 554              		.comm	mavlink_system,8,4
 555              		.comm	global_param_id,4,4
 556              		.comm	state_fly_id,4,4
 557              		.comm	global_data,2700,4
 558 0052 0000     		.ident	"GCC: (GNU) 4.1.1 (WinARM)"
DEFINED SYMBOLS
                            *ABS*:00000000 calibration.c
C:\Users\Srdjan\AppData\Local\Temp/ccglbaaa.s:6      .text:00000000 start_mag_calibration
C:\Users\Srdjan\AppData\Local\Temp/ccglbaaa.s:12     .text:00000000 $a
C:\Users\Srdjan\AppData\Local\Temp/ccglbaaa.s:22     .text:00000004 calibration_exit
C:\Users\Srdjan\AppData\Local\Temp/ccglbaaa.s:64     .text:0000007c $d
C:\Users\Srdjan\AppData\Local\Temp/ccglbaaa.s:552    .bss:00000051 calibration_prev_mode
C:\Users\Srdjan\AppData\Local\Temp/ccglbaaa.s:550    .bss:00000050 calibration_prev_state
C:\Users\Srdjan\AppData\Local\Temp/ccglbaaa.s:79     .text:00000088 calibration_enter
C:\Users\Srdjan\AppData\Local\Temp/ccglbaaa.s:83     .text:00000088 $a
C:\Users\Srdjan\AppData\Local\Temp/ccglbaaa.s:356    .text:000004a0 $d
                            *COM*:00000a8c global_data
C:\Users\Srdjan\AppData\Local\Temp/ccglbaaa.s:548    .bss:00000000 m_mavlink_status.2040
                            *COM*:00000008 mavlink_system
C:\Users\Srdjan\AppData\Local\Temp/ccglbaaa.s:370    .text:000004c0 start_gyro_calibration
C:\Users\Srdjan\AppData\Local\Temp/ccglbaaa.s:374    .text:000004c0 $a
C:\Users\Srdjan\AppData\Local\Temp/ccglbaaa.s:446    .text:000005c0 $d
C:\Users\Srdjan\AppData\Local\Temp/ccglbaaa.s:452    .text:000005c8 start_pressure_calibration
C:\Users\Srdjan\AppData\Local\Temp/ccglbaaa.s:456    .text:000005c8 $a
C:\Users\Srdjan\AppData\Local\Temp/ccglbaaa.s:470    .text:000005e8 start_rc_calibration
C:\Users\Srdjan\AppData\Local\Temp/ccglbaaa.s:544    .text:000006e0 $d
                            *COM*:00000004 global_param_id
                            *COM*:00000004 state_fly_id

UNDEFINED SYMBOLS
sys_set_mode
sys_set_state
debug_message_send_one
uart0_char_available
uart0_get_char
uart1_char_available
uart1_get_char
debug_message_buffer
sys_state_is_flying
sys_get_state
sys_get_mode
communication_get_uart_drop_rate
comm_send_ch
__floatsisf
__addsf3
ads8341_read
spi_running
ads8341_get_value
__fixunssfsi
ppm_get_channel
