   1              		.file	"common_mainloop_functions.c"
   2              		.global	__fixunssfsi
   3              		.text
   4              		.align	2
   5              		.global	sync_state_parameters
   7              	sync_state_parameters:
   8              		@ Function supports interworking.
   9              		@ args = 0, pretend = 0, frame = 0
  10              		@ frame_needed = 0, uses_anonymous_args = 0
  11 0000 10402DE9 		stmfd	sp!, {r4, lr}
  12 0004 24409FE5 		ldr	r4, .L5
  13 0008 B80394E5 		ldr	r0, [r4, #952]	@ float
  14 000c FEFFFFEB 		bl	__fixunssfsi
  15 0010 FF0000E2 		and	r0, r0, #255
  16 0014 0230A0E3 		mov	r3, #2
  17 0018 140050E3 		cmp	r0, #20
  18 001c 5C01C4E5 		strb	r0, [r4, #348]
  19 0020 5E31C405 		streqb	r3, [r4, #350]
  20 0024 5D31C405 		streqb	r3, [r4, #349]
  21 0028 1040BDE8 		ldmfd	sp!, {r4, lr}
  22 002c 1EFF2FE1 		bx	lr
  23              	.L6:
  24              		.align	2
  25              	.L5:
  26 0030 00000000 		.word	global_data
  28              		.align	2
  29              		.global	beep_on_low_voltage
  31              	beep_on_low_voltage:
  32              		@ Function supports interworking.
  33              		@ args = 0, pretend = 0, frame = 0
  34              		@ frame_needed = 0, uses_anonymous_args = 0
  35 0034 5C109FE5 		ldr	r1, .L15
  36 0038 632FA0E3 		mov	r2, #396
  37 003c B20091E1 		ldrh	r0, [r1, r2]
  38 0040 233CA0E3 		mov	r3, #8960
  39 0044 273083E2 		add	r3, r3, #39
  40 0048 04E02DE5 		str	lr, [sp, #-4]!
  41 004c 0EE2A0E3 		mov	lr, #-536870912
  42 0050 030050E1 		cmp	r0, r3
  43 0054 0AE98EE2 		add	lr, lr, #163840
  44 0058 1C309E85 		ldrhi	r3, [lr, #28]
  45 005c 0EC2A0E3 		mov	ip, #-536870912
  46 0060 01348383 		orrhi	r3, r3, #16777216
  47 0064 0AC98CE2 		add	ip, ip, #163840
  48 0068 1C308E85 		strhi	r3, [lr, #28]
  49 006c 0700008A 		bhi	.L13
  50 0070 10309CE5 		ldr	r3, [ip, #16]
  51 0074 010413E3 		tst	r3, #16777216
  52 0078 1C309C15 		ldrne	r3, [ip, #28]
  53 007c 14309C05 		ldreq	r3, [ip, #20]
  54 0080 01348313 		orrne	r3, r3, #16777216
  55 0084 01348303 		orreq	r3, r3, #16777216
  56 0088 1C308C15 		strne	r3, [ip, #28]
  57 008c 14308C05 		streq	r3, [ip, #20]
  58              	.L13:
  59 0090 04E09DE4 		ldr	lr, [sp], #4
  60 0094 1EFF2FE1 		bx	lr
  61              	.L16:
  62              		.align	2
  63              	.L15:
  64 0098 00000000 		.word	global_data
  66              		.align	2
  67              		.global	measure_peak_cpu_load
  69              	measure_peak_cpu_load:
  70              		@ Function supports interworking.
  71              		@ args = 8, pretend = 0, frame = 0
  72              		@ frame_needed = 0, uses_anonymous_args = 0
  73              		@ link register save eliminated.
  74 009c 0000A0E3 		mov	r0, #0
  75              		@ lr needed for prologue
  76 00a0 1EFF2FE1 		bx	lr
  78              		.align	2
  79              		.global	measure_avg_cpu_load
  81              	measure_avg_cpu_load:
  82              		@ Function supports interworking.
  83              		@ args = 8, pretend = 0, frame = 0
  84              		@ frame_needed = 0, uses_anonymous_args = 0
  85              		@ link register save eliminated.
  86 00a4 0000A0E3 		mov	r0, #0
  87              		@ lr needed for prologue
  88 00a8 1EFF2FE1 		bx	lr
  90              		.align	2
  91              		.global	us_run_init
  93              	us_run_init:
  94              		@ Function supports interworking.
  95              		@ args = 0, pretend = 0, frame = 0
  96              		@ frame_needed = 0, uses_anonymous_args = 0
  97              		@ link register save eliminated.
  98 00ac 14309FE5 		ldr	r3, .L27
  99              		@ lr needed for prologue
 100 00b0 0010A0E3 		mov	r1, #0
 101 00b4 382083E2 		add	r2, r3, #56
 102              	.L22:
 103 00b8 041083E4 		str	r1, [r3], #4
 104 00bc 020053E1 		cmp	r3, r2
 105 00c0 FCFFFF1A 		bne	.L22
 106 00c4 1EFF2FE1 		bx	lr
 107              	.L28:
 108              		.align	2
 109              	.L27:
 110 00c8 6C000000 		.word	next_exec_time
 112              		.align	2
 113              		.global	us_run_every
 115              	us_run_every:
 116              		@ Function supports interworking.
 117              		@ args = 0, pretend = 0, frame = 0
 118              		@ frame_needed = 0, uses_anonymous_args = 0
 119 00cc 04E02DE5 		str	lr, [sp, #-4]!
 120 00d0 2CE09FE5 		ldr	lr, .L35
 121 00d4 01319EE7 		ldr	r3, [lr, r1, asl #2]
 122 00d8 020053E1 		cmp	r3, r2
 123 00dc 03C062E0 		rsb	ip, r2, r3
 124 00e0 002082E0 		add	r2, r2, r0
 125 00e4 0200009A 		bls	.L30
 126 00e8 0C0050E1 		cmp	r0, ip
 127 00ec 0000A0E3 		mov	r0, #0
 128 00f0 0100002A 		bcs	.L33
 129              	.L30:
 130 00f4 01218EE7 		str	r2, [lr, r1, asl #2]
 131 00f8 0100A0E3 		mov	r0, #1
 132              	.L33:
 133 00fc 04E09DE4 		ldr	lr, [sp], #4
 134 0100 1EFF2FE1 		bx	lr
 135              	.L36:
 136              		.align	2
 137              	.L35:
 138 0104 6C000000 		.word	next_exec_time
 140              		.section	.rodata.str1.4,"aMS",%progbits,1
 141              		.align	2
 142              	.LC0:
 143 0000 43524954 		.ascii	"CRITICAL! POSITION LOST\000"
 143      4943414C 
 143      2120504F 
 143      53495449 
 143      4F4E204C 
 144              		.align	2
 145              	.LC1:
 146 0018 454D4552 		.ascii	"EMERGENCY! MAYDAY! MAYDAY! LANDING!\000"
 146      47454E43 
 146      5921204D 
 146      41594441 
 146      5921204D 
 147              		.text
 148              		.align	2
 149              		.global	update_system_statemachine
 151              	update_system_statemachine:
 152              		@ Function supports interworking.
 153              		@ args = 0, pretend = 0, frame = 0
 154              		@ frame_needed = 0, uses_anonymous_args = 0
 155 0108 F0402DE9 		stmfd	sp!, {r4, r5, r6, r7, lr}
 156 010c 94519FE5 		ldr	r5, .L60
 157 0110 4C3195E5 		ldr	r3, [r5, #332]
 158 0114 023043E2 		sub	r3, r3, #2
 159 0118 0120A0E1 		mov	r2, r1
 160 011c 0010A0E1 		mov	r1, r0
 161 0120 040053E3 		cmp	r3, #4
 162 0124 03F19F97 		ldrls	pc, [pc, r3, asl #2]
 163 0128 220000EA 		b	.L38
 164              		.p2align 2
 165              	.L42:
 166 012c D4010000 		.word	.L39
 167 0130 40010000 		.word	.L40
 168 0134 40010000 		.word	.L40
 169 0138 40010000 		.word	.L40
 170 013c A4010000 		.word	.L41
 171              	.L40:
 172 0140 3131D5E5 		ldrb	r3, [r5, #305]	@ zero_extendqisi2
 173 0144 000053E3 		cmp	r3, #0
 174 0148 58C19FE5 		ldr	ip, .L60
 175 014c 2800000A 		beq	.L44
 176 0150 58319CE5 		ldr	r3, [ip, #344]
 177 0154 050053E3 		cmp	r3, #5
 178 0158 01304302 		subeq	r3, r3, #1
 179 015c 58318C05 		streq	r3, [ip, #344]
 180 0160 0B00000A 		beq	.L48
 181              	.L46:
 182 0164 583195E5 		ldr	r3, [r5, #344]
 183 0168 050053E3 		cmp	r3, #5
 184 016c 34119FE5 		ldr	r1, .L60
 185 0170 3900000A 		beq	.L52
 186 0174 060053E3 		cmp	r3, #6
 187 0178 3D00000A 		beq	.L56
 188 017c 040053E3 		cmp	r3, #4
 189 0180 0030A013 		movne	r3, #0
 190 0184 64328115 		strne	r3, [r1, #612]	@ float
 191 0188 60328115 		strne	r3, [r1, #608]	@ float
 192 018c 68328115 		strne	r3, [r1, #616]	@ float
 193 0190 0300001A 		bne	.L41
 194              	.L48:
 195 0194 FE35A0E3 		mov	r3, #1065353216
 196 0198 643285E5 		str	r3, [r5, #612]	@ float
 197 019c 603285E5 		str	r3, [r5, #608]	@ float
 198 01a0 683285E5 		str	r3, [r5, #616]	@ float
 199              	.L41:
 200 01a4 FE35A0E3 		mov	r3, #1065353216
 201 01a8 5C3285E5 		str	r3, [r5, #604]	@ float
 202 01ac 6C3285E5 		str	r3, [r5, #620]	@ float
 203              	.L58:
 204 01b0 F040BDE8 		ldmfd	sp!, {r4, r5, r6, r7, lr}
 205 01b4 1EFF2FE1 		bx	lr
 206              	.L38:
 207 01b8 0030A0E3 		mov	r3, #0
 208 01bc 5C3285E5 		str	r3, [r5, #604]	@ float
 209 01c0 603285E5 		str	r3, [r5, #608]	@ float
 210 01c4 683285E5 		str	r3, [r5, #616]	@ float
 211 01c8 643285E5 		str	r3, [r5, #612]	@ float
 212 01cc 6C3285E5 		str	r3, [r5, #620]	@ float
 213 01d0 F6FFFFEA 		b	.L58
 214              	.L39:
 215 01d4 0030A0E3 		mov	r3, #0
 216 01d8 FE25A0E3 		mov	r2, #1065353216
 217 01dc 5C2285E5 		str	r2, [r5, #604]	@ float
 218 01e0 643285E5 		str	r3, [r5, #612]	@ float
 219 01e4 603285E5 		str	r3, [r5, #608]	@ float
 220 01e8 683285E5 		str	r3, [r5, #616]	@ float
 221 01ec 6C2285E5 		str	r2, [r5, #620]	@ float
 222 01f0 EEFFFFEA 		b	.L58
 223              	.L44:
 224 01f4 58319CE5 		ldr	r3, [ip, #344]
 225 01f8 040053E3 		cmp	r3, #4
 226 01fc 2200000A 		beq	.L59
 227 0200 050053E3 		cmp	r3, #5
 228 0204 D6FFFF1A 		bne	.L46
 229 0208 273D8CE2 		add	r3, ip, #2496
 230 020c 180093E8 		ldmia	r3, {r3-r4}
 231 0210 0160A0E1 		mov	r6, r1
 232 0214 0270A0E1 		mov	r7, r2
 233 0218 DC029CE5 		ldr	r0, [ip, #732]	@ float
 234 021c 036056E0 		subs	r6, r6, r3
 235 0220 0470C7E0 		sbc	r7, r7, r4
 236 0224 FEFFFFEB 		bl	__fixunssfsi
 237 0228 000057E3 		cmp	r7, #0
 238 022c 800080E0 		add	r0, r0, r0, asl #1
 239 0230 0010A0E3 		mov	r1, #0
 240 0234 0200008A 		bhi	.L54
 241 0238 0700001A 		bne	.L52
 242 023c 000056E1 		cmp	r6, r0
 243 0240 0500009A 		bls	.L52
 244              	.L54:
 245 0244 0630A0E3 		mov	r3, #6
 246 0248 5C009FE5 		ldr	r0, .L60+4
 247 024c 3231C5E5 		strb	r3, [r5, #306]
 248 0250 583185E5 		str	r3, [r5, #344]
 249 0254 FEFFFFEB 		bl	debug_message_buffer
 250 0258 C1FFFFEA 		b	.L46
 251              	.L52:
 252 025c FE25A0E3 		mov	r2, #1065353216
 253 0260 0030A0E3 		mov	r3, #0
 254 0264 642285E5 		str	r2, [r5, #612]	@ float
 255 0268 603285E5 		str	r3, [r5, #608]	@ float
 256 026c 682285E5 		str	r2, [r5, #616]	@ float
 257 0270 CBFFFFEA 		b	.L41
 258              	.L56:
 259 0274 FE25A0E3 		mov	r2, #1065353216
 260 0278 0030A0E3 		mov	r3, #0
 261 027c 642281E5 		str	r2, [r1, #612]	@ float
 262 0280 603281E5 		str	r3, [r1, #608]	@ float
 263 0284 682281E5 		str	r2, [r1, #616]	@ float
 264 0288 C5FFFFEA 		b	.L41
 265              	.L59:
 266 028c 013083E2 		add	r3, r3, #1
 267 0290 18009FE5 		ldr	r0, .L60+8
 268 0294 C0198CE5 		str	r1, [ip, #2496]
 269 0298 C4298CE5 		str	r2, [ip, #2500]
 270 029c 58318CE5 		str	r3, [ip, #344]
 271 02a0 FEFFFFEB 		bl	debug_message_buffer
 272 02a4 AEFFFFEA 		b	.L46
 273              	.L61:
 274              		.align	2
 275              	.L60:
 276 02a8 00000000 		.word	global_data
 277 02ac 18000000 		.word	.LC1
 278 02b0 00000000 		.word	.LC0
 280              		.global	__floatsisf
 281              		.global	__addsf3
 282              		.global	__divsf3
 283              		.global	__mulsf3
 284              		.global	__extendsfdf2
 285              		.global	__subdf3
 286              		.global	__truncdfsf2
 287              		.global	__muldf3
 288              		.global	__fixunsdfsi
 289              		.global	__ltsf2
 290              		.global	__gtsf2
 291              		.align	2
 292              		.global	adc_read
 294              	adc_read:
 295              		@ Function supports interworking.
 296              		@ args = 0, pretend = 0, frame = 0
 297              		@ frame_needed = 0, uses_anonymous_args = 0
 298 02b4 30402DE9 		stmfd	sp!, {r4, r5, lr}
 299 02b8 0300A0E3 		mov	r0, #3
 300 02bc FEFFFFEB 		bl	adc_get_value
 301 02c0 0048A0E1 		mov	r4, r0, asl #16
 302 02c4 4448A0E1 		mov	r4, r4, asr #16
 303 02c8 0400A0E1 		mov	r0, r4
 304 02cc FEFFFFEB 		bl	__floatsisf
 305 02d0 000054E3 		cmp	r4, #0
 306 02d4 660000BA 		blt	.L72
 307              	.L63:
 308 02d8 4314A0E3 		mov	r1, #1124073472
 309 02dc 9B1881E2 		add	r1, r1, #10158080
 310 02e0 FEFFFFEB 		bl	__divsf3
 311 02e4 B8119FE5 		ldr	r1, .L74+16
 312 02e8 0040A0E1 		mov	r4, r0
 313 02ec FEFFFFEB 		bl	__mulsf3
 314 02f0 0010A0E1 		mov	r1, r0
 315 02f4 0400A0E1 		mov	r0, r4
 316 02f8 FEFFFFEB 		bl	__mulsf3
 317 02fc 0010A0E1 		mov	r1, r0
 318 0300 0400A0E1 		mov	r0, r4
 319 0304 FEFFFFEB 		bl	__mulsf3
 320 0308 0010A0E1 		mov	r1, r0
 321 030c 0400A0E1 		mov	r0, r4
 322 0310 FEFFFFEB 		bl	__mulsf3
 323 0314 6718E0E3 		mvn	r1, #6750208
 324 0318 8D1D41E2 		sub	r1, r1, #9024
 325 031c 0050A0E1 		mov	r5, r0
 326 0320 511141E2 		sub	r1, r1, #1073741844
 327 0324 0400A0E1 		mov	r0, r4
 328 0328 FEFFFFEB 		bl	__mulsf3
 329 032c 0010A0E1 		mov	r1, r0
 330 0330 0400A0E1 		mov	r0, r4
 331 0334 FEFFFFEB 		bl	__mulsf3
 332 0338 0010A0E1 		mov	r1, r0
 333 033c 0400A0E1 		mov	r0, r4
 334 0340 FEFFFFEB 		bl	__mulsf3
 335 0344 0010A0E1 		mov	r1, r0
 336 0348 0500A0E1 		mov	r0, r5
 337 034c FEFFFFEB 		bl	__addsf3
 338 0350 50119FE5 		ldr	r1, .L74+20
 339 0354 0050A0E1 		mov	r5, r0
 340 0358 0400A0E1 		mov	r0, r4
 341 035c FEFFFFEB 		bl	__mulsf3
 342 0360 0010A0E1 		mov	r1, r0
 343 0364 0400A0E1 		mov	r0, r4
 344 0368 FEFFFFEB 		bl	__mulsf3
 345 036c 0010A0E1 		mov	r1, r0
 346 0370 0500A0E1 		mov	r0, r5
 347 0374 FEFFFFEB 		bl	__addsf3
 348 0378 9B18A0E3 		mov	r1, #10158080
 349 037c 171B81E2 		add	r1, r1, #23552
 350 0380 0050A0E1 		mov	r5, r0
 351 0384 AB1181E2 		add	r1, r1, #-1073741782
 352 0388 0400A0E1 		mov	r0, r4
 353 038c FEFFFFEB 		bl	__mulsf3
 354 0390 0010A0E1 		mov	r1, r0
 355 0394 0500A0E1 		mov	r0, r5
 356 0398 FEFFFFEB 		bl	__addsf3
 357 039c F519A0E3 		mov	r1, #4014080
 358 03a0 3B1C81E2 		add	r1, r1, #15104
 359 03a4 E11181E2 		add	r1, r1, #1073741880
 360 03a8 FEFFFFEB 		bl	__addsf3
 361 03ac FEFFFFEB 		bl	__extendsfdf2
 362 03b0 DC208FE2 		adr	r2, .L74
 363 03b4 0C0092E8 		ldmia	r2, {r2-r3}
 364 03b8 FEFFFFEB 		bl	__subdf3
 365 03bc FEFFFFEB 		bl	__truncdfsf2
 366 03c0 E4509FE5 		ldr	r5, .L74+24
 367 03c4 780985E5 		str	r0, [r5, #2424]	@ float
 368 03c8 0500A0E3 		mov	r0, #5
 369 03cc FEFFFFEB 		bl	adc_get_value
 370 03d0 0048A0E1 		mov	r4, r0, asl #16
 371 03d4 4448A0E1 		mov	r4, r4, asr #16
 372 03d8 0400A0E1 		mov	r0, r4
 373 03dc FEFFFFEB 		bl	__floatsisf
 374 03e0 000054E3 		cmp	r4, #0
 375 03e4 260000BA 		blt	.L73
 376              	.L64:
 377 03e8 FEFFFFEB 		bl	__extendsfdf2
 378 03ec A8208FE2 		adr	r2, .L74+8
 379 03f0 0C0092E8 		ldmia	r2, {r2-r3}
 380 03f4 FEFFFFEB 		bl	__muldf3
 381 03f8 FEFFFFEB 		bl	__fixunsdfsi
 382 03fc 633FA0E3 		mov	r3, #396
 383 0400 B30085E1 		strh	r0, [r5, r3]	@ movhi
 384 0404 741995E5 		ldr	r1, [r5, #2420]	@ float
 385 0408 A0009FE5 		ldr	r0, .L74+28
 386 040c FEFFFFEB 		bl	__mulsf3
 387 0410 781995E5 		ldr	r1, [r5, #2424]	@ float
 388 0414 0040A0E1 		mov	r4, r0
 389 0418 94009FE5 		ldr	r0, .L74+32
 390 041c FEFFFFEB 		bl	__mulsf3
 391 0420 0010A0E1 		mov	r1, r0
 392 0424 0400A0E1 		mov	r0, r4
 393 0428 FEFFFFEB 		bl	__addsf3
 394 042c 0040A0E1 		mov	r4, r0
 395 0430 FE15A0E3 		mov	r1, #1065353216
 396 0434 744985E5 		str	r4, [r5, #2420]	@ float
 397 0438 FEFFFFEB 		bl	__ltsf2
 398 043c 000050E3 		cmp	r0, #0
 399 0440 080000AA 		bge	.L65
 400 0444 0400A0E1 		mov	r0, r4
 401 0448 0010A0E3 		mov	r1, #0
 402 044c FEFFFFEB 		bl	__gtsf2
 403 0450 000050E3 		cmp	r0, #0
 404 0454 0130A0C3 		movgt	r3, #1
 405 0458 2E31C5C5 		strgtb	r3, [r5, #302]
 406 045c 010000DA 		ble	.L65
 407              	.L71:
 408 0460 3040BDE8 		ldmfd	sp!, {r4, r5, lr}
 409 0464 1EFF2FE1 		bx	lr
 410              	.L65:
 411 0468 0030A0E3 		mov	r3, #0
 412 046c 2E31C5E5 		strb	r3, [r5, #302]
 413 0470 FAFFFFEA 		b	.L71
 414              	.L72:
 415 0474 4714A0E3 		mov	r1, #1191182336
 416 0478 021581E2 		add	r1, r1, #8388608
 417 047c FEFFFFEB 		bl	__addsf3
 418 0480 94FFFFEA 		b	.L63
 419              	.L73:
 420 0484 4714A0E3 		mov	r1, #1191182336
 421 0488 021581E2 		add	r1, r1, #8388608
 422 048c FEFFFFEB 		bl	__addsf3
 423 0490 D4FFFFEA 		b	.L64
 424              	.L75:
 425              		.align	2
 426              	.L74:
 427 0494 9999B93F 		.word	1069128089
 428 0498 9A999999 		.word	-1717986918
 429 049c F5282F40 		.word	1076832501
 430 04a0 295C8FC2 		.word	-1030792151
 431 04a4 EA30173E 		.word	1041707242
 432 04a8 EDF46340 		.word	1080292589
 433 04ac 00000000 		.word	global_data
 434 04b0 9A99593F 		.word	1062836634
 435 04b4 9A99193E 		.word	1041865114
 437              		.section	.rodata.str1.4
 438              		.align	2
 439              	.LC2:
 440 003c 73746172 		.ascii	"start writing params to eeprom\000"
 440      74207772 
 440      6974696E 
 440      67207061 
 440      72616D73 
 441 005b 00       		.align	2
 442              	.LC3:
 443 005c 73746172 		.ascii	"start reading params from eeprom\000"
 443      74207265 
 443      6164696E 
 443      67207061 
 443      72616D73 
 444 007d 000000   		.align	2
 445              	.LC4:
 446 0080 70617261 		.ascii	"params reset to defaults\000"
 446      6D732072 
 446      65736574 
 446      20746F20 
 446      64656661 
 447 0099 000000   		.align	2
 448              	.LC5:
 449 009c 5359535F 		.ascii	"SYS_ID\000"
 449      494400
 450 00a3 00       		.align	2
 451              	.LC6:
 452 00a4 5359535F 		.ascii	"SYS_COMP_ID\000"
 452      434F4D50 
 452      5F494400 
 453              		.align	2
 454              	.LC7:
 455 00b0 5359535F 		.ascii	"SYS_TYPE\000"
 455      54595045 
 455      00
 456 00b9 000000   		.align	2
 457              	.LC8:
 458 00bc 5359535F 		.ascii	"SYS_SW_VER\000"
 458      53575F56 
 458      455200
 459 00c7 00       		.align	2
 460              	.LC9:
 461 00c8 52435F53 		.ascii	"RC_SAFETY_CHAN\000"
 461      41464554 
 461      595F4348 
 461      414E00
 462 00d7 00       		.align	2
 463              	.LC10:
 464 00d8 55415254 		.ascii	"UART_0_BAUD\000"
 464      5F305F42 
 464      41554400 
 465              		.align	2
 466              	.LC11:
 467 00e4 55415254 		.ascii	"UART_1_BAUD\000"
 467      5F315F42 
 467      41554400 
 468              		.align	2
 469              	.LC12:
 470 00f0 52435F54 		.ascii	"RC_TUNE_CHAN1\000"
 470      554E455F 
 470      4348414E 
 470      3100
 471 00fe 0000     		.align	2
 472              	.LC13:
 473 0100 52435F54 		.ascii	"RC_TUNE_CHAN2\000"
 473      554E455F 
 473      4348414E 
 473      3200
 474 010e 0000     		.align	2
 475              	.LC14:
 476 0110 52435F54 		.ascii	"RC_TUNE_CHAN3\000"
 476      554E455F 
 476      4348414E 
 476      3300
 477 011e 0000     		.align	2
 478              	.LC15:
 479 0120 52435F54 		.ascii	"RC_TUNE_CHAN4\000"
 479      554E455F 
 479      4348414E 
 479      3400
 480 012e 0000     		.align	2
 481              	.LC16:
 482 0130 52435F54 		.ascii	"RC_THRUST_CHAN\000"
 482      48525553 
 482      545F4348 
 482      414E00
 483 013f 00       		.align	2
 484              	.LC17:
 485 0140 52435F59 		.ascii	"RC_YAW_CHAN\000"
 485      41575F43 
 485      48414E00 
 486              		.align	2
 487              	.LC18:
 488 014c 52435F52 		.ascii	"RC_ROLL_CHAN\000"
 488      4F4C4C5F 
 488      4348414E 
 488      00
 489 0159 000000   		.align	2
 490              	.LC19:
 491 015c 52435F54 		.ascii	"RC_TRIM_CHAN\000"
 491      52494D5F 
 491      4348414E 
 491      00
 492 0169 000000   		.align	2
 493              	.LC20:
 494 016c 52435F4E 		.ascii	"RC_NICK_CHAN\000"
 494      49434B5F 
 494      4348414E 
 494      00
 495 0179 000000   		.align	2
 496              	.LC21:
 497 017c 43414D5F 		.ascii	"CAM_INTERVAL\000"
 497      494E5445 
 497      5256414C 
 497      00
 498 0189 000000   		.align	2
 499              	.LC22:
 500 018c 43414D5F 		.ascii	"CAM_EXP\000"
 500      45585000 
 501              		.align	2
 502              	.LC23:
 503 0194 504F535F 		.ascii	"POS_SP_ACCEPT\000"
 503      53505F41 
 503      43434550 
 503      5400
 504 01a2 0000     		.align	2
 505              	.LC24:
 506 01a4 504F535F 		.ascii	"POS_TIMEOUT\000"
 506      54494D45 
 506      4F555400 
 507              		.align	2
 508              	.LC25:
 509 01b0 504F535F 		.ascii	"POS_SP_X\000"
 509      53505F58 
 509      00
 510 01b9 000000   		.align	2
 511              	.LC26:
 512 01bc 504F535F 		.ascii	"POS_SP_Y\000"
 512      53505F59 
 512      00
 513 01c5 000000   		.align	2
 514              	.LC27:
 515 01c8 504F535F 		.ascii	"POS_SP_Z\000"
 515      53505F5A 
 515      00
 516 01d1 000000   		.align	2
 517              	.LC28:
 518 01d4 504F535F 		.ascii	"POS_SP_YAW\000"
 518      53505F59 
 518      415700
 519 01df 00       		.align	2
 520              	.LC29:
 521 01e0 504F535F 		.ascii	"POS_YAW_TRACK\000"
 521      5941575F 
 521      54524143 
 521      4B00
 522 01ee 0000     		.align	2
 523              	.LC30:
 524 01f0 5049445F 		.ascii	"PID_ATT_P\000"
 524      4154545F 
 524      5000
 525 01fa 0000     		.align	2
 526              	.LC31:
 527 01fc 5049445F 		.ascii	"PID_ATT_I\000"
 527      4154545F 
 527      4900
 528 0206 0000     		.align	2
 529              	.LC32:
 530 0208 5049445F 		.ascii	"PID_ATT_D\000"
 530      4154545F 
 530      4400
 531 0212 0000     		.align	2
 532              	.LC33:
 533 0214 5049445F 		.ascii	"PID_ATT_LIM\000"
 533      4154545F 
 533      4C494D00 
 534              		.align	2
 535              	.LC34:
 536 0220 5049445F 		.ascii	"PID_ATT_AWU\000"
 536      4154545F 
 536      41575500 
 537              		.align	2
 538              	.LC35:
 539 022c 5049445F 		.ascii	"PID_YAWPOS_P\000"
 539      59415750 
 539      4F535F50 
 539      00
 540 0239 000000   		.align	2
 541              	.LC36:
 542 023c 5049445F 		.ascii	"PID_YAWPOS_I\000"
 542      59415750 
 542      4F535F49 
 542      00
 543 0249 000000   		.align	2
 544              	.LC37:
 545 024c 5049445F 		.ascii	"PID_YAWPOS_D\000"
 545      59415750 
 545      4F535F44 
 545      00
 546 0259 000000   		.align	2
 547              	.LC38:
 548 025c 5049445F 		.ascii	"PID_YAWPOS_LIM\000"
 548      59415750 
 548      4F535F4C 
 548      494D00
 549 026b 00       		.align	2
 550              	.LC39:
 551 026c 5049445F 		.ascii	"PID_YAWPOS_AWU\000"
 551      59415750 
 551      4F535F41 
 551      575500
 552 027b 00       		.align	2
 553              	.LC40:
 554 027c 5049445F 		.ascii	"PID_YAWSPEED_P\000"
 554      59415753 
 554      50454544 
 554      5F5000
 555 028b 00       		.align	2
 556              	.LC41:
 557 028c 5049445F 		.ascii	"PID_YAWSPEED_I\000"
 557      59415753 
 557      50454544 
 557      5F4900
 558 029b 00       		.align	2
 559              	.LC42:
 560 029c 5049445F 		.ascii	"PID_YAWSPEED_D\000"
 560      59415753 
 560      50454544 
 560      5F4400
 561 02ab 00       		.align	2
 562              	.LC43:
 563 02ac 5049445F 		.ascii	"PID_YAWSPE_LIM\000"
 563      59415753 
 563      50455F4C 
 563      494D00
 564 02bb 00       		.align	2
 565              	.LC44:
 566 02bc 5049445F 		.ascii	"PID_YAWSPE_AWU\000"
 566      59415753 
 566      50455F41 
 566      575500
 567 02cb 00       		.align	2
 568              	.LC45:
 569 02cc 5049445F 		.ascii	"PID_POS_P\000"
 569      504F535F 
 569      5000
 570 02d6 0000     		.align	2
 571              	.LC46:
 572 02d8 5049445F 		.ascii	"PID_POS_I\000"
 572      504F535F 
 572      4900
 573 02e2 0000     		.align	2
 574              	.LC47:
 575 02e4 5049445F 		.ascii	"PID_POS_D\000"
 575      504F535F 
 575      4400
 576 02ee 0000     		.align	2
 577              	.LC48:
 578 02f0 5049445F 		.ascii	"PID_POS_LIM\000"
 578      504F535F 
 578      4C494D00 
 579              		.align	2
 580              	.LC49:
 581 02fc 5049445F 		.ascii	"PID_POS_AWU\000"
 581      504F535F 
 581      41575500 
 582              		.align	2
 583              	.LC50:
 584 0308 5049445F 		.ascii	"PID_POS_Z_P\000"
 584      504F535F 
 584      5A5F5000 
 585              		.align	2
 586              	.LC51:
 587 0314 5049445F 		.ascii	"PID_POS_Z_I\000"
 587      504F535F 
 587      5A5F4900 
 588              		.align	2
 589              	.LC52:
 590 0320 5049445F 		.ascii	"PID_POS_Z_D\000"
 590      504F535F 
 590      5A5F4400 
 591              		.align	2
 592              	.LC53:
 593 032c 5049445F 		.ascii	"PID_POS_Z_LIM\000"
 593      504F535F 
 593      5A5F4C49 
 593      4D00
 594 033a 0000     		.align	2
 595              	.LC54:
 596 033c 5049445F 		.ascii	"PID_POS_Z_AWU\000"
 596      504F535F 
 596      5A5F4157 
 596      5500
 597 034a 0000     		.align	2
 598              	.LC55:
 599 034c 43414C5F 		.ascii	"CAL_GYRO_X\000"
 599      4759524F 
 599      5F5800
 600 0357 00       		.align	2
 601              	.LC56:
 602 0358 43414C5F 		.ascii	"CAL_GYRO_Y\000"
 602      4759524F 
 602      5F5900
 603 0363 00       		.align	2
 604              	.LC57:
 605 0364 43414C5F 		.ascii	"CAL_GYRO_Z\000"
 605      4759524F 
 605      5F5A00
 606 036f 00       		.align	2
 607              	.LC58:
 608 0370 43414C5F 		.ascii	"CAL_TEMP\000"
 608      54454D50 
 608      00
 609 0379 000000   		.align	2
 610              	.LC59:
 611 037c 43414C5F 		.ascii	"CAL_MAG_X\000"
 611      4D41475F 
 611      5800
 612 0386 0000     		.align	2
 613              	.LC60:
 614 0388 43414C5F 		.ascii	"CAL_MAG_Y\000"
 614      4D41475F 
 614      5900
 615 0392 0000     		.align	2
 616              	.LC61:
 617 0394 43414C5F 		.ascii	"CAL_MAG_Z\000"
 617      4D41475F 
 617      5A00
 618 039e 0000     		.align	2
 619              	.LC62:
 620 03a0 43414C5F 		.ascii	"CAL_FIT_GYRO_X\000"
 620      4649545F 
 620      4759524F 
 620      5F5800
 621 03af 00       		.align	2
 622              	.LC63:
 623 03b0 43414C5F 		.ascii	"CAL_FIT_GYRO_Y\000"
 623      4649545F 
 623      4759524F 
 623      5F5900
 624 03bf 00       		.align	2
 625              	.LC64:
 626 03c0 43414C5F 		.ascii	"CAL_FIT_GYRO_Z\000"
 626      4649545F 
 626      4759524F 
 626      5F5A00
 627 03cf 00       		.align	2
 628              	.LC65:
 629 03d0 43414C5F 		.ascii	"CAL_FIT_ACTIVE\000"
 629      4649545F 
 629      41435449 
 629      564500
 630 03df 00       		.align	2
 631              	.LC66:
 632 03e0 43414C5F 		.ascii	"CAL_PRES_DIFF\000"
 632      50524553 
 632      5F444946 
 632      4600
 633 03ee 0000     		.align	2
 634              	.LC67:
 635 03f0 43414C5F 		.ascii	"CAL_ACC_X\000"
 635      4143435F 
 635      5800
 636 03fa 0000     		.align	2
 637              	.LC68:
 638 03fc 43414C5F 		.ascii	"CAL_ACC_Y\000"
 638      4143435F 
 638      5900
 639 0406 0000     		.align	2
 640              	.LC69:
 641 0408 43414C5F 		.ascii	"CAL_ACC_Z\000"
 641      4143435F 
 641      5A00
 642 0412 0000     		.align	2
 643              	.LC70:
 644 0414 4143435F 		.ascii	"ACC_NAV_OFFS_X\000"
 644      4E41565F 
 644      4F464653 
 644      5F5800
 645 0423 00       		.align	2
 646              	.LC71:
 647 0424 4143435F 		.ascii	"ACC_NAV_OFFS_Y\000"
 647      4E41565F 
 647      4F464653 
 647      5F5900
 648 0433 00       		.align	2
 649              	.LC72:
 650 0434 4143435F 		.ascii	"ACC_NAV_OFFS_Z\000"
 650      4E41565F 
 650      4F464653 
 650      5F5A00
 651 0443 00       		.align	2
 652              	.LC73:
 653 0444 56454C5F 		.ascii	"VEL_OFFSET_X\000"
 653      4F464653 
 653      45545F58 
 653      00
 654 0451 000000   		.align	2
 655              	.LC74:
 656 0454 56454C5F 		.ascii	"VEL_OFFSET_Y\000"
 656      4F464653 
 656      45545F59 
 656      00
 657 0461 000000   		.align	2
 658              	.LC75:
 659 0464 56454C5F 		.ascii	"VEL_OFFSET_Z\000"
 659      4F464653 
 659      45545F5A 
 659      00
 660 0471 000000   		.align	2
 661              	.LC76:
 662 0474 56454C5F 		.ascii	"VEL_DAMP\000"
 662      44414D50 
 662      00
 663 047d 000000   		.align	2
 664              	.LC77:
 665 0480 4154545F 		.ascii	"ATT_KAL_KACC\000"
 665      4B414C5F 
 665      4B414343 
 665      00
 666 048d 000000   		.align	2
 667              	.LC78:
 668 0490 4154545F 		.ascii	"ATT_KAL_IYAW\000"
 668      4B414C5F 
 668      49594157 
 668      00
 669 049d 000000   		.align	2
 670              	.LC79:
 671 04a0 4154545F 		.ascii	"ATT_OFFSET_X\000"
 671      4F464653 
 671      45545F58 
 671      00
 672 04ad 000000   		.align	2
 673              	.LC80:
 674 04b0 4154545F 		.ascii	"ATT_OFFSET_Y\000"
 674      4F464653 
 674      45545F59 
 674      00
 675 04bd 000000   		.align	2
 676              	.LC81:
 677 04c0 4154545F 		.ascii	"ATT_OFFSET_Z\000"
 677      4F464653 
 677      45545F5A 
 677      00
 678 04cd 000000   		.align	2
 679              	.LC82:
 680 04d0 53454E44 		.ascii	"SEND_DEBUGCHAN\000"
 680      5F444542 
 680      55474348 
 680      414E00
 681 04df 00       		.align	2
 682              	.LC83:
 683 04e0 534C4F54 		.ascii	"SLOT_ATTITUDE\000"
 683      5F415454 
 683      49545544 
 683      4500
 684 04ee 0000     		.align	2
 685              	.LC84:
 686 04f0 534C4F54 		.ascii	"SLOT_RAW_IMU\000"
 686      5F524157 
 686      5F494D55 
 686      00
 687 04fd 000000   		.align	2
 688              	.LC85:
 689 0500 534C4F54 		.ascii	"SLOT_RC\000"
 689      5F524300 
 690              		.align	2
 691              	.LC86:
 692 0508 534C4F54 		.ascii	"SLOT_CONTROL\000"
 692      5F434F4E 
 692      54524F4C 
 692      00
 693 0515 000000   		.align	2
 694              	.LC87:
 695 0518 44454255 		.ascii	"DEBUG_1\000"
 695      475F3100 
 696              		.align	2
 697              	.LC88:
 698 0520 44454255 		.ascii	"DEBUG_2\000"
 698      475F3200 
 699              		.align	2
 700              	.LC89:
 701 0528 44454255 		.ascii	"DEBUG_3\000"
 701      475F3300 
 702              		.align	2
 703              	.LC90:
 704 0530 44454255 		.ascii	"DEBUG_4\000"
 704      475F3400 
 705              		.align	2
 706              	.LC91:
 707 0538 44454255 		.ascii	"DEBUG_5\000"
 707      475F3500 
 708              		.align	2
 709              	.LC92:
 710 0540 44454255 		.ascii	"DEBUG_6\000"
 710      475F3600 
 711              		.align	2
 712              	.LC93:
 713 0548 4D49585F 		.ascii	"MIX_REMOTE\000"
 713      52454D4F 
 713      544500
 714 0553 00       		.align	2
 715              	.LC94:
 716 0554 4D49585F 		.ascii	"MIX_POSITION\000"
 716      504F5349 
 716      54494F4E 
 716      00
 717 0561 000000   		.align	2
 718              	.LC95:
 719 0564 4D49585F 		.ascii	"MIX_Z_POSITION\000"
 719      5A5F504F 
 719      53495449 
 719      4F4E00
 720 0573 00       		.align	2
 721              	.LC96:
 722 0574 4D49585F 		.ascii	"MIX_POS_YAW\000"
 722      504F535F 
 722      59415700 
 723              		.align	2
 724              	.LC97:
 725 0580 4D49585F 		.ascii	"MIX_OFFSET\000"
 725      4F464653 
 725      455400
 726 058b 00       		.align	2
 727              	.LC98:
 728 058c 5649535F 		.ascii	"VIS_YAWCORR\000"
 728      59415743 
 728      4F525200 
 729              		.align	2
 730              	.LC99:
 731 0598 5649535F 		.ascii	"VIS_OUTL_TRESH\000"
 731      4F55544C 
 731      5F545245 
 731      534800
 732 05a7 00       		.align	2
 733              	.LC100:
 734 05a8 4750535F 		.ascii	"GPS_MODE\000"
 734      4D4F4445 
 734      00
 735 05b1 000000   		.align	2
 736              	.LC101:
 737 05b4 5359535F 		.ascii	"SYS_IMU_RESET\000"
 737      494D555F 
 737      52455345 
 737      5400
 738 05c2 0000     		.align	2
 739              	.LC102:
 740 05c4 63686563 		.ascii	"check true\000"
 740      6B207472 
 740      756500
 741 05cf 00       		.align	2
 742              	.LC103:
 743 05d0 63686563 		.ascii	"check false\000"
 743      6B206661 
 743      6C736500 
 744              		.text
 745              		.align	2
 746              		.global	handle_eeprom_write_request
 748              	handle_eeprom_write_request:
 749              		@ Function supports interworking.
 750              		@ args = 0, pretend = 0, frame = 0
 751              		@ frame_needed = 0, uses_anonymous_args = 0
 752 04b8 F04F2DE9 		stmfd	sp!, {r4, r5, r6, r7, r8, r9, sl, fp, lr}
 753 04bc B0B99FE5 		ldr	fp, .L90
 754 04c0 58319BE5 		ldr	r3, [fp, #344]
 755 04c4 030053E3 		cmp	r3, #3
 756 04c8 0100000A 		beq	.L88
 757              	.L87:
 758 04cc F04FBDE8 		ldmfd	sp!, {r4, r5, r6, r7, r8, r9, sl, fp, lr}
 759 04d0 1EFF2FE1 		bx	lr
 760              	.L88:
 761 04d4 50029BE5 		ldr	r0, [fp, #592]	@ float
 762 04d8 FEFFFFEB 		bl	__fixunssfsi
 763 04dc FF0000E2 		and	r0, r0, #255
 764 04e0 020040E2 		sub	r0, r0, #2
 765 04e4 040050E3 		cmp	r0, #4
 766 04e8 00F19F97 		ldrls	pc, [pc, r0, asl #2]
 767 04ec F6FFFFEA 		b	.L87
 768              		.p2align 2
 769              	.L84:
 770 04f0 04050000 		.word	.L79
 771 04f4 1C050000 		.word	.L80
 772 04f8 34050000 		.word	.L81
 773 04fc 380E0000 		.word	.L82
 774 0500 580E0000 		.word	.L83
 775              	.L79:
 776 0504 6C099FE5 		ldr	r0, .L90+4
 777 0508 FEFFFFEB 		bl	debug_message_buffer
 778 050c FEFFFFEB 		bl	param_write_all
 779 0510 0030A0E3 		mov	r3, #0
 780 0514 50328BE5 		str	r3, [fp, #592]	@ float
 781 0518 EBFFFFEA 		b	.L87
 782              	.L80:
 783 051c FEFFFFEB 		bl	param_read_all
 784 0520 54099FE5 		ldr	r0, .L90+8
 785 0524 FEFFFFEB 		bl	debug_message_buffer
 786 0528 0030A0E3 		mov	r3, #0
 787 052c 50328BE5 		str	r3, [fp, #592]	@ float
 788 0530 E5FFFFEA 		b	.L87
 789              	.L81:
 790 0534 0050A0E3 		mov	r5, #0
 791 0538 50528BE5 		str	r5, [fp, #592]	@ float
 792 053c 3C099FE5 		ldr	r0, .L90+12
 793 0540 FEFFFFEB 		bl	debug_message_buffer
 794 0544 4234A0E3 		mov	r3, #1107296256
 795 0548 0A3783E2 		add	r3, r3, #2621440
 796 054c 40328BE5 		str	r3, [fp, #576]	@ float
 797 0550 2C199FE5 		ldr	r1, .L90+16
 798 0554 0720A0E3 		mov	r2, #7
 799 0558 28099FE5 		ldr	r0, .L90+20
 800 055c FEFFFFEB 		bl	memcpy
 801 0560 4334A0E3 		mov	r3, #1124073472
 802 0564 123783E2 		add	r3, r3, #4718592
 803 0568 44328BE5 		str	r3, [fp, #580]	@ float
 804 056c 18199FE5 		ldr	r1, .L90+24
 805 0570 0C20A0E3 		mov	r2, #12
 806 0574 14099FE5 		ldr	r0, .L90+28
 807 0578 FEFFFFEB 		bl	memcpy
 808 057c 10199FE5 		ldr	r1, .L90+32
 809 0580 0920A0E3 		mov	r2, #9
 810 0584 48528BE5 		str	r5, [fp, #584]	@ float
 811 0588 08099FE5 		ldr	r0, .L90+36
 812 058c FEFFFFEB 		bl	memcpy
 813 0590 1133A0E3 		mov	r3, #1140850688
 814 0594 FA3883E2 		add	r3, r3, #16384000
 815 0598 0171A0E3 		mov	r7, #1073741824
 816 059c 0A7687E2 		add	r7, r7, #10485760
 817 05a0 4C328BE5 		str	r3, [fp, #588]	@ float
 818 05a4 F0189FE5 		ldr	r1, .L90+40
 819 05a8 0B20A0E3 		mov	r2, #11
 820 05ac EC089FE5 		ldr	r0, .L90+44
 821 05b0 FEFFFFEB 		bl	memcpy
 822 05b4 E8189FE5 		ldr	r1, .L90+48
 823 05b8 0F20A0E3 		mov	r2, #15
 824 05bc 94738BE5 		str	r7, [fp, #916]	@ float
 825 05c0 E0089FE5 		ldr	r0, .L90+52
 826 05c4 FEFFFFEB 		bl	memcpy
 827 05c8 4734A0E3 		mov	r3, #1191182336
 828 05cc E13883E2 		add	r3, r3, #14745600
 829 05d0 54328BE5 		str	r3, [fp, #596]	@ float
 830 05d4 D0189FE5 		ldr	r1, .L90+56
 831 05d8 0C20A0E3 		mov	r2, #12
 832 05dc CC089FE5 		ldr	r0, .L90+60
 833 05e0 FEFFFFEB 		bl	memcpy
 834 05e4 4734A0E3 		mov	r3, #1191182336
 835 05e8 613883E2 		add	r3, r3, #6356992
 836 05ec 58328BE5 		str	r3, [fp, #600]	@ float
 837 05f0 BC189FE5 		ldr	r1, .L90+64
 838 05f4 0C20A0E3 		mov	r2, #12
 839 05f8 B8089FE5 		ldr	r0, .L90+68
 840 05fc FEFFFFEB 		bl	memcpy
 841 0600 0131A0E3 		mov	r3, #1073741824
 842 0604 0E3683E2 		add	r3, r3, #14680064
 843 0608 98338BE5 		str	r3, [fp, #920]	@ float
 844 060c A8189FE5 		ldr	r1, .L90+72
 845 0610 0E20A0E3 		mov	r2, #14
 846 0614 A4089FE5 		ldr	r0, .L90+76
 847 0618 FEFFFFEB 		bl	memcpy
 848 061c A0189FE5 		ldr	r1, .L90+80
 849 0620 0E20A0E3 		mov	r2, #14
 850 0624 9C738BE5 		str	r7, [fp, #924]	@ float
 851 0628 98089FE5 		ldr	r0, .L90+84
 852 062c FEFFFFEB 		bl	memcpy
 853 0630 0131A0E3 		mov	r3, #1073741824
 854 0634 033583E2 		add	r3, r3, #12582912
 855 0638 A0338BE5 		str	r3, [fp, #928]	@ float
 856 063c 88189FE5 		ldr	r1, .L90+88
 857 0640 0E20A0E3 		mov	r2, #14
 858 0644 84089FE5 		ldr	r0, .L90+92
 859 0648 FEFFFFEB 		bl	memcpy
 860 064c 0181A0E3 		mov	r8, #1073741824
 861 0650 4134A0E3 		mov	r3, #1090519040
 862 0654 018588E2 		add	r8, r8, #4194304
 863 0658 A4338BE5 		str	r3, [fp, #932]	@ float
 864 065c 70189FE5 		ldr	r1, .L90+96
 865 0660 0E20A0E3 		mov	r2, #14
 866 0664 6C089FE5 		ldr	r0, .L90+100
 867 0668 FEFFFFEB 		bl	memcpy
 868 066c 68189FE5 		ldr	r1, .L90+104
 869 0670 0F20A0E3 		mov	r2, #15
 870 0674 A8838BE5 		str	r8, [fp, #936]	@ float
 871 0678 60089FE5 		ldr	r0, .L90+108
 872 067c FEFFFFEB 		bl	memcpy
 873 0680 0131A0E3 		mov	r3, #1073741824
 874 0684 023583E2 		add	r3, r3, #8388608
 875 0688 AC338BE5 		str	r3, [fp, #940]	@ float
 876 068c 0191A0E3 		mov	r9, #1073741824
 877 0690 4C189FE5 		ldr	r1, .L90+112
 878 0694 0C20A0E3 		mov	r2, #12
 879 0698 48089FE5 		ldr	r0, .L90+116
 880 069c FEFFFFEB 		bl	memcpy
 881 06a0 44189FE5 		ldr	r1, .L90+120
 882 06a4 0D20A0E3 		mov	r2, #13
 883 06a8 B0938BE5 		str	r9, [fp, #944]	@ float
 884 06ac 3C089FE5 		ldr	r0, .L90+124
 885 06b0 FE65A0E3 		mov	r6, #1065353216
 886 06b4 FEFFFFEB 		bl	memcpy
 887 06b8 34189FE5 		ldr	r1, .L90+128
 888 06bc 0D20A0E3 		mov	r2, #13
 889 06c0 70528BE5 		str	r5, [fp, #624]	@ float
 890 06c4 2C089FE5 		ldr	r0, .L90+132
 891 06c8 FEFFFFEB 		bl	memcpy
 892 06cc 28189FE5 		ldr	r1, .L90+136
 893 06d0 0D20A0E3 		mov	r2, #13
 894 06d4 B4638BE5 		str	r6, [fp, #948]	@ float
 895 06d8 20089FE5 		ldr	r0, .L90+140
 896 06dc FEFFFFEB 		bl	memcpy
 897 06e0 4734A0E3 		mov	r3, #1191182336
 898 06e4 CA3A83E2 		add	r3, r3, #827392
 899 06e8 BC338BE5 		str	r3, [fp, #956]	@ float
 900 06ec 10189FE5 		ldr	r1, .L90+144
 901 06f0 0D20A0E3 		mov	r2, #13
 902 06f4 0C089FE5 		ldr	r0, .L90+148
 903 06f8 FEFFFFEB 		bl	memcpy
 904 06fc 1133A0E3 		mov	r3, #1140850688
 905 0700 7A3883E2 		add	r3, r3, #7995392
 906 0704 C0338BE5 		str	r3, [fp, #960]	@ float
 907 0708 FC179FE5 		ldr	r1, .L90+152
 908 070c 0820A0E3 		mov	r2, #8
 909 0710 F8079FE5 		ldr	r0, .L90+156
 910 0714 FEFFFFEB 		bl	memcpy
 911 0718 F4179FE5 		ldr	r1, .L90+160
 912 071c 0E20A0E3 		mov	r2, #14
 913 0720 D8528BE5 		str	r5, [fp, #728]	@ float
 914 0724 EC079FE5 		ldr	r0, .L90+164
 915 0728 FEFFFFEB 		bl	memcpy
 916 072c 4934A0E3 		mov	r3, #1224736768
 917 0730 3D3783E2 		add	r3, r3, #15990784
 918 0734 093B83E2 		add	r3, r3, #9216
 919 0738 DC328BE5 		str	r3, [fp, #732]	@ float
 920 073c D8179FE5 		ldr	r1, .L90+168
 921 0740 0C20A0E3 		mov	r2, #12
 922 0744 D4079FE5 		ldr	r0, .L90+172
 923 0748 FEFFFFEB 		bl	memcpy
 924 074c 73C8E0E3 		mvn	ip, #7536640
 925 0750 B338E0E3 		mvn	r3, #11730944
 926 0754 33CC4CE2 		sub	ip, ip, #13056
 927 0758 333C43E2 		sub	r3, r3, #13056
 928 075c CBC14CE2 		sub	ip, ip, #-1073741774
 929 0760 C93143E2 		sub	r3, r3, #1073741874
 930 0764 E4C28BE5 		str	ip, [fp, #740]	@ float
 931 0768 E0C28BE5 		str	ip, [fp, #736]	@ float
 932 076c E8328BE5 		str	r3, [fp, #744]	@ float
 933 0770 AC179FE5 		ldr	r1, .L90+176
 934 0774 0920A0E3 		mov	r2, #9
 935 0778 EC528BE5 		str	r5, [fp, #748]	@ float
 936 077c F0528BE5 		str	r5, [fp, #752]	@ float
 937 0780 EC508BE5 		str	r5, [fp, #236]	@ float
 938 0784 F0508BE5 		str	r5, [fp, #240]	@ float
 939 0788 F4508BE5 		str	r5, [fp, #244]	@ float
 940 078c 94079FE5 		ldr	r0, .L90+180
 941 0790 FEFFFFEB 		bl	memcpy
 942 0794 90179FE5 		ldr	r1, .L90+184
 943 0798 0920A0E3 		mov	r2, #9
 944 079c 8C079FE5 		ldr	r0, .L90+188
 945 07a0 FEFFFFEB 		bl	memcpy
 946 07a4 88179FE5 		ldr	r1, .L90+192
 947 07a8 0920A0E3 		mov	r2, #9
 948 07ac 84079FE5 		ldr	r0, .L90+196
 949 07b0 FEFFFFEB 		bl	memcpy
 950 07b4 80179FE5 		ldr	r1, .L90+200
 951 07b8 0B20A0E3 		mov	r2, #11
 952 07bc 7C079FE5 		ldr	r0, .L90+204
 953 07c0 FEFFFFEB 		bl	memcpy
 954 07c4 78179FE5 		ldr	r1, .L90+208
 955 07c8 0E20A0E3 		mov	r2, #14
 956 07cc 74079FE5 		ldr	r0, .L90+212
 957 07d0 FEFFFFEB 		bl	memcpy
 958 07d4 4234A0E3 		mov	r3, #1107296256
 959 07d8 2D3783E2 		add	r3, r3, #11796480
 960 07dc 74328BE5 		str	r3, [fp, #628]	@ float
 961 07e0 64179FE5 		ldr	r1, .L90+216
 962 07e4 0A20A0E3 		mov	r2, #10
 963 07e8 60079FE5 		ldr	r0, .L90+220
 964 07ec FEFFFFEB 		bl	memcpy
 965 07f0 4234A0E3 		mov	r3, #1107296256
 966 07f4 073683E2 		add	r3, r3, #7340032
 967 07f8 78328BE5 		str	r3, [fp, #632]	@ float
 968 07fc 50179FE5 		ldr	r1, .L90+224
 969 0800 0A20A0E3 		mov	r2, #10
 970 0804 4C079FE5 		ldr	r0, .L90+228
 971 0808 FEFFFFEB 		bl	memcpy
 972 080c 4134A0E3 		mov	r3, #1090519040
 973 0810 0F3683E2 		add	r3, r3, #15728640
 974 0814 7C328BE5 		str	r3, [fp, #636]	@ float
 975 0818 3C179FE5 		ldr	r1, .L90+232
 976 081c 0A20A0E3 		mov	r2, #10
 977 0820 38079FE5 		ldr	r0, .L90+236
 978 0824 FEFFFFEB 		bl	memcpy
 979 0828 4234A0E3 		mov	r3, #1107296256
 980 082c 323783E2 		add	r3, r3, #13107200
 981 0830 2C479FE5 		ldr	r4, .L90+240
 982 0834 80328BE5 		str	r3, [fp, #640]	@ float
 983 0838 28179FE5 		ldr	r1, .L90+244
 984 083c 0C20A0E3 		mov	r2, #12
 985 0840 24079FE5 		ldr	r0, .L90+248
 986 0844 FEFFFFEB 		bl	memcpy
 987 0848 84428BE5 		str	r4, [fp, #644]	@ float
 988 084c 1C179FE5 		ldr	r1, .L90+252
 989 0850 0C20A0E3 		mov	r2, #12
 990 0854 18079FE5 		ldr	r0, .L90+256
 991 0858 FEFFFFEB 		bl	memcpy
 992 085c 14179FE5 		ldr	r1, .L90+260
 993 0860 0D20A0E3 		mov	r2, #13
 994 0864 B0728BE5 		str	r7, [fp, #688]	@ float
 995 0868 0C079FE5 		ldr	r0, .L90+264
 996 086c FEFFFFEB 		bl	memcpy
 997 0870 08379FE5 		ldr	r3, .L90+268
 998 0874 08179FE5 		ldr	r1, .L90+272
 999 0878 B4328BE5 		str	r3, [fp, #692]	@ float
 1000 087c 0D20A0E3 		mov	r2, #13
 1001 0880 00079FE5 		ldr	r0, .L90+276
 1002 0884 FEFFFFEB 		bl	memcpy
 1003 0888 FC169FE5 		ldr	r1, .L90+280
 1004 088c 0D20A0E3 		mov	r2, #13
 1005 0890 B8628BE5 		str	r6, [fp, #696]	@ float
 1006 0894 F4069FE5 		ldr	r0, .L90+284
 1007 0898 FEFFFFEB 		bl	memcpy
 1008 089c F0169FE5 		ldr	r1, .L90+288
 1009 08a0 0F20A0E3 		mov	r2, #15
 1010 08a4 BC828BE5 		str	r8, [fp, #700]	@ float
 1011 08a8 E8069FE5 		ldr	r0, .L90+292
 1012 08ac FEFFFFEB 		bl	memcpy
 1013 08b0 E4169FE5 		ldr	r1, .L90+296
 1014 08b4 0F20A0E3 		mov	r2, #15
 1015 08b8 C0628BE5 		str	r6, [fp, #704]	@ float
 1016 08bc DC069FE5 		ldr	r0, .L90+300
 1017 08c0 FEFFFFEB 		bl	memcpy
 1018 08c4 4134A0E3 		mov	r3, #1090519040
 1019 08c8 073683E2 		add	r3, r3, #7340032
 1020 08cc C4328BE5 		str	r3, [fp, #708]	@ float
 1021 08d0 CC169FE5 		ldr	r1, .L90+304
 1022 08d4 0F20A0E3 		mov	r2, #15
 1023 08d8 C8069FE5 		ldr	r0, .L90+308
 1024 08dc FEFFFFEB 		bl	memcpy
 1025 08e0 C4169FE5 		ldr	r1, .L90+312
 1026 08e4 0F20A0E3 		mov	r2, #15
 1027 08e8 C8728BE5 		str	r7, [fp, #712]	@ float
 1028 08ec BC069FE5 		ldr	r0, .L90+316
 1029 08f0 FEFFFFEB 		bl	memcpy
 1030 08f4 B8169FE5 		ldr	r1, .L90+320
 1031 08f8 0F20A0E3 		mov	r2, #15
 1032 08fc CC528BE5 		str	r5, [fp, #716]	@ float
 1033 0900 B0069FE5 		ldr	r0, .L90+324
 1034 0904 FEFFFFEB 		bl	memcpy
 1035 0908 4234A0E3 		mov	r3, #1107296256
 1036 090c 123783E2 		add	r3, r3, #4718592
 1037 0910 D0328BE5 		str	r3, [fp, #720]	@ float
 1038 0914 A0169FE5 		ldr	r1, .L90+328
 1039 0918 0F20A0E3 		mov	r2, #15
 1040 091c 9C069FE5 		ldr	r0, .L90+332
 1041 0920 FEFFFFEB 		bl	memcpy
 1042 0924 98169FE5 		ldr	r1, .L90+336
 1043 0928 0F20A0E3 		mov	r2, #15
 1044 092c D4628BE5 		str	r6, [fp, #724]	@ float
 1045 0930 90069FE5 		ldr	r0, .L90+340
 1046 0934 FEFFFFEB 		bl	memcpy
 1047 0938 6639E0E3 		mvn	r3, #1671168
 1048 093c 663D43E2 		sub	r3, r3, #6528
 1049 0940 673143E2 		sub	r3, r3, #-1073741799
 1050 0944 80A69FE5 		ldr	sl, .L90+344
 1051 0948 88328BE5 		str	r3, [fp, #648]	@ float
 1052 094c 7C169FE5 		ldr	r1, .L90+348
 1053 0950 0A20A0E3 		mov	r2, #10
 1054 0954 78069FE5 		ldr	r0, .L90+352
 1055 0958 FEFFFFEB 		bl	memcpy
 1056 095c 74169FE5 		ldr	r1, .L90+356
 1057 0960 0A20A0E3 		mov	r2, #10
 1058 0964 8CA28BE5 		str	sl, [fp, #652]	@ float
 1059 0968 6C069FE5 		ldr	r0, .L90+360
 1060 096c FEFFFFEB 		bl	memcpy
 1061 0970 68169FE5 		ldr	r1, .L90+364
 1062 0974 0A20A0E3 		mov	r2, #10
 1063 0978 90928BE5 		str	r9, [fp, #656]	@ float
 1064 097c 60069FE5 		ldr	r0, .L90+368
 1065 0980 FEFFFFEB 		bl	memcpy
 1066 0984 5C169FE5 		ldr	r1, .L90+372
 1067 0988 0C20A0E3 		mov	r2, #12
 1068 098c 94A28BE5 		str	sl, [fp, #660]	@ float
 1069 0990 54069FE5 		ldr	r0, .L90+376
 1070 0994 FEFFFFEB 		bl	memcpy
 1071 0998 50169FE5 		ldr	r1, .L90+380
 1072 099c 0C20A0E3 		mov	r2, #12
 1073 09a0 98728BE5 		str	r7, [fp, #664]	@ float
 1074 09a4 48069FE5 		ldr	r0, .L90+384
 1075 09a8 FEFFFFEB 		bl	memcpy
 1076 09ac 3F34A0E3 		mov	r3, #1056964608
 1077 09b0 9C328BE5 		str	r3, [fp, #668]	@ float
 1078 09b4 3C169FE5 		ldr	r1, .L90+388
 1079 09b8 0C20A0E3 		mov	r2, #12
 1080 09bc 38069FE5 		ldr	r0, .L90+392
 1081 09c0 FEFFFFEB 		bl	memcpy
 1082 09c4 A0428BE5 		str	r4, [fp, #672]	@ float
 1083 09c8 30169FE5 		ldr	r1, .L90+396
 1084 09cc 0C20A0E3 		mov	r2, #12
 1085 09d0 2C069FE5 		ldr	r0, .L90+400
 1086 09d4 FEFFFFEB 		bl	memcpy
 1087 09d8 28169FE5 		ldr	r1, .L90+404
 1088 09dc 0C20A0E3 		mov	r2, #12
 1089 09e0 A4A28BE5 		str	sl, [fp, #676]	@ float
 1090 09e4 20069FE5 		ldr	r0, .L90+408
 1091 09e8 FEFFFFEB 		bl	memcpy
 1092 09ec A8428BE5 		str	r4, [fp, #680]	@ float
 1093 09f0 18169FE5 		ldr	r1, .L90+412
 1094 09f4 0E20A0E3 		mov	r2, #14
 1095 09f8 14069FE5 		ldr	r0, .L90+416
 1096 09fc FEFFFFEB 		bl	memcpy
 1097 0a00 10169FE5 		ldr	r1, .L90+420
 1098 0a04 0E20A0E3 		mov	r2, #14
 1099 0a08 AC828BE5 		str	r8, [fp, #684]	@ float
 1100 0a0c 08069FE5 		ldr	r0, .L90+424
 1101 0a10 FEFFFFEB 		bl	memcpy
 1102 0a14 4734A0E3 		mov	r3, #1191182336
 1103 0a18 5E3943E2 		sub	r3, r3, #1540096
 1104 0a1c 18338BE5 		str	r3, [fp, #792]	@ float
 1105 0a20 F8159FE5 		ldr	r1, .L90+428
 1106 0a24 0B20A0E3 		mov	r2, #11
 1107 0a28 F4059FE5 		ldr	r0, .L90+432
 1108 0a2c FEFFFFEB 		bl	memcpy
 1109 0a30 4634A0E3 		mov	r3, #1174405120
 1110 0a34 E93883E2 		add	r3, r3, #15269888
 1111 0a38 123B83E2 		add	r3, r3, #18432
 1112 0a3c 1C338BE5 		str	r3, [fp, #796]	@ float
 1113 0a40 E0159FE5 		ldr	r1, .L90+436
 1114 0a44 0B20A0E3 		mov	r2, #11
 1115 0a48 DC059FE5 		ldr	r0, .L90+440
 1116 0a4c FEFFFFEB 		bl	memcpy
 1117 0a50 4634A0E3 		mov	r3, #1174405120
 1118 0a54 E93883E2 		add	r3, r3, #15269888
 1119 0a58 6A3C83E2 		add	r3, r3, #27136
 1120 0a5c 20338BE5 		str	r3, [fp, #800]	@ float
 1121 0a60 C8159FE5 		ldr	r1, .L90+444
 1122 0a64 0B20A0E3 		mov	r2, #11
 1123 0a68 C4059FE5 		ldr	r0, .L90+448
 1124 0a6c FEFFFFEB 		bl	memcpy
 1125 0a70 4234A0E3 		mov	r3, #1107296256
 1126 0a74 24338BE5 		str	r3, [fp, #804]	@ float
 1127 0a78 B8159FE5 		ldr	r1, .L90+452
 1128 0a7c 0920A0E3 		mov	r2, #9
 1129 0a80 B4059FE5 		ldr	r0, .L90+456
 1130 0a84 FEFFFFEB 		bl	memcpy
 1131 0a88 B0159FE5 		ldr	r1, .L90+460
 1132 0a8c 0A20A0E3 		mov	r2, #10
 1133 0a90 AC059FE5 		ldr	r0, .L90+464
 1134 0a94 FEFFFFEB 		bl	memcpy
 1135 0a98 A8159FE5 		ldr	r1, .L90+468
 1136 0a9c 0A20A0E3 		mov	r2, #10
 1137 0aa0 38538BE5 		str	r5, [fp, #824]	@ float
 1138 0aa4 A0059FE5 		ldr	r0, .L90+472
 1139 0aa8 FEFFFFEB 		bl	memcpy
 1140 0aac 9C159FE5 		ldr	r1, .L90+476
 1141 0ab0 0A20A0E3 		mov	r2, #10
 1142 0ab4 3C538BE5 		str	r5, [fp, #828]	@ float
 1143 0ab8 94059FE5 		ldr	r0, .L90+480
 1144 0abc FEFFFFEB 		bl	memcpy
 1145 0ac0 90359FE5 		ldr	r3, .L90+484
 1146 0ac4 90C59FE5 		ldr	ip, .L90+488
 1147 0ac8 28338BE5 		str	r3, [fp, #808]	@ float
 1148 0acc 8C359FE5 		ldr	r3, .L90+492
 1149 0ad0 2CC38BE5 		str	ip, [fp, #812]	@ float
 1150 0ad4 30338BE5 		str	r3, [fp, #816]	@ float
 1151 0ad8 84159FE5 		ldr	r1, .L90+496
 1152 0adc 0F20A0E3 		mov	r2, #15
 1153 0ae0 40538BE5 		str	r5, [fp, #832]	@ float
 1154 0ae4 34538BE5 		str	r5, [fp, #820]	@ float
 1155 0ae8 78059FE5 		ldr	r0, .L90+500
 1156 0aec FEFFFFEB 		bl	memcpy
 1157 0af0 74159FE5 		ldr	r1, .L90+504
 1158 0af4 0F20A0E3 		mov	r2, #15
 1159 0af8 70059FE5 		ldr	r0, .L90+508
 1160 0afc FEFFFFEB 		bl	memcpy
 1161 0b00 6C159FE5 		ldr	r1, .L90+512
 1162 0b04 0F20A0E3 		mov	r2, #15
 1163 0b08 68059FE5 		ldr	r0, .L90+516
 1164 0b0c FEFFFFEB 		bl	memcpy
 1165 0b10 64159FE5 		ldr	r1, .L90+520
 1166 0b14 0F20A0E3 		mov	r2, #15
 1167 0b18 60059FE5 		ldr	r0, .L90+524
 1168 0b1c FEFFFFEB 		bl	memcpy
 1169 0b20 4634A0E3 		mov	r3, #1174405120
 1170 0b24 713983E2 		add	r3, r3, #1851392
 1171 0b28 44338BE5 		str	r3, [fp, #836]	@ float
 1172 0b2c 50159FE5 		ldr	r1, .L90+528
 1173 0b30 0E20A0E3 		mov	r2, #14
 1174 0b34 4C059FE5 		ldr	r0, .L90+532
 1175 0b38 FEFFFFEB 		bl	memcpy
 1176 0b3c 48159FE5 		ldr	r1, .L90+536
 1177 0b40 0A20A0E3 		mov	r2, #10
 1178 0b44 48538BE5 		str	r5, [fp, #840]	@ float
 1179 0b48 40059FE5 		ldr	r0, .L90+540
 1180 0b4c FEFFFFEB 		bl	memcpy
 1181 0b50 3C159FE5 		ldr	r1, .L90+544
 1182 0b54 0A20A0E3 		mov	r2, #10
 1183 0b58 4C538BE5 		str	r5, [fp, #844]	@ float
 1184 0b5c 34059FE5 		ldr	r0, .L90+548
 1185 0b60 FEFFFFEB 		bl	memcpy
 1186 0b64 30159FE5 		ldr	r1, .L90+552
 1187 0b68 0A20A0E3 		mov	r2, #10
 1188 0b6c 50538BE5 		str	r5, [fp, #848]	@ float
 1189 0b70 28059FE5 		ldr	r0, .L90+556
 1190 0b74 FEFFFFEB 		bl	memcpy
 1191 0b78 24159FE5 		ldr	r1, .L90+560
 1192 0b7c 0F20A0E3 		mov	r2, #15
 1193 0b80 54538BE5 		str	r5, [fp, #852]	@ float
 1194 0b84 1C059FE5 		ldr	r0, .L90+564
 1195 0b88 FEFFFFEB 		bl	memcpy
 1196 0b8c 18159FE5 		ldr	r1, .L90+568
 1197 0b90 0F20A0E3 		mov	r2, #15
 1198 0b94 58538BE5 		str	r5, [fp, #856]	@ float
 1199 0b98 10059FE5 		ldr	r0, .L90+572
 1200 0b9c FEFFFFEB 		bl	memcpy
 1201 0ba0 3133A0E3 		mov	r3, #-1006632960
 1202 0ba4 7A3883E2 		add	r3, r3, #7995392
 1203 0ba8 5C338BE5 		str	r3, [fp, #860]	@ float
 1204 0bac 00159FE5 		ldr	r1, .L90+576
 1205 0bb0 0F20A0E3 		mov	r2, #15
 1206 0bb4 FC049FE5 		ldr	r0, .L90+580
 1207 0bb8 FEFFFFEB 		bl	memcpy
 1208 0bbc F8149FE5 		ldr	r1, .L90+584
 1209 0bc0 0D20A0E3 		mov	r2, #13
 1210 0bc4 00538BE5 		str	r5, [fp, #768]	@ float
 1211 0bc8 F0049FE5 		ldr	r0, .L90+588
 1212 0bcc FEFFFFEB 		bl	memcpy
 1213 0bd0 EC149FE5 		ldr	r1, .L90+592
 1214 0bd4 0D20A0E3 		mov	r2, #13
 1215 0bd8 04538BE5 		str	r5, [fp, #772]	@ float
 1216 0bdc E4049FE5 		ldr	r0, .L90+596
 1217 0be0 FEFFFFEB 		bl	memcpy
 1218 0be4 E0149FE5 		ldr	r1, .L90+600
 1219 0be8 0D20A0E3 		mov	r2, #13
 1220 0bec 08538BE5 		str	r5, [fp, #776]	@ float
 1221 0bf0 D8049FE5 		ldr	r0, .L90+604
 1222 0bf4 FEFFFFEB 		bl	memcpy
 1223 0bf8 D4349FE5 		ldr	r3, .L90+608
 1224 0bfc D4149FE5 		ldr	r1, .L90+612
 1225 0c00 0C338BE5 		str	r3, [fp, #780]	@ float
 1226 0c04 0920A0E3 		mov	r2, #9
 1227 0c08 CC049FE5 		ldr	r0, .L90+616
 1228 0c0c FEFFFFEB 		bl	memcpy
 1229 0c10 ED35A0E3 		mov	r3, #994050048
 1230 0c14 613983E2 		add	r3, r3, #1589248
 1231 0c18 4D3E83E2 		add	r3, r3, #1232
 1232 0c1c 10338BE5 		str	r3, [fp, #784]	@ float
 1233 0c20 B8149FE5 		ldr	r1, .L90+620
 1234 0c24 0D20A0E3 		mov	r2, #13
 1235 0c28 B4049FE5 		ldr	r0, .L90+624
 1236 0c2c FEFFFFEB 		bl	memcpy
 1237 0c30 B0149FE5 		ldr	r1, .L90+628
 1238 0c34 0D20A0E3 		mov	r2, #13
 1239 0c38 14638BE5 		str	r6, [fp, #788]	@ float
 1240 0c3c A8049FE5 		ldr	r0, .L90+632
 1241 0c40 FEFFFFEB 		bl	memcpy
 1242 0c44 A4149FE5 		ldr	r1, .L90+636
 1243 0c48 0D20A0E3 		mov	r2, #13
 1244 0c4c F4528BE5 		str	r5, [fp, #756]	@ float
 1245 0c50 9C049FE5 		ldr	r0, .L90+640
 1246 0c54 FEFFFFEB 		bl	memcpy
 1247 0c58 98149FE5 		ldr	r1, .L90+644
 1248 0c5c 0D20A0E3 		mov	r2, #13
 1249 0c60 F8528BE5 		str	r5, [fp, #760]	@ float
 1250 0c64 90049FE5 		ldr	r0, .L90+648
 1251 0c68 FEFFFFEB 		bl	memcpy
 1252 0c6c A33DE0E3 		mvn	r3, #10432
 1253 0c70 D53143E2 		sub	r3, r3, #1073741877
 1254 0c74 973743E2 		sub	r3, r3, #39583744
 1255 0c78 FC328BE5 		str	r3, [fp, #764]	@ float
 1256 0c7c 7C149FE5 		ldr	r1, .L90+652
 1257 0c80 0D20A0E3 		mov	r2, #13
 1258 0c84 78049FE5 		ldr	r0, .L90+656
 1259 0c88 FEFFFFEB 		bl	memcpy
 1260 0c8c 74149FE5 		ldr	r1, .L90+660
 1261 0c90 0F20A0E3 		mov	r2, #15
 1262 0c94 68538BE5 		str	r5, [fp, #872]	@ float
 1263 0c98 6C049FE5 		ldr	r0, .L90+664
 1264 0c9c FEFFFFEB 		bl	memcpy
 1265 0ca0 68149FE5 		ldr	r1, .L90+668
 1266 0ca4 0E20A0E3 		mov	r2, #14
 1267 0ca8 90538BE5 		str	r5, [fp, #912]	@ float
 1268 0cac 6C638BE5 		str	r6, [fp, #876]	@ float
 1269 0cb0 70538BE5 		str	r5, [fp, #880]	@ float
 1270 0cb4 74538BE5 		str	r5, [fp, #884]	@ float
 1271 0cb8 78538BE5 		str	r5, [fp, #888]	@ float
 1272 0cbc 7C538BE5 		str	r5, [fp, #892]	@ float
 1273 0cc0 80538BE5 		str	r5, [fp, #896]	@ float
 1274 0cc4 84538BE5 		str	r5, [fp, #900]	@ float
 1275 0cc8 88538BE5 		str	r5, [fp, #904]	@ float
 1276 0ccc 8C538BE5 		str	r5, [fp, #908]	@ float
 1277 0cd0 3C049FE5 		ldr	r0, .L90+672
 1278 0cd4 3C449FE5 		ldr	r4, .L90+676
 1279 0cd8 FEFFFFEB 		bl	memcpy
 1280 0cdc 38149FE5 		ldr	r1, .L90+680
 1281 0ce0 0D20A0E3 		mov	r2, #13
 1282 0ce4 34049FE5 		ldr	r0, .L90+684
 1283 0ce8 FEFFFFEB 		bl	memcpy
 1284 0cec 30149FE5 		ldr	r1, .L90+688
 1285 0cf0 0820A0E3 		mov	r2, #8
 1286 0cf4 2C049FE5 		ldr	r0, .L90+692
 1287 0cf8 FEFFFFEB 		bl	memcpy
 1288 0cfc 0400A0E1 		mov	r0, r4
 1289 0d00 24149FE5 		ldr	r1, .L90+696
 1290 0d04 0D20A0E3 		mov	r2, #13
 1291 0d08 FEFFFFEB 		bl	memcpy
 1292 0d0c 0F0084E2 		add	r0, r4, #15
 1293 0d10 18149FE5 		ldr	r1, .L90+700
 1294 0d14 0820A0E3 		mov	r2, #8
 1295 0d18 FEFFFFEB 		bl	memcpy
 1296 0d1c 1E0084E2 		add	r0, r4, #30
 1297 0d20 0C149FE5 		ldr	r1, .L90+704
 1298 0d24 0820A0E3 		mov	r2, #8
 1299 0d28 FEFFFFEB 		bl	memcpy
 1300 0d2c 2D0084E2 		add	r0, r4, #45
 1301 0d30 00149FE5 		ldr	r1, .L90+708
 1302 0d34 0820A0E3 		mov	r2, #8
 1303 0d38 FEFFFFEB 		bl	memcpy
 1304 0d3c 3C0084E2 		add	r0, r4, #60
 1305 0d40 F4139FE5 		ldr	r1, .L90+712
 1306 0d44 0820A0E3 		mov	r2, #8
 1307 0d48 FEFFFFEB 		bl	memcpy
 1308 0d4c 4B0084E2 		add	r0, r4, #75
 1309 0d50 E8139FE5 		ldr	r1, .L90+716
 1310 0d54 0820A0E3 		mov	r2, #8
 1311 0d58 FEFFFFEB 		bl	memcpy
 1312 0d5c 5A0084E2 		add	r0, r4, #90
 1313 0d60 DC139FE5 		ldr	r1, .L90+720
 1314 0d64 0820A0E3 		mov	r2, #8
 1315 0d68 FEFFFFEB 		bl	memcpy
 1316 0d6c 420E44E2 		sub	r0, r4, #1056
 1317 0d70 D0139FE5 		ldr	r1, .L90+724
 1318 0d74 0B20A0E3 		mov	r2, #11
 1319 0d78 FA6504E5 		str	r6, [r4, #-1530]	@ float
 1320 0d7c 090040E2 		sub	r0, r0, #9
 1321 0d80 FEFFFFEB 		bl	memcpy
 1322 0d84 410E44E2 		sub	r0, r4, #1040
 1323 0d88 BC139FE5 		ldr	r1, .L90+728
 1324 0d8c 0D20A0E3 		mov	r2, #13
 1325 0d90 F65504E5 		str	r5, [r4, #-1526]	@ float
 1326 0d94 0A0040E2 		sub	r0, r0, #10
 1327 0d98 FEFFFFEB 		bl	memcpy
 1328 0d9c 010B44E2 		sub	r0, r4, #1024
 1329 0da0 A8139FE5 		ldr	r1, .L90+732
 1330 0da4 0F20A0E3 		mov	r2, #15
 1331 0da8 F25504E5 		str	r5, [r4, #-1522]	@ float
 1332 0dac 0B0040E2 		sub	r0, r0, #11
 1333 0db0 FEFFFFEB 		bl	memcpy
 1334 0db4 FF0F44E2 		sub	r0, r4, #1020
 1335 0db8 94139FE5 		ldr	r1, .L90+736
 1336 0dbc 0C20A0E3 		mov	r2, #12
 1337 0dc0 EE6504E5 		str	r6, [r4, #-1518]	@ float
 1338 0dc4 FEFFFFEB 		bl	memcpy
 1339 0dc8 FB0F44E2 		sub	r0, r4, #1004
 1340 0dcc 84139FE5 		ldr	r1, .L90+740
 1341 0dd0 0B20A0E3 		mov	r2, #11
 1342 0dd4 EA6504E5 		str	r6, [r4, #-1514]	@ float
 1343 0dd8 010040E2 		sub	r0, r0, #1
 1344 0ddc FEFFFFEB 		bl	memcpy
 1345 0de0 5A0044E2 		sub	r0, r4, #90
 1346 0de4 70139FE5 		ldr	r1, .L90+744
 1347 0de8 0C20A0E3 		mov	r2, #12
 1348 0dec F65404E5 		str	r5, [r4, #-1270]	@ float
 1349 0df0 FEFFFFEB 		bl	memcpy
 1350 0df4 4B0044E2 		sub	r0, r4, #75
 1351 0df8 60139FE5 		ldr	r1, .L90+748
 1352 0dfc 0F20A0E3 		mov	r2, #15
 1353 0e00 F2A404E5 		str	sl, [r4, #-1266]	@ float
 1354 0e04 FEFFFFEB 		bl	memcpy
 1355 0e08 F00084E2 		add	r0, r4, #240
 1356 0e0c 50139FE5 		ldr	r1, .L90+752
 1357 0e10 0920A0E3 		mov	r2, #9
 1358 0e14 FEFFFFEB 		bl	memcpy
 1359 0e18 450E44E2 		sub	r0, r4, #1104
 1360 0e1c 44139FE5 		ldr	r1, .L90+756
 1361 0e20 0E20A0E3 		mov	r2, #14
 1362 0e24 065604E5 		str	r5, [r4, #-1542]	@ float
 1363 0e28 9E5404E5 		str	r5, [r4, #-1182]	@ float
 1364 0e2c 060040E2 		sub	r0, r0, #6
 1365 0e30 FEFFFFEB 		bl	memcpy
 1366 0e34 A4FDFFEA 		b	.L87
 1367              	.L82:
 1368 0e38 0030A0E3 		mov	r3, #0
 1369 0e3c 50328BE5 		str	r3, [fp, #592]	@ float
 1370 0e40 FEFFFFEB 		bl	param_size_check
 1371 0e44 000050E3 		cmp	r0, #0
 1372 0e48 0600001A 		bne	.L89
 1373 0e4c 18039FE5 		ldr	r0, .L90+760
 1374 0e50 FEFFFFEB 		bl	debug_message_buffer
 1375 0e54 9CFDFFEA 		b	.L87
 1376              	.L83:
 1377 0e58 0030A0E3 		mov	r3, #0
 1378 0e5c 50328BE5 		str	r3, [fp, #592]	@ float
 1379 0e60 FEFFFFEB 		bl	eeprom_check_start
 1380 0e64 98FDFFEA 		b	.L87
 1381              	.L89:
 1382 0e68 00039FE5 		ldr	r0, .L90+764
 1383 0e6c FEFFFFEB 		bl	debug_message_buffer
 1384 0e70 95FDFFEA 		b	.L87
 1385              	.L91:
 1386              		.align	2
 1387              	.L90:
 1388 0e74 00000000 		.word	global_data
 1389 0e78 3C000000 		.word	.LC2
 1390 0e7c 5C000000 		.word	.LC3
 1391 0e80 80000000 		.word	.LC4
 1392 0e84 9C000000 		.word	.LC5
 1393 0e88 C4030000 		.word	global_data+964
 1394 0e8c A4000000 		.word	.LC6
 1395 0e90 D3030000 		.word	global_data+979
 1396 0e94 B0000000 		.word	.LC7
 1397 0e98 E2030000 		.word	global_data+994
 1398 0e9c BC000000 		.word	.LC8
 1399 0ea0 F1030000 		.word	global_data+1009
 1400 0ea4 C8000000 		.word	.LC9
 1401 0ea8 BF080000 		.word	global_data+2239
 1402 0eac D8000000 		.word	.LC10
 1403 0eb0 0F040000 		.word	global_data+1039
 1404 0eb4 E4000000 		.word	.LC11
 1405 0eb8 1E040000 		.word	global_data+1054
 1406 0ebc F0000000 		.word	.LC12
 1407 0ec0 CE080000 		.word	global_data+2254
 1408 0ec4 00010000 		.word	.LC13
 1409 0ec8 DD080000 		.word	global_data+2269
 1410 0ecc 10010000 		.word	.LC14
 1411 0ed0 EC080000 		.word	global_data+2284
 1412 0ed4 20010000 		.word	.LC15
 1413 0ed8 FB080000 		.word	global_data+2299
 1414 0edc 30010000 		.word	.LC16
 1415 0ee0 0A090000 		.word	global_data+2314
 1416 0ee4 40010000 		.word	.LC17
 1417 0ee8 19090000 		.word	global_data+2329
 1418 0eec 4C010000 		.word	.LC18
 1419 0ef0 28090000 		.word	global_data+2344
 1420 0ef4 5C010000 		.word	.LC19
 1421 0ef8 78040000 		.word	global_data+1144
 1422 0efc 6C010000 		.word	.LC20
 1423 0f00 37090000 		.word	global_data+2359
 1424 0f04 7C010000 		.word	.LC21
 1425 0f08 55090000 		.word	global_data+2389
 1426 0f0c 8C010000 		.word	.LC22
 1427 0f10 64090000 		.word	global_data+2404
 1428 0f14 94010000 		.word	.LC23
 1429 0f18 FE050000 		.word	global_data+1534
 1430 0f1c A4010000 		.word	.LC24
 1431 0f20 0D060000 		.word	global_data+1549
 1432 0f24 B0010000 		.word	.LC25
 1433 0f28 1C060000 		.word	global_data+1564
 1434 0f2c BC010000 		.word	.LC26
 1435 0f30 2B060000 		.word	global_data+1579
 1436 0f34 C8010000 		.word	.LC27
 1437 0f38 3A060000 		.word	global_data+1594
 1438 0f3c D4010000 		.word	.LC28
 1439 0f40 49060000 		.word	global_data+1609
 1440 0f44 E0010000 		.word	.LC29
 1441 0f48 58060000 		.word	global_data+1624
 1442 0f4c F0010000 		.word	.LC30
 1443 0f50 87040000 		.word	global_data+1159
 1444 0f54 FC010000 		.word	.LC31
 1445 0f58 96040000 		.word	global_data+1174
 1446 0f5c 08020000 		.word	.LC32
 1447 0f60 A5040000 		.word	global_data+1189
 1448 0f64 9A99993E 		.word	1050253722
 1449 0f68 14020000 		.word	.LC33
 1450 0f6c B4040000 		.word	global_data+1204
 1451 0f70 20020000 		.word	.LC34
 1452 0f74 C3040000 		.word	global_data+1219
 1453 0f78 2C020000 		.word	.LC35
 1454 0f7c 68050000 		.word	global_data+1384
 1455 0f80 CDCCCC3D 		.word	1036831949
 1456 0f84 3C020000 		.word	.LC36
 1457 0f88 77050000 		.word	global_data+1399
 1458 0f8c 4C020000 		.word	.LC37
 1459 0f90 86050000 		.word	global_data+1414
 1460 0f94 5C020000 		.word	.LC38
 1461 0f98 95050000 		.word	global_data+1429
 1462 0f9c 6C020000 		.word	.LC39
 1463 0fa0 A4050000 		.word	global_data+1444
 1464 0fa4 7C020000 		.word	.LC40
 1465 0fa8 B3050000 		.word	global_data+1459
 1466 0fac 8C020000 		.word	.LC41
 1467 0fb0 C2050000 		.word	global_data+1474
 1468 0fb4 9C020000 		.word	.LC42
 1469 0fb8 D1050000 		.word	global_data+1489
 1470 0fbc AC020000 		.word	.LC43
 1471 0fc0 E0050000 		.word	global_data+1504
 1472 0fc4 BC020000 		.word	.LC44
 1473 0fc8 EF050000 		.word	global_data+1519
 1474 0fcc CDCC4C3E 		.word	1045220557
 1475 0fd0 CC020000 		.word	.LC45
 1476 0fd4 D2040000 		.word	global_data+1234
 1477 0fd8 D8020000 		.word	.LC46
 1478 0fdc E1040000 		.word	global_data+1249
 1479 0fe0 E4020000 		.word	.LC47
 1480 0fe4 F0040000 		.word	global_data+1264
 1481 0fe8 F0020000 		.word	.LC48
 1482 0fec FF040000 		.word	global_data+1279
 1483 0ff0 FC020000 		.word	.LC49
 1484 0ff4 0E050000 		.word	global_data+1294
 1485 0ff8 08030000 		.word	.LC50
 1486 0ffc 1D050000 		.word	global_data+1309
 1487 1000 14030000 		.word	.LC51
 1488 1004 2C050000 		.word	global_data+1324
 1489 1008 20030000 		.word	.LC52
 1490 100c 3B050000 		.word	global_data+1339
 1491 1010 2C030000 		.word	.LC53
 1492 1014 4A050000 		.word	global_data+1354
 1493 1018 3C030000 		.word	.LC54
 1494 101c 59050000 		.word	global_data+1369
 1495 1020 4C030000 		.word	.LC55
 1496 1024 EE060000 		.word	global_data+1774
 1497 1028 58030000 		.word	.LC56
 1498 102c FD060000 		.word	global_data+1789
 1499 1030 64030000 		.word	.LC57
 1500 1034 0C070000 		.word	global_data+1804
 1501 1038 70030000 		.word	.LC58
 1502 103c 1B070000 		.word	global_data+1819
 1503 1040 7C030000 		.word	.LC59
 1504 1044 66070000 		.word	global_data+1894
 1505 1048 88030000 		.word	.LC60
 1506 104c 75070000 		.word	global_data+1909
 1507 1050 94030000 		.word	.LC61
 1508 1054 84070000 		.word	global_data+1924
 1509 1058 8F11F646 		.word	1190531471
 1510 105c BC8EE546 		.word	1189449404
 1511 1060 388EEB46 		.word	1189842488
 1512 1064 A0030000 		.word	.LC62
 1513 1068 2A070000 		.word	global_data+1834
 1514 106c B0030000 		.word	.LC63
 1515 1070 39070000 		.word	global_data+1849
 1516 1074 C0030000 		.word	.LC64
 1517 1078 48070000 		.word	global_data+1864
 1518 107c D0030000 		.word	.LC65
 1519 1080 57070000 		.word	global_data+1879
 1520 1084 E0030000 		.word	.LC66
 1521 1088 93070000 		.word	global_data+1939
 1522 108c F0030000 		.word	.LC67
 1523 1090 A2070000 		.word	global_data+1954
 1524 1094 FC030000 		.word	.LC68
 1525 1098 B1070000 		.word	global_data+1969
 1526 109c 08040000 		.word	.LC69
 1527 10a0 C0070000 		.word	global_data+1984
 1528 10a4 14040000 		.word	.LC70
 1529 10a8 CF070000 		.word	global_data+1999
 1530 10ac 24040000 		.word	.LC71
 1531 10b0 DE070000 		.word	global_data+2014
 1532 10b4 34040000 		.word	.LC72
 1533 10b8 ED070000 		.word	global_data+2029
 1534 10bc 44040000 		.word	.LC73
 1535 10c0 94060000 		.word	global_data+1684
 1536 10c4 54040000 		.word	.LC74
 1537 10c8 A3060000 		.word	global_data+1699
 1538 10cc 64040000 		.word	.LC75
 1539 10d0 B2060000 		.word	global_data+1714
 1540 10d4 3333733F 		.word	1064514355
 1541 10d8 74040000 		.word	.LC76
 1542 10dc C1060000 		.word	global_data+1729
 1543 10e0 80040000 		.word	.LC77
 1544 10e4 D0060000 		.word	global_data+1744
 1545 10e8 90040000 		.word	.LC78
 1546 10ec DF060000 		.word	global_data+1759
 1547 10f0 A0040000 		.word	.LC79
 1548 10f4 67060000 		.word	global_data+1639
 1549 10f8 B0040000 		.word	.LC80
 1550 10fc 76060000 		.word	global_data+1654
 1551 1100 C0040000 		.word	.LC81
 1552 1104 85060000 		.word	global_data+1669
 1553 1108 D0040000 		.word	.LC82
 1554 110c 1A080000 		.word	global_data+2074
 1555 1110 E0040000 		.word	.LC83
 1556 1114 29080000 		.word	global_data+2089
 1557 1118 56080000 		.word	global_data+2134
 1558 111c F0040000 		.word	.LC84
 1559 1120 38080000 		.word	global_data+2104
 1560 1124 00050000 		.word	.LC85
 1561 1128 47080000 		.word	global_data+2119
 1562 112c 08050000 		.word	.LC86
 1563 1130 18050000 		.word	.LC87
 1564 1134 20050000 		.word	.LC88
 1565 1138 28050000 		.word	.LC89
 1566 113c 30050000 		.word	.LC90
 1567 1140 38050000 		.word	.LC91
 1568 1144 40050000 		.word	.LC92
 1569 1148 48050000 		.word	.LC93
 1570 114c 54050000 		.word	.LC94
 1571 1150 64050000 		.word	.LC95
 1572 1154 74050000 		.word	.LC96
 1573 1158 80050000 		.word	.LC97
 1574 115c 8C050000 		.word	.LC98
 1575 1160 98050000 		.word	.LC99
 1576 1164 A8050000 		.word	.LC100
 1577 1168 B4050000 		.word	.LC101
 1578 116c D0050000 		.word	.LC103
 1579 1170 C4050000 		.word	.LC102
 1581              		.global	__eqsf2
 1582              		.section	.rodata.str1.4
 1583              		.align	2
 1584              	.LC104:
 1585 05dc 52455345 		.ascii	"RESET command received\000"
 1585      5420636F 
 1585      6D6D616E 
 1585      64207265 
 1585      63656976 
 1586 05f3 00       		.align	2
 1587              	.LC105:
 1588 05f4 52455345 		.ascii	"RESET count down: %u\000"
 1588      5420636F 
 1588      756E7420 
 1588      646F776E 
 1588      3A202575 
 1589 0609 000000   		.align	2
 1590              	.LC106:
 1591 060c 52455345 		.ascii	"RESET command REFUSED (I'm flying!)\000"
 1591      5420636F 
 1591      6D6D616E 
 1591      64205245 
 1591      46555345 
 1592              		.text
 1593              		.align	2
 1594              		.global	handle_reset_request
 1596              	handle_reset_request:
 1597              		@ Function supports interworking.
 1598              		@ args = 0, pretend = 0, frame = 0
 1599              		@ frame_needed = 0, uses_anonymous_args = 0
 1600 1174 30402DE9 		stmfd	sp!, {r4, r5, lr}
 1601 1178 94409FE5 		ldr	r4, .L106
 1602 117c FE15A0E3 		mov	r1, #1065353216
 1603 1180 500294E5 		ldr	r0, [r4, #592]	@ float
 1604 1184 FEFFFFEB 		bl	__eqsf2
 1605 1188 000050E3 		cmp	r0, #0
 1606 118c 0A00001A 		bne	.L93
 1607 1190 583194E5 		ldr	r3, [r4, #344]
 1608 1194 030053E3 		cmp	r3, #3
 1609 1198 78509FE5 		ldr	r5, .L106+4
 1610 119c 78009FE5 		ldr	r0, .L106+8
 1611 11a0 0800000A 		beq	.L103
 1612 11a4 6C209FE5 		ldr	r2, .L106+4
 1613 11a8 0030A0E3 		mov	r3, #0
 1614 11ac 0010A0E3 		mov	r1, #0
 1615 11b0 003082E5 		str	r3, [r2, #0]
 1616 11b4 501284E5 		str	r1, [r4, #592]	@ float
 1617 11b8 FEFFFFEB 		bl	debug_message_buffer
 1618              	.L93:
 1619 11bc 0000A0E3 		mov	r0, #0
 1620 11c0 3040BDE8 		ldmfd	sp!, {r4, r5, lr}
 1621 11c4 1EFF2FE1 		bx	lr
 1622              	.L103:
 1623 11c8 003095E5 		ldr	r3, [r5, #0]
 1624 11cc 000053E3 		cmp	r3, #0
 1625 11d0 48009FE5 		ldr	r0, .L106+12
 1626 11d4 0800000A 		beq	.L104
 1627 11d8 010053E3 		cmp	r3, #1
 1628 11dc 0A00000A 		beq	.L105
 1629              	.L100:
 1630 11e0 003095E5 		ldr	r3, [r5, #0]
 1631 11e4 013043E2 		sub	r3, r3, #1
 1632 11e8 0310A0E1 		mov	r1, r3
 1633 11ec 30009FE5 		ldr	r0, .L106+16
 1634 11f0 003085E5 		str	r3, [r5, #0]
 1635 11f4 FEFFFFEB 		bl	debug_message_buffer_sprintf
 1636 11f8 EFFFFFEA 		b	.L93
 1637              	.L104:
 1638 11fc FEFFFFEB 		bl	debug_message_buffer
 1639 1200 0730A0E3 		mov	r3, #7
 1640 1204 003085E5 		str	r3, [r5, #0]
 1641 1208 F4FFFFEA 		b	.L100
 1642              	.L105:
 1643 120c FEFFFFEB 		bl	watchdog_wait_reset
 1644 1210 F2FFFFEA 		b	.L100
 1645              	.L107:
 1646              		.align	2
 1647              	.L106:
 1648 1214 00000000 		.word	global_data
 1649 1218 68000000 		.word	reset_countdown.20948
 1650 121c 0C060000 		.word	.LC106
 1651 1220 DC050000 		.word	.LC104
 1652 1224 F4050000 		.word	.LC105
 1654              		.section	.rodata.str1.4
 1655              		.align	2
 1656              	.LC107:
 1657 0630 6174745F 		.ascii	"att_s_pos\000"
 1657      735F706F 
 1657      7300
 1658 063a 0000     		.align	2
 1659              	.LC108:
 1660 063c 6174745F 		.ascii	"att_s_rm\000"
 1660      735F726D 
 1660      00
 1661 0645 000000   		.align	2
 1662              	.LC109:
 1663 0648 6174745F 		.ascii	"att_s_off\000"
 1663      735F6F66 
 1663      6600
 1664 0652 0000     		.align	2
 1665              	.LC110:
 1666 0654 6174745F 		.ascii	"att_s\000"
 1666      7300
 1667 065a 0000     		.align	2
 1668              	.LC111:
 1669 065c 706F7300 		.ascii	"pos\000"
 1670              		.align	2
 1671              	.LC112:
 1672 0660 706F735F 		.ascii	"pos_sp\000"
 1672      737000
 1673 0667 00       		.align	2
 1674              	.LC113:
 1675 0668 696E745F 		.ascii	"int_att\000"
 1675      61747400 
 1676              		.align	2
 1677              	.LC114:
 1678 0670 696E745F 		.ascii	"int_pos\000"
 1678      706F7300 
 1679              		.align	2
 1680              	.LC115:
 1681 0678 696E745F 		.ascii	"int_yawp\000"
 1681      79617770 
 1681      00
 1682 0681 000000   		.text
 1683              		.align	2
 1684              		.global	communication_send_controller_feedback
 1686              	communication_send_controller_feedback:
 1687              		@ Function supports interworking.
 1688              		@ args = 0, pretend = 0, frame = 36
 1689              		@ frame_needed = 0, uses_anonymous_args = 0
 1690 1228 F0402DE9 		stmfd	sp!, {r4, r5, r6, r7, lr}
 1691 122c 40419FE5 		ldr	r4, .L121
 1692 1230 FE15A0E3 		mov	r1, #1065353216
 1693 1234 24D04DE2 		sub	sp, sp, #36
 1694 1238 780394E5 		ldr	r0, [r4, #888]	@ float
 1695 123c FEFFFFEB 		bl	__eqsf2
 1696 1240 000050E3 		cmp	r0, #0
 1697 1244 D41084E2 		add	r1, r4, #212
 1698 1248 28019FE5 		ldr	r0, .L121+4
 1699 124c 3900000A 		beq	.L119
 1700              	.L109:
 1701 1250 FE15A0E3 		mov	r1, #1065353216
 1702 1254 8C0394E5 		ldr	r0, [r4, #908]	@ float
 1703 1258 FEFFFFEB 		bl	__eqsf2
 1704 125c 000050E3 		cmp	r0, #0
 1705 1260 741084E2 		add	r1, r4, #116
 1706 1264 10019FE5 		ldr	r0, .L121+8
 1707 1268 2B00000A 		beq	.L120
 1708              	.L112:
 1709 126c 800394E5 		ldr	r0, [r4, #896]	@ float
 1710 1270 FE15A0E3 		mov	r1, #1065353216
 1711 1274 FEFFFFEB 		bl	__eqsf2
 1712 1278 000050E3 		cmp	r0, #0
 1713 127c 0070A0E3 		mov	r7, #0
 1714 1280 0D60A0E1 		mov	r6, sp
 1715 1284 F4009FE5 		ldr	r0, .L121+12
 1716 1288 2000001A 		bne	.L118
 1717 128c F0309FE5 		ldr	r3, .L121+16
 1718 1290 F0209FE5 		ldr	r2, .L121+20
 1719 1294 14C093E5 		ldr	ip, [r3, #20]	@ float
 1720 1298 EC309FE5 		ldr	r3, .L121+24
 1721 129c 141092E5 		ldr	r1, [r2, #20]	@ float
 1722 12a0 142093E5 		ldr	r2, [r3, #20]	@ float
 1723 12a4 E4309FE5 		ldr	r3, .L121+28
 1724 12a8 08208DE5 		str	r2, [sp, #8]	@ float
 1725 12ac E0209FE5 		ldr	r2, .L121+32
 1726 12b0 145093E5 		ldr	r5, [r3, #20]	@ float
 1727 12b4 144092E5 		ldr	r4, [r2, #20]	@ float
 1728 12b8 D8309FE5 		ldr	r3, .L121+36
 1729 12bc D8209FE5 		ldr	r2, .L121+40
 1730 12c0 00C08DE5 		str	ip, [sp, #0]	@ float
 1731 12c4 04108DE5 		str	r1, [sp, #4]	@ float
 1732 12c8 14E093E5 		ldr	lr, [r3, #20]	@ float
 1733 12cc 14C092E5 		ldr	ip, [r2, #20]	@ float
 1734 12d0 0E009DE8 		ldmia	sp, {r1, r2, r3}
 1735 12d4 20E08DE5 		str	lr, [sp, #32]	@ float
 1736 12d8 0CC08DE5 		str	ip, [sp, #12]	@ float
 1737 12dc 18508DE5 		str	r5, [sp, #24]	@ float
 1738 12e0 1C408DE5 		str	r4, [sp, #28]	@ float
 1739 12e4 14708DE5 		str	r7, [sp, #20]	@ float
 1740 12e8 10708DE5 		str	r7, [sp, #16]	@ float
 1741 12ec FEFFFFEB 		bl	debug_vect
 1742 12f0 18C08DE2 		add	ip, sp, #24
 1743 12f4 0E009CE8 		ldmia	ip, {r1, r2, r3}
 1744 12f8 A0009FE5 		ldr	r0, .L121+44
 1745 12fc FEFFFFEB 		bl	debug_vect
 1746 1300 0CC08DE2 		add	ip, sp, #12
 1747 1304 98009FE5 		ldr	r0, .L121+48
 1748 1308 0E009CE8 		ldmia	ip, {r1, r2, r3}
 1749 130c FEFFFFEB 		bl	debug_vect
 1750              	.L118:
 1751 1310 24D08DE2 		add	sp, sp, #36
 1752 1314 F040BDE8 		ldmfd	sp!, {r4, r5, r6, r7, lr}
 1753 1318 1EFF2FE1 		bx	lr
 1754              	.L120:
 1755 131c 0E0091E8 		ldmia	r1, {r1, r2, r3}
 1756 1320 FEFFFFEB 		bl	debug_vect
 1757 1324 80C084E2 		add	ip, r4, #128
 1758 1328 78009FE5 		ldr	r0, .L121+52
 1759 132c 0E009CE8 		ldmia	ip, {r1, r2, r3}
 1760 1330 FEFFFFEB 		bl	debug_vect
 1761 1334 CCFFFFEA 		b	.L112
 1762              	.L119:
 1763 1338 0E0091E8 		ldmia	r1, {r1, r2, r3}
 1764 133c FEFFFFEB 		bl	debug_vect
 1765 1340 F8C084E2 		add	ip, r4, #248
 1766 1344 0E009CE8 		ldmia	ip, {r1, r2, r3}
 1767 1348 5C009FE5 		ldr	r0, .L121+56
 1768 134c FEFFFFEB 		bl	debug_vect
 1769 1350 41CF84E2 		add	ip, r4, #260
 1770 1354 0E009CE8 		ldmia	ip, {r1, r2, r3}
 1771 1358 50009FE5 		ldr	r0, .L121+60
 1772 135c FEFFFFEB 		bl	debug_vect
 1773 1360 11CE84E2 		add	ip, r4, #272
 1774 1364 48009FE5 		ldr	r0, .L121+64
 1775 1368 0E009CE8 		ldmia	ip, {r1, r2, r3}
 1776 136c FEFFFFEB 		bl	debug_vect
 1777 1370 B6FFFFEA 		b	.L109
 1778              	.L122:
 1779              		.align	2
 1780              	.L121:
 1781 1374 00000000 		.word	global_data
 1782 1378 30060000 		.word	.LC107
 1783 137c 5C060000 		.word	.LC111
 1784 1380 68060000 		.word	.LC113
 1785 1384 00000000 		.word	roll_controller
 1786 1388 00000000 		.word	nick_controller
 1787 138c 00000000 		.word	yaw_speed_controller
 1788 1390 00000000 		.word	x_axis_controller
 1789 1394 00000000 		.word	y_axis_controller
 1790 1398 00000000 		.word	z_axis_controller
 1791 139c 00000000 		.word	yaw_pos_controller
 1792 13a0 70060000 		.word	.LC114
 1793 13a4 78060000 		.word	.LC115
 1794 13a8 60060000 		.word	.LC112
 1795 13ac 3C060000 		.word	.LC108
 1796 13b0 48060000 		.word	.LC109
 1797 13b4 54060000 		.word	.LC110
 1799              		.align	2
 1800              		.global	position_integrate
 1802              	position_integrate:
 1803              		@ Function supports interworking.
 1804              		@ args = 0, pretend = 0, frame = 12
 1805              		@ frame_needed = 0, uses_anonymous_args = 0
 1806 13b8 04E02DE5 		str	lr, [sp, #-4]!
 1807 13bc 0CD04DE2 		sub	sp, sp, #12
 1808 13c0 0010A0E1 		mov	r1, r0
 1809 13c4 0D20A0E1 		mov	r2, sp
 1810 13c8 0300A0E1 		mov	r0, r3
 1811 13cc FEFFFFEB 		bl	body2navi
 1812 13d0 0CD08DE2 		add	sp, sp, #12
 1813 13d4 04E09DE4 		ldr	lr, [sp], #4
 1814 13d8 1EFF2FE1 		bx	lr
 1816              		.align	2
 1817              		.global	rc_to_255
 1819              	rc_to_255:
 1820              		@ Function supports interworking.
 1821              		@ args = 0, pretend = 0, frame = 0
 1822              		@ frame_needed = 0, uses_anonymous_args = 0
 1823 13dc 10402DE9 		stmfd	sp!, {r4, lr}
 1824 13e0 0040A0E1 		mov	r4, r0
 1825 13e4 FEFFFFEB 		bl	ppm_get_channel
 1826 13e8 7B3EA0E3 		mov	r3, #1968
 1827 13ec 013083E2 		add	r3, r3, #1
 1828 13f0 030050E1 		cmp	r0, r3
 1829 13f4 0400A0E1 		mov	r0, r4
 1830 13f8 0A0000DA 		ble	.L133
 1831 13fc 0400A0E1 		mov	r0, r4
 1832 1400 FEFFFFEB 		bl	ppm_get_channel
 1833 1404 7B3EA0E3 		mov	r3, #1968
 1834 1408 013083E2 		add	r3, r3, #1
 1835 140c 030050E1 		cmp	r0, r3
 1836 1410 0400A0E1 		mov	r0, r4
 1837 1414 7F30A0E3 		mov	r3, #127
 1838 1418 1D0000DA 		ble	.L134
 1839              	.L129:
 1840 141c 0300A0E1 		mov	r0, r3
 1841 1420 1040BDE8 		ldmfd	sp!, {r4, lr}
 1842 1424 1EFF2FE1 		bx	lr
 1843              	.L133:
 1844 1428 FEFFFFEB 		bl	ppm_get_channel
 1845 142c 5D0E40E2 		sub	r0, r0, #1488
 1846 1430 0C0040E2 		sub	r0, r0, #12
 1847 1434 FEFFFFEB 		bl	__floatsisf
 1848 1438 4314A0E3 		mov	r1, #1124073472
 1849 143c FA1881E2 		add	r1, r1, #16384000
 1850 1440 FEFFFFEB 		bl	__divsf3
 1851 1444 FE15A0E3 		mov	r1, #1065353216
 1852 1448 FEFFFFEB 		bl	__addsf3
 1853 144c 3F14A0E3 		mov	r1, #1056964608
 1854 1450 FEFFFFEB 		bl	__mulsf3
 1855 1454 4314A0E3 		mov	r1, #1124073472
 1856 1458 7F1881E2 		add	r1, r1, #8323072
 1857 145c FEFFFFEB 		bl	__mulsf3
 1858 1460 0010A0E3 		mov	r1, #0
 1859 1464 FEFFFFEB 		bl	__gtsf2
 1860 1468 000050E3 		cmp	r0, #0
 1861 146c 0030A0E3 		mov	r3, #0
 1862 1470 E9FFFFDA 		ble	.L129
 1863 1474 0400A0E1 		mov	r0, r4
 1864 1478 FEFFFFEB 		bl	ppm_get_channel
 1865 147c 7B3EA0E3 		mov	r3, #1968
 1866 1480 013083E2 		add	r3, r3, #1
 1867 1484 030050E1 		cmp	r0, r3
 1868 1488 0400A0E1 		mov	r0, r4
 1869 148c 7F30A0E3 		mov	r3, #127
 1870 1490 E1FFFFCA 		bgt	.L129
 1871              	.L134:
 1872 1494 FEFFFFEB 		bl	ppm_get_channel
 1873 1498 5D0E40E2 		sub	r0, r0, #1488
 1874 149c 0C0040E2 		sub	r0, r0, #12
 1875 14a0 FEFFFFEB 		bl	__floatsisf
 1876 14a4 4314A0E3 		mov	r1, #1124073472
 1877 14a8 FA1881E2 		add	r1, r1, #16384000
 1878 14ac FEFFFFEB 		bl	__divsf3
 1879 14b0 FE15A0E3 		mov	r1, #1065353216
 1880 14b4 FEFFFFEB 		bl	__addsf3
 1881 14b8 3F14A0E3 		mov	r1, #1056964608
 1882 14bc FEFFFFEB 		bl	__mulsf3
 1883 14c0 4314A0E3 		mov	r1, #1124073472
 1884 14c4 7F1881E2 		add	r1, r1, #8323072
 1885 14c8 FEFFFFEB 		bl	__mulsf3
 1886 14cc FEFFFFEB 		bl	__fixunssfsi
 1887 14d0 FF3000E2 		and	r3, r0, #255
 1888 14d4 D0FFFFEA 		b	.L129
 1890              		.align	2
 1891              		.global	communication_send_raw_data
 1893              	communication_send_raw_data:
 1894              		@ Function supports interworking.
 1895              		@ args = 0, pretend = 0, frame = 372
 1896              		@ frame_needed = 0, uses_anonymous_args = 0
 1897 14d8 F04F2DE9 		stmfd	sp!, {r4, r5, r6, r7, r8, r9, sl, fp, lr}
 1898 14dc 78439FE5 		ldr	r4, .L149
 1899 14e0 5DDF4DE2 		sub	sp, sp, #372
 1900 14e4 0050A0E1 		mov	r5, r0
 1901 14e8 0160A0E1 		mov	r6, r1
 1902 14ec 700394E5 		ldr	r0, [r4, #880]	@ float
 1903 14f0 FE15A0E3 		mov	r1, #1065353216
 1904 14f4 FEFFFFEB 		bl	__eqsf2
 1905 14f8 000050E3 		cmp	r0, #0
 1906 14fc 0200000A 		beq	.L148
 1907              	.L144:
 1908 1500 5DDF8DE2 		add	sp, sp, #372
 1909 1504 F04FBDE8 		ldmfd	sp!, {r4, r5, r6, r7, r8, r9, sl, fp, lr}
 1910 1508 1EFF2FE1 		bx	lr
 1911              	.L148:
 1912 150c 680394E5 		ldr	r0, [r4, #872]	@ float
 1913 1510 FEFFFFEB 		bl	__fixunssfsi
 1914 1514 00B0A0E1 		mov	fp, r0
 1915 1518 FEFFFFEB 		bl	sys_time_clock_get_unix_offset
 1916 151c B071D4E1 		ldrh	r7, [r4, #16]
 1917 1520 BA21D4E1 		ldrh	r2, [r4, #26]
 1918 1524 0778A0E1 		mov	r7, r7, asl #16
 1919 1528 1C708DE5 		str	r7, [sp, #28]
 1920 152c 0228A0E1 		mov	r2, r2, asl #16
 1921 1530 057090E0 		adds	r7, r0, r5
 1922 1534 B402D4E1 		ldrh	r0, [r4, #36]
 1923 1538 2C208DE5 		str	r2, [sp, #44]
 1924 153c B481D4E1 		ldrh	r8, [r4, #20]
 1925 1540 64008DE5 		str	r0, [sp, #100]
 1926 1544 2C009DE5 		ldr	r0, [sp, #44]
 1927 1548 0888A0E1 		mov	r8, r8, asl #16
 1928 154c 0C808DE5 		str	r8, [sp, #12]
 1929 1550 08239FE5 		ldr	r2, .L149+4
 1930 1554 200CA0E1 		mov	r0, r0, lsr #24
 1931 1558 FF300BE2 		and	r3, fp, #255
 1932 155c 28008DE5 		str	r0, [sp, #40]
 1933 1560 033183E0 		add	r3, r3, r3, asl #2
 1934 1564 0C009DE5 		ldr	r0, [sp, #12]
 1935 1568 B8E1D4E1 		ldrh	lr, [r4, #24]
 1936 156c 033182E0 		add	r3, r2, r3, asl #2
 1937 1570 0680A1E0 		adc	r8, r1, r6
 1938 1574 BCC1D4E1 		ldrh	ip, [r4, #28]
 1939 1578 B291D4E1 		ldrh	r9, [r4, #18]
 1940 157c 68308DE5 		str	r3, [sp, #104]
 1941 1580 200CA0E1 		mov	r0, r0, lsr #24
 1942 1584 0030A0E3 		mov	r3, #0
 1943 1588 B0A2D4E1 		ldrh	sl, [r4, #32]
 1944 158c 0EE8A0E1 		mov	lr, lr, asl #16
 1945 1590 48308DE5 		str	r3, [sp, #72]
 1946 1594 08008DE5 		str	r0, [sp, #8]
 1947 1598 1C309DE5 		ldr	r3, [sp, #28]
 1948 159c 2804A0E1 		mov	r0, r8, lsr #8
 1949 15a0 0CC8A0E1 		mov	ip, ip, asl #16
 1950 15a4 0998A0E1 		mov	r9, r9, asl #16
 1951 15a8 2E6CA0E1 		mov	r6, lr, lsr #24
 1952 15ac 282CA0E1 		mov	r2, r8, lsr #24
 1953 15b0 34008DE5 		str	r0, [sp, #52]
 1954 15b4 2C009DE5 		ldr	r0, [sp, #44]
 1955 15b8 0AA8A0E1 		mov	sl, sl, asl #16
 1956 15bc 44208DE5 		str	r2, [sp, #68]
 1957 15c0 30608DE5 		str	r6, [sp, #48]
 1958 15c4 2C2CA0E1 		mov	r2, ip, lsr #24
 1959 15c8 296CA0E1 		mov	r6, r9, lsr #24
 1960 15cc 233CA0E1 		mov	r3, r3, lsr #24
 1961 15d0 20208DE5 		str	r2, [sp, #32]
 1962 15d4 18308DE5 		str	r3, [sp, #24]
 1963 15d8 2A2CA0E1 		mov	r2, sl, lsr #24
 1964 15dc 10608DE5 		str	r6, [sp, #16]
 1965 15e0 2838A0E1 		mov	r3, r8, lsr #16
 1966 15e4 0060A0E3 		mov	r6, #0
 1967 15e8 2008A0E1 		mov	r0, r0, lsr #16
 1968 15ec 24C08DE5 		str	ip, [sp, #36]
 1969 15f0 14908DE5 		str	r9, [sp, #20]
 1970 15f4 B2C2D4E1 		ldrh	ip, [r4, #34]
 1971 15f8 04048DE8 		stmia	sp, {r2, sl}	@ phole stm
 1972 15fc 3C308DE5 		str	r3, [sp, #60]
 1973 1600 40608DE5 		str	r6, [sp, #64]
 1974 1604 38608DE5 		str	r6, [sp, #56]
 1975 1608 60008DE5 		str	r0, [sp, #96]
 1976 160c 24009DE5 		ldr	r0, [sp, #36]
 1977 1610 2008A0E1 		mov	r0, r0, lsr #16
 1978 1614 5C008DE5 		str	r0, [sp, #92]
 1979 1618 1C009DE5 		ldr	r0, [sp, #28]
 1980 161c 2008A0E1 		mov	r0, r0, lsr #16
 1981 1620 58008DE5 		str	r0, [sp, #88]
 1982 1624 14009DE5 		ldr	r0, [sp, #20]
 1983 1628 2008A0E1 		mov	r0, r0, lsr #16
 1984 162c 54008DE5 		str	r0, [sp, #84]
 1985 1630 0C009DE5 		ldr	r0, [sp, #12]
 1986 1634 2008A0E1 		mov	r0, r0, lsr #16
 1987 1638 50008DE5 		str	r0, [sp, #80]
 1988 163c 04009DE5 		ldr	r0, [sp, #4]
 1989 1640 2008A0E1 		mov	r0, r0, lsr #16
 1990 1644 4C008DE5 		str	r0, [sp, #76]
 1991 1648 1C00A0E3 		mov	r0, #28
 1992 164c 7000CDE5 		strb	r0, [sp, #112]
 1993 1650 4400DDE5 		ldrb	r0, [sp, #68]	@ zero_extendqisi2
 1994 1654 2734A0E1 		mov	r3, r7, lsr #8
 1995 1658 7100CDE5 		strb	r0, [sp, #113]
 1996 165c 3C00DDE5 		ldrb	r0, [sp, #60]	@ zero_extendqisi2
 1997 1660 083C83E1 		orr	r3, r3, r8, asl #24
 1998 1664 30209DE5 		ldr	r2, [sp, #48]
 1999 1668 7200CDE5 		strb	r0, [sp, #114]
 2000 166c 7730CDE5 		strb	r3, [sp, #119]
 2001 1670 3400DDE5 		ldrb	r0, [sp, #52]	@ zero_extendqisi2
 2002 1674 28309DE5 		ldr	r3, [sp, #40]
 2003 1678 06A0A0E1 		mov	sl, r6
 2004 167c 7300CDE5 		strb	r0, [sp, #115]
 2005 1680 60609DE5 		ldr	r6, [sp, #96]
 2006 1684 20009DE5 		ldr	r0, [sp, #32]
 2007 1688 7920CDE5 		strb	r2, [sp, #121]
 2008 168c 7B30CDE5 		strb	r3, [sp, #123]
 2009 1690 5C209DE5 		ldr	r2, [sp, #92]
 2010 1694 18309DE5 		ldr	r3, [sp, #24]
 2011 1698 275CA0E1 		mov	r5, r7, lsr #24
 2012 169c 2718A0E1 		mov	r1, r7, lsr #16
 2013 16a0 085485E1 		orr	r5, r5, r8, asl #8
 2014 16a4 081881E1 		orr	r1, r1, r8, asl #16
 2015 16a8 2EE8A0E1 		mov	lr, lr, lsr #16
 2016 16ac 7550CDE5 		strb	r5, [sp, #117]
 2017 16b0 7610CDE5 		strb	r1, [sp, #118]
 2018 16b4 7AE0CDE5 		strb	lr, [sp, #122]
 2019 16b8 7C60CDE5 		strb	r6, [sp, #124]
 2020 16bc 7D00CDE5 		strb	r0, [sp, #125]
 2021 16c0 7E20CDE5 		strb	r2, [sp, #126]
 2022 16c4 7480CDE5 		strb	r8, [sp, #116]
 2023 16c8 7870CDE5 		strb	r7, [sp, #120]
 2024 16cc 7F30CDE5 		strb	r3, [sp, #127]
 2025 16d0 58609DE5 		ldr	r6, [sp, #88]
 2026 16d4 10009DE5 		ldr	r0, [sp, #16]
 2027 16d8 08309DE5 		ldr	r3, [sp, #8]
 2028 16dc 8060CDE5 		strb	r6, [sp, #128]
 2029 16e0 8100CDE5 		strb	r0, [sp, #129]
 2030 16e4 54209DE5 		ldr	r2, [sp, #84]
 2031 16e8 8330CDE5 		strb	r3, [sp, #131]
 2032 16ec 50609DE5 		ldr	r6, [sp, #80]
 2033 16f0 00009DE5 		ldr	r0, [sp, #0]
 2034 16f4 4C309DE5 		ldr	r3, [sp, #76]
 2035 16f8 8220CDE5 		strb	r2, [sp, #130]
 2036 16fc 8460CDE5 		strb	r6, [sp, #132]
 2037 1700 5C219FE5 		ldr	r2, .L149+8
 2038 1704 8630CDE5 		strb	r3, [sp, #134]
 2039 1708 8500CDE5 		strb	r0, [sp, #133]
 2040 170c 68609DE5 		ldr	r6, [sp, #104]
 2041 1710 0140D2E5 		ldrb	r4, [r2, #1]	@ zero_extendqisi2
 2042 1714 0E00D6E5 		ldrb	r0, [r6, #14]	@ zero_extendqisi2
 2043 1718 00E0D2E5 		ldrb	lr, [r2, #0]	@ zero_extendqisi2
 2044 171c 64209DE5 		ldr	r2, [sp, #100]
 2045 1720 013080E2 		add	r3, r0, #1
 2046 1724 0258A0E1 		mov	r5, r2, asl #16
 2047 1728 0CC8A0E1 		mov	ip, ip, asl #16
 2048 172c 0E30C6E5 		strb	r3, [r6, #14]
 2049 1730 251CA0E1 		mov	r1, r5, lsr #24
 2050 1734 2C2CA0E1 		mov	r2, ip, lsr #24
 2051 1738 2558A0E1 		mov	r5, r5, lsr #16
 2052 173c 2CC8A0E1 		mov	ip, ip, lsr #16
 2053 1740 1A30A0E3 		mov	r3, #26
 2054 1744 88C0CDE5 		strb	ip, [sp, #136]
 2055 1748 8720CDE5 		strb	r2, [sp, #135]
 2056 174c 01C8A0E3 		mov	ip, #65536
 2057 1750 8A50CDE5 		strb	r5, [sp, #138]
 2058 1754 6C30CDE5 		strb	r3, [sp, #108]
 2059 1758 6EE0CDE5 		strb	lr, [sp, #110]
 2060 175c 6F40CDE5 		strb	r4, [sp, #111]
 2061 1760 8910CDE5 		strb	r1, [sp, #137]
 2062 1764 6D00CDE5 		strb	r0, [sp, #109]
 2063 1768 0890A0E1 		mov	r9, r8
 2064 176c 01C04CE2 		sub	ip, ip, #1
 2065 1770 6C008DE2 		add	r0, sp, #108
 2066 1774 0A10A0E1 		mov	r1, sl
 2067              	.L139:
 2068 1778 0030D1E7 		ldrb	r3, [r1, r0]	@ zero_extendqisi2
 2069 177c 0C3023E0 		eor	r3, r3, ip
 2070 1780 FF3003E2 		and	r3, r3, #255
 2071 1784 033223E0 		eor	r3, r3, r3, asl #4
 2072 1788 FF3003E2 		and	r3, r3, #255
 2073 178c 0324A0E1 		mov	r2, r3, asl #8
 2074 1790 2C2482E1 		orr	r2, r2, ip, lsr #8
 2075 1794 232222E0 		eor	r2, r2, r3, lsr #4
 2076 1798 832122E0 		eor	r2, r2, r3, asl #3
 2077 179c 011081E2 		add	r1, r1, #1
 2078 17a0 0228A0E1 		mov	r2, r2, asl #16
 2079 17a4 1F0051E3 		cmp	r1, #31
 2080 17a8 22C8A0E1 		mov	ip, r2, lsr #16
 2081 17ac F1FFFF1A 		bne	.L139
 2082 17b0 2C34A0E1 		mov	r3, ip, lsr #8
 2083 17b4 361081E2 		add	r1, r1, #54
 2084 17b8 0B00A0E1 		mov	r0, fp
 2085 17bc 7131CDE5 		strb	r3, [sp, #369]
 2086 17c0 70C1CDE5 		strb	ip, [sp, #368]
 2087 17c4 FEFFFFEB 		bl	comm_send_ch
 2088 17c8 0B00A0E1 		mov	r0, fp
 2089 17cc 6C10DDE5 		ldrb	r1, [sp, #108]	@ zero_extendqisi2
 2090 17d0 FEFFFFEB 		bl	comm_send_ch
 2091 17d4 0B00A0E1 		mov	r0, fp
 2092 17d8 6D10DDE5 		ldrb	r1, [sp, #109]	@ zero_extendqisi2
 2093 17dc FEFFFFEB 		bl	comm_send_ch
 2094 17e0 0B00A0E1 		mov	r0, fp
 2095 17e4 6E10DDE5 		ldrb	r1, [sp, #110]	@ zero_extendqisi2
 2096 17e8 FEFFFFEB 		bl	comm_send_ch
 2097 17ec 0B00A0E1 		mov	r0, fp
 2098 17f0 6F10DDE5 		ldrb	r1, [sp, #111]	@ zero_extendqisi2
 2099 17f4 FEFFFFEB 		bl	comm_send_ch
 2100 17f8 0B00A0E1 		mov	r0, fp
 2101 17fc 7010DDE5 		ldrb	r1, [sp, #112]	@ zero_extendqisi2
 2102 1800 FEFFFFEB 		bl	comm_send_ch
 2103 1804 6C30DDE5 		ldrb	r3, [sp, #108]	@ zero_extendqisi2
 2104 1808 000053E3 		cmp	r3, #0
 2105 180c 0B00000A 		beq	.L141
 2106 1810 0040A0E3 		mov	r4, #0
 2107              	.L143:
 2108 1814 5D6F8DE2 		add	r6, sp, #372
 2109 1818 043086E0 		add	r3, r6, r4
 2110 181c 031153E5 		ldrb	r1, [r3, #-259]	@ zero_extendqisi2
 2111 1820 0B00A0E1 		mov	r0, fp
 2112 1824 FEFFFFEB 		bl	comm_send_ch
 2113 1828 013084E2 		add	r3, r4, #1
 2114 182c 0338A0E1 		mov	r3, r3, asl #16
 2115 1830 6C20DDE5 		ldrb	r2, [sp, #108]	@ zero_extendqisi2
 2116 1834 2348A0E1 		mov	r4, r3, lsr #16
 2117 1838 040052E1 		cmp	r2, r4
 2118 183c F4FFFF8A 		bhi	.L143
 2119              	.L141:
 2120 1840 7011DDE5 		ldrb	r1, [sp, #368]	@ zero_extendqisi2
 2121 1844 0B00A0E1 		mov	r0, fp
 2122 1848 FEFFFFEB 		bl	comm_send_ch
 2123 184c 0B00A0E1 		mov	r0, fp
 2124 1850 7111DDE5 		ldrb	r1, [sp, #369]	@ zero_extendqisi2
 2125 1854 FEFFFFEB 		bl	comm_send_ch
 2126 1858 28FFFFEA 		b	.L144
 2127              	.L150:
 2128              		.align	2
 2129              	.L149:
 2130 185c 00000000 		.word	global_data
 2131 1860 00000000 		.word	m_mavlink_status.2141
 2132 1864 00000000 		.word	mavlink_system
 2134              		.align	2
 2135              		.global	fuse_vision_altitude_200hz
 2137              	fuse_vision_altitude_200hz:
 2138              		@ Function supports interworking.
 2139              		@ args = 0, pretend = 0, frame = 264
 2140              		@ frame_needed = 0, uses_anonymous_args = 0
 2141 1868 F0452DE9 		stmfd	sp!, {r4, r5, r6, r7, r8, sl, lr}
 2142 186c 24729FE5 		ldr	r7, .L165
 2143 1870 24429FE5 		ldr	r4, .L165+4
 2144 1874 24529FE5 		ldr	r5, .L165+8
 2145 1878 42DF4DE2 		sub	sp, sp, #264
 2146 187c 0700A0E1 		mov	r0, r7
 2147 1880 0410A0E1 		mov	r1, r4
 2148 1884 0520A0E1 		mov	r2, r5
 2149 1888 FEFFFFEB 		bl	x_position_kalman3
 2150 188c 97AE47E2 		sub	sl, r7, #2416
 2151 1890 0700A0E1 		mov	r0, r7
 2152 1894 0410A0E1 		mov	r1, r4
 2153 1898 0520A0E1 		mov	r2, r5
 2154 189c FEFFFFEB 		bl	y_position_kalman3
 2155 18a0 0CA04AE2 		sub	sl, sl, #12
 2156 18a4 0700A0E1 		mov	r0, r7
 2157 18a8 0410A0E1 		mov	r1, r4
 2158 18ac 0520A0E1 		mov	r2, r5
 2159 18b0 FEFFFFEB 		bl	z_position_kalman3
 2160 18b4 B4C99AE5 		ldr	ip, [sl, #2484]
 2161 18b8 08E094E5 		ldr	lr, [r4, #8]	@ float
 2162 18bc 086095E5 		ldr	r6, [r5, #8]	@ float
 2163 18c0 003094E5 		ldr	r3, [r4, #0]	@ float
 2164 18c4 042094E5 		ldr	r2, [r4, #4]	@ float
 2165 18c8 001095E5 		ldr	r1, [r5, #0]	@ float
 2166 18cc 040095E5 		ldr	r0, [r5, #4]	@ float
 2167 18d0 00005CE3 		cmp	ip, #0
 2168 18d4 083907E5 		str	r3, [r7, #-2312]	@ float
 2169 18d8 042907E5 		str	r2, [r7, #-2308]	@ float
 2170 18dc 7CE08AE5 		str	lr, [sl, #124]	@ float
 2171 18e0 141907E5 		str	r1, [r7, #-2324]	@ float
 2172 18e4 6C008AE5 		str	r0, [sl, #108]	@ float
 2173 18e8 0C6907E5 		str	r6, [r7, #-2316]	@ float
 2174 18ec 5E00000A 		beq	.L152
 2175 18f0 140617E5 		ldr	r0, [r7, #-1556]	@ float
 2176 18f4 FEFFFFEB 		bl	__fixunssfsi
 2177 18f8 AC299AE5 		ldr	r2, [sl, #2476]
 2178 18fc A4399AE5 		ldr	r3, [sl, #2468]
 2179 1900 032052E0 		subs	r2, r2, r3
 2180 1904 0080A0E1 		mov	r8, r0
 2181 1908 5C00004A 		bmi	.L155
 2182 190c 0200A0E1 		mov	r0, r2
 2183 1910 FEFFFFEB 		bl	__floatsisf
 2184              	.L154:
 2185 1914 FF3008E2 		and	r3, r8, #255
 2186 1918 84219FE5 		ldr	r2, .L165+12
 2187 191c 033183E0 		add	r3, r3, r3, asl #2
 2188 1920 032182E0 		add	r2, r2, r3, asl #2
 2189 1924 0E50D2E5 		ldrb	r5, [r2, #14]	@ zero_extendqisi2
 2190 1928 78119FE5 		ldr	r1, .L165+16
 2191 192c 01C085E2 		add	ip, r5, #1
 2192 1930 0170D1E5 		ldrb	r7, [r1, #1]	@ zero_extendqisi2
 2193 1934 0060D1E5 		ldrb	r6, [r1, #0]	@ zero_extendqisi2
 2194 1938 0030E0E3 		mvn	r3, #0
 2195 193c 0EC0C2E5 		strb	ip, [r2, #14]
 2196 1940 40E8A0E1 		mov	lr, r0, asr #16
 2197 1944 4044A0E1 		mov	r4, r0, asr #8
 2198 1948 0430CDE5 		strb	r3, [sp, #4]
 2199 194c 6420A0E3 		mov	r2, #100
 2200 1950 063083E2 		add	r3, r3, #6
 2201 1954 401CA0E1 		mov	r1, r0, asr #24
 2202 1958 01C8A0E3 		mov	ip, #65536
 2203 195c 0520CDE5 		strb	r2, [sp, #5]
 2204 1960 07E0CDE5 		strb	lr, [sp, #7]
 2205 1964 0840CDE5 		strb	r4, [sp, #8]
 2206 1968 0030CDE5 		strb	r3, [sp, #0]
 2207 196c 0260CDE5 		strb	r6, [sp, #2]
 2208 1970 0370CDE5 		strb	r7, [sp, #3]
 2209 1974 0150CDE5 		strb	r5, [sp, #1]
 2210 1978 0610CDE5 		strb	r1, [sp, #6]
 2211 197c 0900CDE5 		strb	r0, [sp, #9]
 2212 1980 01C04CE2 		sub	ip, ip, #1
 2213 1984 0D00A0E1 		mov	r0, sp
 2214 1988 0010A0E3 		mov	r1, #0
 2215              	.L156:
 2216 198c 0030D1E7 		ldrb	r3, [r1, r0]	@ zero_extendqisi2
 2217 1990 0C3023E0 		eor	r3, r3, ip
 2218 1994 FF3003E2 		and	r3, r3, #255
 2219 1998 033223E0 		eor	r3, r3, r3, asl #4
 2220 199c FF3003E2 		and	r3, r3, #255
 2221 19a0 0324A0E1 		mov	r2, r3, asl #8
 2222 19a4 2C2482E1 		orr	r2, r2, ip, lsr #8
 2223 19a8 232222E0 		eor	r2, r2, r3, lsr #4
 2224 19ac 832122E0 		eor	r2, r2, r3, asl #3
 2225 19b0 011081E2 		add	r1, r1, #1
 2226 19b4 0228A0E1 		mov	r2, r2, asl #16
 2227 19b8 0A0051E3 		cmp	r1, #10
 2228 19bc 22C8A0E1 		mov	ip, r2, lsr #16
 2229 19c0 F1FFFF1A 		bne	.L156
 2230 19c4 2C34A0E1 		mov	r3, ip, lsr #8
 2231 19c8 4B1081E2 		add	r1, r1, #75
 2232 19cc 0800A0E1 		mov	r0, r8
 2233 19d0 0531CDE5 		strb	r3, [sp, #261]
 2234 19d4 04C1CDE5 		strb	ip, [sp, #260]
 2235 19d8 FEFFFFEB 		bl	comm_send_ch
 2236 19dc 0800A0E1 		mov	r0, r8
 2237 19e0 0010DDE5 		ldrb	r1, [sp, #0]	@ zero_extendqisi2
 2238 19e4 FEFFFFEB 		bl	comm_send_ch
 2239 19e8 0800A0E1 		mov	r0, r8
 2240 19ec 0110DDE5 		ldrb	r1, [sp, #1]	@ zero_extendqisi2
 2241 19f0 FEFFFFEB 		bl	comm_send_ch
 2242 19f4 0800A0E1 		mov	r0, r8
 2243 19f8 0210DDE5 		ldrb	r1, [sp, #2]	@ zero_extendqisi2
 2244 19fc FEFFFFEB 		bl	comm_send_ch
 2245 1a00 0800A0E1 		mov	r0, r8
 2246 1a04 0310DDE5 		ldrb	r1, [sp, #3]	@ zero_extendqisi2
 2247 1a08 FEFFFFEB 		bl	comm_send_ch
 2248 1a0c 0800A0E1 		mov	r0, r8
 2249 1a10 0410DDE5 		ldrb	r1, [sp, #4]	@ zero_extendqisi2
 2250 1a14 FEFFFFEB 		bl	comm_send_ch
 2251 1a18 0030DDE5 		ldrb	r3, [sp, #0]	@ zero_extendqisi2
 2252 1a1c 000053E3 		cmp	r3, #0
 2253 1a20 0B00000A 		beq	.L158
 2254 1a24 0040A0E3 		mov	r4, #0
 2255              	.L160:
 2256 1a28 422F8DE2 		add	r2, sp, #264
 2257 1a2c 043082E0 		add	r3, r2, r4
 2258 1a30 031153E5 		ldrb	r1, [r3, #-259]	@ zero_extendqisi2
 2259 1a34 0800A0E1 		mov	r0, r8
 2260 1a38 FEFFFFEB 		bl	comm_send_ch
 2261 1a3c 013084E2 		add	r3, r4, #1
 2262 1a40 0338A0E1 		mov	r3, r3, asl #16
 2263 1a44 0020DDE5 		ldrb	r2, [sp, #0]	@ zero_extendqisi2
 2264 1a48 2348A0E1 		mov	r4, r3, lsr #16
 2265 1a4c 040052E1 		cmp	r2, r4
 2266 1a50 F4FFFF8A 		bhi	.L160
 2267              	.L158:
 2268 1a54 0411DDE5 		ldrb	r1, [sp, #260]	@ zero_extendqisi2
 2269 1a58 0800A0E1 		mov	r0, r8
 2270 1a5c FEFFFFEB 		bl	comm_send_ch
 2271 1a60 0800A0E1 		mov	r0, r8
 2272 1a64 0511DDE5 		ldrb	r1, [sp, #261]	@ zero_extendqisi2
 2273 1a68 FEFFFFEB 		bl	comm_send_ch
 2274              	.L152:
 2275 1a6c 0030A0E3 		mov	r3, #0
 2276 1a70 B4398AE5 		str	r3, [sl, #2484]
 2277 1a74 42DF8DE2 		add	sp, sp, #264
 2278 1a78 F045BDE8 		ldmfd	sp!, {r4, r5, r6, r7, r8, sl, lr}
 2279 1a7c 1EFF2FE1 		bx	lr
 2280              	.L155:
 2281 1a80 010002E2 		and	r0, r2, #1
 2282 1a84 A20080E1 		orr	r0, r0, r2, lsr #1
 2283 1a88 FEFFFFEB 		bl	__floatsisf
 2284 1a8c 0010A0E1 		mov	r1, r0
 2285 1a90 FEFFFFEB 		bl	__addsf3
 2286 1a94 9EFFFFEA 		b	.L154
 2287              	.L166:
 2288              		.align	2
 2289              	.L165:
 2290 1a98 7C090000 		.word	global_data+2428
 2291 1a9c 5C000000 		.word	pos_est3.21051
 2292 1aa0 50000000 		.word	vel_est3.21052
 2293 1aa4 00000000 		.word	m_mavlink_status.2141
 2294 1aa8 00000000 		.word	mavlink_system
 2296              		.align	2
 2297              		.global	camera_shutter_handling
 2299              	camera_shutter_handling:
 2300              		@ Function supports interworking.
 2301              		@ args = 0, pretend = 0, frame = 360
 2302              		@ frame_needed = 0, uses_anonymous_args = 0
 2303 1aac F04F2DE9 		stmfd	sp!, {r4, r5, r6, r7, r8, r9, sl, fp, lr}
 2304 1ab0 5BDF4DE2 		sub	sp, sp, #364
 2305 1ab4 0040A0E1 		mov	r4, r0
 2306 1ab8 0150A0E1 		mov	r5, r1
 2307 1abc FEFFFFEB 		bl	shutter_loop
 2308 1ac0 000050E3 		cmp	r0, #0
 2309 1ac4 0200001A 		bne	.L187
 2310              	.L180:
 2311 1ac8 5BDF8DE2 		add	sp, sp, #364
 2312 1acc F04FBDE8 		ldmfd	sp!, {r4, r5, r6, r7, r8, r9, sl, fp, lr}
 2313 1ad0 1EFF2FE1 		bx	lr
 2314              	.L187:
 2315 1ad4 FEFFFFEB 		bl	sys_time_clock_get_unix_offset
 2316 1ad8 047090E0 		adds	r7, r0, r4
 2317 1adc 0580A1E0 		adc	r8, r1, r5
 2318 1ae0 FEFFFFEB 		bl	shutter_get_seq
 2319 1ae4 0420A0E1 		mov	r2, r4
 2320 1ae8 0530A0E1 		mov	r3, r5
 2321 1aec 0810A0E1 		mov	r1, r8
 2322 1af0 00008DE5 		str	r0, [sp, #0]
 2323 1af4 0700A0E1 		mov	r0, r7
 2324 1af8 FEFFFFEB 		bl	vision_buffer_buffer_camera_triggered
 2325 1afc FEFFFFEB 		bl	shutter_get_seq
 2326 1b00 04008DE5 		str	r0, [sp, #4]
 2327 1b04 50059FE5 		ldr	r0, .L188
 2328 1b08 282CA0E1 		mov	r2, r8, lsr #24
 2329 1b0c 0030A0E3 		mov	r3, #0
 2330 1b10 38208DE5 		str	r2, [sp, #56]
 2331 1b14 3C308DE5 		str	r3, [sp, #60]
 2332 1b18 602090E5 		ldr	r2, [r0, #96]	@ float
 2333 1b1c 34308DE5 		str	r3, [sp, #52]
 2334 1b20 643090E5 		ldr	r3, [r0, #100]	@ float
 2335 1b24 5C1090E5 		ldr	r1, [r0, #92]	@ float
 2336 1b28 286CA0E1 		mov	r6, r8, lsr #24
 2337 1b2c 2804A0E1 		mov	r0, r8, lsr #8
 2338 1b30 02B0A0E1 		mov	fp, r2
 2339 1b34 40308DE5 		str	r3, [sp, #64]	@ float
 2340 1b38 2828A0E1 		mov	r2, r8, lsr #16
 2341 1b3c 28008DE5 		str	r0, [sp, #40]
 2342 1b40 2734A0E1 		mov	r3, r7, lsr #8
 2343 1b44 FF0006E2 		and	r0, r6, #255
 2344 1b48 01E0A0E1 		mov	lr, r1
 2345 1b4c 2844A0E1 		mov	r4, r8, lsr #8
 2346 1b50 2718A0E1 		mov	r1, r7, lsr #16
 2347 1b54 083C83E1 		orr	r3, r3, r8, asl #24
 2348 1b58 60008DE5 		str	r0, [sp, #96]
 2349 1b5c FF0002E2 		and	r0, r2, #255
 2350 1b60 081881E1 		orr	r1, r1, r8, asl #16
 2351 1b64 5C008DE5 		str	r0, [sp, #92]
 2352 1b68 FF3003E2 		and	r3, r3, #255
 2353 1b6c FF0004E2 		and	r0, r4, #255
 2354 1b70 58008DE5 		str	r0, [sp, #88]
 2355 1b74 FF1001E2 		and	r1, r1, #255
 2356 1b78 48308DE5 		str	r3, [sp, #72]
 2357 1b7c 40009DE5 		ldr	r0, [sp, #64]
 2358 1b80 04309DE5 		ldr	r3, [sp, #4]
 2359 1b84 4C108DE5 		str	r1, [sp, #76]
 2360 1b88 04109DE5 		ldr	r1, [sp, #4]
 2361 1b8c 275CA0E1 		mov	r5, r7, lsr #24
 2362 1b90 2344A0E1 		mov	r4, r3, lsr #8
 2363 1b94 400CA0E1 		mov	r0, r0, asr #24
 2364 1b98 40309DE5 		ldr	r3, [sp, #64]
 2365 1b9c 212CA0E1 		mov	r2, r1, lsr #24
 2366 1ba0 085485E1 		orr	r5, r5, r8, asl #8
 2367 1ba4 2118A0E1 		mov	r1, r1, lsr #16
 2368 1ba8 24008DE5 		str	r0, [sp, #36]
 2369 1bac 40009DE5 		ldr	r0, [sp, #64]
 2370 1bb0 28C8A0E1 		mov	ip, r8, lsr #16
 2371 1bb4 FF5005E2 		and	r5, r5, #255
 2372 1bb8 4338A0E1 		mov	r3, r3, asr #16
 2373 1bbc 7210CDE5 		strb	r1, [sp, #114]
 2374 1bc0 04109DE5 		ldr	r1, [sp, #4]
 2375 1bc4 FF9008E2 		and	r9, r8, #255
 2376 1bc8 4004A0E1 		mov	r0, r0, asr #8
 2377 1bcc 30C08DE5 		str	ip, [sp, #48]
 2378 1bd0 50508DE5 		str	r5, [sp, #80]
 2379 1bd4 00C0A0E3 		mov	ip, #0
 2380 1bd8 FF7007E2 		and	r7, r7, #255
 2381 1bdc 4E5CA0E1 		mov	r5, lr, asr #24
 2382 1be0 20308DE5 		str	r3, [sp, #32]
 2383 1be4 6530A0E3 		mov	r3, #101
 2384 1be8 2CC08DE5 		str	ip, [sp, #44]
 2385 1bec 54908DE5 		str	r9, [sp, #84]
 2386 1bf0 44708DE5 		str	r7, [sp, #68]
 2387 1bf4 1C008DE5 		str	r0, [sp, #28]
 2388 1bf8 6830CDE5 		strb	r3, [sp, #104]
 2389 1bfc 7120CDE5 		strb	r2, [sp, #113]
 2390 1c00 7410CDE5 		strb	r1, [sp, #116]
 2391 1c04 7340CDE5 		strb	r4, [sp, #115]
 2392 1c08 7550CDE5 		strb	r5, [sp, #117]
 2393 1c0c 24209DE5 		ldr	r2, [sp, #36]
 2394 1c10 20309DE5 		ldr	r3, [sp, #32]
 2395 1c14 7D20CDE5 		strb	r2, [sp, #125]
 2396 1c18 7E30CDE5 		strb	r3, [sp, #126]
 2397 1c1c 5C209DE5 		ldr	r2, [sp, #92]
 2398 1c20 58309DE5 		ldr	r3, [sp, #88]
 2399 1c24 7F00CDE5 		strb	r0, [sp, #127]
 2400 1c28 40009DE5 		ldr	r0, [sp, #64]
 2401 1c2c 60109DE5 		ldr	r1, [sp, #96]
 2402 1c30 8000CDE5 		strb	r0, [sp, #128]
 2403 1c34 6A20CDE5 		strb	r2, [sp, #106]
 2404 1c38 54009DE5 		ldr	r0, [sp, #84]
 2405 1c3c 4C209DE5 		ldr	r2, [sp, #76]
 2406 1c40 6B30CDE5 		strb	r3, [sp, #107]
 2407 1c44 48309DE5 		ldr	r3, [sp, #72]
 2408 1c48 6910CDE5 		strb	r1, [sp, #105]
 2409 1c4c 6C00CDE5 		strb	r0, [sp, #108]
 2410 1c50 50109DE5 		ldr	r1, [sp, #80]
 2411 1c54 44009DE5 		ldr	r0, [sp, #68]
 2412 1c58 6E20CDE5 		strb	r2, [sp, #110]
 2413 1c5c 6F30CDE5 		strb	r3, [sp, #111]
 2414 1c60 F8239FE5 		ldr	r2, .L188+4
 2415 1c64 F8339FE5 		ldr	r3, .L188+8
 2416 1c68 00C0A0E3 		mov	ip, #0
 2417 1c6c 4E68A0E1 		mov	r6, lr, asr #16
 2418 1c70 4E74A0E1 		mov	r7, lr, asr #8
 2419 1c74 4B8CA0E1 		mov	r8, fp, asr #24
 2420 1c78 4BA8A0E1 		mov	sl, fp, asr #16
 2421 1c7c 4B94A0E1 		mov	r9, fp, asr #8
 2422 1c80 78E0CDE5 		strb	lr, [sp, #120]
 2423 1c84 7CB0CDE5 		strb	fp, [sp, #124]
 2424 1c88 6D10CDE5 		strb	r1, [sp, #109]
 2425 1c8c 7000CDE5 		strb	r0, [sp, #112]
 2426 1c90 0010D2E5 		ldrb	r1, [r2, #0]	@ zero_extendqisi2
 2427 1c94 0100D2E5 		ldrb	r0, [r2, #1]	@ zero_extendqisi2
 2428 1c98 7660CDE5 		strb	r6, [sp, #118]
 2429 1c9c 7770CDE5 		strb	r7, [sp, #119]
 2430 1ca0 7980CDE5 		strb	r8, [sp, #121]
 2431 1ca4 7AA0CDE5 		strb	sl, [sp, #122]
 2432 1ca8 7B90CDE5 		strb	r9, [sp, #123]
 2433 1cac 81C0CDE5 		strb	ip, [sp, #129]
 2434 1cb0 82C0CDE5 		strb	ip, [sp, #130]
 2435 1cb4 83C0CDE5 		strb	ip, [sp, #131]
 2436 1cb8 84C0CDE5 		strb	ip, [sp, #132]
 2437 1cbc 0EE0D3E5 		ldrb	lr, [r3, #14]	@ zero_extendqisi2
 2438 1cc0 9C239FE5 		ldr	r2, .L188+8
 2439 1cc4 01308EE2 		add	r3, lr, #1
 2440 1cc8 0E30C2E5 		strb	r3, [r2, #14]
 2441 1ccc 2820A0E3 		mov	r2, #40
 2442 1cd0 65E0CDE5 		strb	lr, [sp, #101]
 2443 1cd4 6420CDE5 		strb	r2, [sp, #100]
 2444 1cd8 01E8A0E3 		mov	lr, #65536
 2445 1cdc 6610CDE5 		strb	r1, [sp, #102]
 2446 1ce0 6700CDE5 		strb	r0, [sp, #103]
 2447 1ce4 85C0CDE5 		strb	ip, [sp, #133]
 2448 1ce8 86C0CDE5 		strb	ip, [sp, #134]
 2449 1cec 87C0CDE5 		strb	ip, [sp, #135]
 2450 1cf0 88C0CDE5 		strb	ip, [sp, #136]
 2451 1cf4 89C0CDE5 		strb	ip, [sp, #137]
 2452 1cf8 8AC0CDE5 		strb	ip, [sp, #138]
 2453 1cfc 8BC0CDE5 		strb	ip, [sp, #139]
 2454 1d00 8CC0CDE5 		strb	ip, [sp, #140]
 2455 1d04 8DC0CDE5 		strb	ip, [sp, #141]
 2456 1d08 8EC0CDE5 		strb	ip, [sp, #142]
 2457 1d0c 8FC0CDE5 		strb	ip, [sp, #143]
 2458 1d10 90C0CDE5 		strb	ip, [sp, #144]
 2459 1d14 01E04EE2 		sub	lr, lr, #1
 2460 1d18 64B08DE2 		add	fp, sp, #100
 2461              	.L170:
 2462 1d1c 0B30DCE7 		ldrb	r3, [ip, fp]	@ zero_extendqisi2
 2463 1d20 0E3023E0 		eor	r3, r3, lr
 2464 1d24 FF3003E2 		and	r3, r3, #255
 2465 1d28 033223E0 		eor	r3, r3, r3, asl #4
 2466 1d2c FF3003E2 		and	r3, r3, #255
 2467 1d30 0324A0E1 		mov	r2, r3, asl #8
 2468 1d34 2E2482E1 		orr	r2, r2, lr, lsr #8
 2469 1d38 232222E0 		eor	r2, r2, r3, lsr #4
 2470 1d3c 832122E0 		eor	r2, r2, r3, asl #3
 2471 1d40 01C08CE2 		add	ip, ip, #1
 2472 1d44 0228A0E1 		mov	r2, r2, asl #16
 2473 1d48 2D005CE3 		cmp	ip, #45
 2474 1d4c 22E8A0E1 		mov	lr, r2, lsr #16
 2475 1d50 F1FFFF1A 		bne	.L170
 2476 1d54 2E34A0E1 		mov	r3, lr, lsr #8
 2477 1d58 0000A0E3 		mov	r0, #0
 2478 1d5c 5510A0E3 		mov	r1, #85
 2479 1d60 6931CDE5 		strb	r3, [sp, #361]
 2480 1d64 68E1CDE5 		strb	lr, [sp, #360]
 2481 1d68 FEFFFFEB 		bl	comm_send_ch
 2482 1d6c 0000A0E3 		mov	r0, #0
 2483 1d70 6410DDE5 		ldrb	r1, [sp, #100]	@ zero_extendqisi2
 2484 1d74 FEFFFFEB 		bl	comm_send_ch
 2485 1d78 0000A0E3 		mov	r0, #0
 2486 1d7c 6510DDE5 		ldrb	r1, [sp, #101]	@ zero_extendqisi2
 2487 1d80 FEFFFFEB 		bl	comm_send_ch
 2488 1d84 0000A0E3 		mov	r0, #0
 2489 1d88 6610DDE5 		ldrb	r1, [sp, #102]	@ zero_extendqisi2
 2490 1d8c FEFFFFEB 		bl	comm_send_ch
 2491 1d90 0000A0E3 		mov	r0, #0
 2492 1d94 6710DDE5 		ldrb	r1, [sp, #103]	@ zero_extendqisi2
 2493 1d98 FEFFFFEB 		bl	comm_send_ch
 2494 1d9c 0000A0E3 		mov	r0, #0
 2495 1da0 6810DDE5 		ldrb	r1, [sp, #104]	@ zero_extendqisi2
 2496 1da4 FEFFFFEB 		bl	comm_send_ch
 2497 1da8 6430DDE5 		ldrb	r3, [sp, #100]	@ zero_extendqisi2
 2498 1dac 000053E3 		cmp	r3, #0
 2499 1db0 0B00000A 		beq	.L172
 2500 1db4 0040A0E3 		mov	r4, #0
 2501              	.L174:
 2502 1db8 5BCF8DE2 		add	ip, sp, #364
 2503 1dbc 04308CE0 		add	r3, ip, r4
 2504 1dc0 031153E5 		ldrb	r1, [r3, #-259]	@ zero_extendqisi2
 2505 1dc4 0000A0E3 		mov	r0, #0
 2506 1dc8 FEFFFFEB 		bl	comm_send_ch
 2507 1dcc 013084E2 		add	r3, r4, #1
 2508 1dd0 0338A0E1 		mov	r3, r3, asl #16
 2509 1dd4 6420DDE5 		ldrb	r2, [sp, #100]	@ zero_extendqisi2
 2510 1dd8 2348A0E1 		mov	r4, r3, lsr #16
 2511 1ddc 040052E1 		cmp	r2, r4
 2512 1de0 F4FFFF8A 		bhi	.L174
 2513              	.L172:
 2514 1de4 0000A0E3 		mov	r0, #0
 2515 1de8 6811DDE5 		ldrb	r1, [sp, #360]	@ zero_extendqisi2
 2516 1dec FEFFFFEB 		bl	comm_send_ch
 2517 1df0 6911DDE5 		ldrb	r1, [sp, #361]	@ zero_extendqisi2
 2518 1df4 0000A0E3 		mov	r0, #0
 2519 1df8 FEFFFFEB 		bl	comm_send_ch
 2520 1dfc FEFFFFEB 		bl	shutter_get_seq
 2521 1e00 54129FE5 		ldr	r1, .L188
 2522 1e04 602091E5 		ldr	r2, [r1, #96]	@ float
 2523 1e08 5C3091E5 		ldr	r3, [r1, #92]	@ float
 2524 1e0c 0240A0E1 		mov	r4, r2
 2525 1e10 64C091E5 		ldr	ip, [r1, #100]	@ float
 2526 1e14 03E0A0E1 		mov	lr, r3
 2527 1e18 437CA0E1 		mov	r7, r3, asr #24
 2528 1e1c 4388A0E1 		mov	r8, r3, asr #16
 2529 1e20 43A4A0E1 		mov	sl, r3, asr #8
 2530 1e24 4438A0E1 		mov	r3, r4, asr #16
 2531 1e28 0C50A0E1 		mov	r5, ip
 2532 1e2c 18308DE5 		str	r3, [sp, #24]
 2533 1e30 4434A0E1 		mov	r3, r4, asr #8
 2534 1e34 14308DE5 		str	r3, [sp, #20]
 2535 1e38 453CA0E1 		mov	r3, r5, asr #24
 2536 1e3c 10308DE5 		str	r3, [sp, #16]
 2537 1e40 4538A0E1 		mov	r3, r5, asr #16
 2538 1e44 0C308DE5 		str	r3, [sp, #12]
 2539 1e48 4534A0E1 		mov	r3, r5, asr #8
 2540 1e4c 08308DE5 		str	r3, [sp, #8]
 2541 1e50 6530A0E3 		mov	r3, #101
 2542 1e54 6830CDE5 		strb	r3, [sp, #104]
 2543 1e58 60309DE5 		ldr	r3, [sp, #96]
 2544 1e5c 6930CDE5 		strb	r3, [sp, #105]
 2545 1e60 5C309DE5 		ldr	r3, [sp, #92]
 2546 1e64 6A30CDE5 		strb	r3, [sp, #106]
 2547 1e68 58309DE5 		ldr	r3, [sp, #88]
 2548 1e6c 6B30CDE5 		strb	r3, [sp, #107]
 2549 1e70 54309DE5 		ldr	r3, [sp, #84]
 2550 1e74 6C30CDE5 		strb	r3, [sp, #108]
 2551 1e78 50309DE5 		ldr	r3, [sp, #80]
 2552 1e7c 6D30CDE5 		strb	r3, [sp, #109]
 2553 1e80 4C309DE5 		ldr	r3, [sp, #76]
 2554 1e84 6E30CDE5 		strb	r3, [sp, #110]
 2555 1e88 48309DE5 		ldr	r3, [sp, #72]
 2556 1e8c 6F30CDE5 		strb	r3, [sp, #111]
 2557 1e90 44309DE5 		ldr	r3, [sp, #68]
 2558 1e94 202CA0E1 		mov	r2, r0, lsr #24
 2559 1e98 20C8A0E1 		mov	ip, r0, lsr #16
 2560 1e9c 2064A0E1 		mov	r6, r0, lsr #8
 2561 1ea0 449CA0E1 		mov	r9, r4, asr #24
 2562 1ea4 7030CDE5 		strb	r3, [sp, #112]
 2563 1ea8 7120CDE5 		strb	r2, [sp, #113]
 2564 1eac 72C0CDE5 		strb	ip, [sp, #114]
 2565 1eb0 7400CDE5 		strb	r0, [sp, #116]
 2566 1eb4 78E0CDE5 		strb	lr, [sp, #120]
 2567 1eb8 7360CDE5 		strb	r6, [sp, #115]
 2568 1ebc 7570CDE5 		strb	r7, [sp, #117]
 2569 1ec0 7680CDE5 		strb	r8, [sp, #118]
 2570 1ec4 77A0CDE5 		strb	sl, [sp, #119]
 2571 1ec8 7990CDE5 		strb	r9, [sp, #121]
 2572 1ecc 14008DE2 		add	r0, sp, #20
 2573 1ed0 011090E8 		ldmia	r0, {r0, ip}	@ phole ldm
 2574 1ed4 7AC0CDE5 		strb	ip, [sp, #122]
 2575 1ed8 10209DE5 		ldr	r2, [sp, #16]
 2576 1edc 0C309DE5 		ldr	r3, [sp, #12]
 2577 1ee0 08C09DE5 		ldr	ip, [sp, #8]
 2578 1ee4 0010A0E3 		mov	r1, #0
 2579 1ee8 7B00CDE5 		strb	r0, [sp, #123]
 2580 1eec 7D20CDE5 		strb	r2, [sp, #125]
 2581 1ef0 7E30CDE5 		strb	r3, [sp, #126]
 2582 1ef4 7FC0CDE5 		strb	ip, [sp, #127]
 2583 1ef8 7C40CDE5 		strb	r4, [sp, #124]
 2584 1efc 8050CDE5 		strb	r5, [sp, #128]
 2585 1f00 8110CDE5 		strb	r1, [sp, #129]
 2586 1f04 8210CDE5 		strb	r1, [sp, #130]
 2587 1f08 8310CDE5 		strb	r1, [sp, #131]
 2588 1f0c 8410CDE5 		strb	r1, [sp, #132]
 2589 1f10 50219FE5 		ldr	r2, .L188+12
 2590 1f14 44019FE5 		ldr	r0, .L188+4
 2591 1f18 0EE0D2E5 		ldrb	lr, [r2, #14]	@ zero_extendqisi2
 2592 1f1c 01C0D0E5 		ldrb	ip, [r0, #1]	@ zero_extendqisi2
 2593 1f20 01308EE2 		add	r3, lr, #1
 2594 1f24 0000D0E5 		ldrb	r0, [r0, #0]	@ zero_extendqisi2
 2595 1f28 0E30C2E5 		strb	r3, [r2, #14]
 2596 1f2c 2820A0E3 		mov	r2, #40
 2597 1f30 67C0CDE5 		strb	ip, [sp, #103]
 2598 1f34 6420CDE5 		strb	r2, [sp, #100]
 2599 1f38 6600CDE5 		strb	r0, [sp, #102]
 2600 1f3c 8510CDE5 		strb	r1, [sp, #133]
 2601 1f40 8610CDE5 		strb	r1, [sp, #134]
 2602 1f44 8710CDE5 		strb	r1, [sp, #135]
 2603 1f48 8810CDE5 		strb	r1, [sp, #136]
 2604 1f4c 8910CDE5 		strb	r1, [sp, #137]
 2605 1f50 8A10CDE5 		strb	r1, [sp, #138]
 2606 1f54 8B10CDE5 		strb	r1, [sp, #139]
 2607 1f58 8C10CDE5 		strb	r1, [sp, #140]
 2608 1f5c 8D10CDE5 		strb	r1, [sp, #141]
 2609 1f60 8E10CDE5 		strb	r1, [sp, #142]
 2610 1f64 01C8A0E3 		mov	ip, #65536
 2611 1f68 8F10CDE5 		strb	r1, [sp, #143]
 2612 1f6c 9010CDE5 		strb	r1, [sp, #144]
 2613 1f70 65E0CDE5 		strb	lr, [sp, #101]
 2614 1f74 01C04CE2 		sub	ip, ip, #1
 2615              	.L175:
 2616 1f78 0B30D1E7 		ldrb	r3, [r1, fp]	@ zero_extendqisi2
 2617 1f7c 0C3023E0 		eor	r3, r3, ip
 2618 1f80 FF3003E2 		and	r3, r3, #255
 2619 1f84 033223E0 		eor	r3, r3, r3, asl #4
 2620 1f88 FF3003E2 		and	r3, r3, #255
 2621 1f8c 0324A0E1 		mov	r2, r3, asl #8
 2622 1f90 2C2482E1 		orr	r2, r2, ip, lsr #8
 2623 1f94 232222E0 		eor	r2, r2, r3, lsr #4
 2624 1f98 832122E0 		eor	r2, r2, r3, asl #3
 2625 1f9c 011081E2 		add	r1, r1, #1
 2626 1fa0 0228A0E1 		mov	r2, r2, asl #16
 2627 1fa4 2D0051E3 		cmp	r1, #45
 2628 1fa8 22C8A0E1 		mov	ip, r2, lsr #16
 2629 1fac F1FFFF1A 		bne	.L175
 2630 1fb0 2C34A0E1 		mov	r3, ip, lsr #8
 2631 1fb4 0100A0E3 		mov	r0, #1
 2632 1fb8 281081E2 		add	r1, r1, #40
 2633 1fbc 6931CDE5 		strb	r3, [sp, #361]
 2634 1fc0 68C1CDE5 		strb	ip, [sp, #360]
 2635 1fc4 FEFFFFEB 		bl	comm_send_ch
 2636 1fc8 0100A0E3 		mov	r0, #1
 2637 1fcc 6410DDE5 		ldrb	r1, [sp, #100]	@ zero_extendqisi2
 2638 1fd0 FEFFFFEB 		bl	comm_send_ch
 2639 1fd4 0100A0E3 		mov	r0, #1
 2640 1fd8 6510DDE5 		ldrb	r1, [sp, #101]	@ zero_extendqisi2
 2641 1fdc FEFFFFEB 		bl	comm_send_ch
 2642 1fe0 0100A0E3 		mov	r0, #1
 2643 1fe4 6610DDE5 		ldrb	r1, [sp, #102]	@ zero_extendqisi2
 2644 1fe8 FEFFFFEB 		bl	comm_send_ch
 2645 1fec 0100A0E3 		mov	r0, #1
 2646 1ff0 6710DDE5 		ldrb	r1, [sp, #103]	@ zero_extendqisi2
 2647 1ff4 FEFFFFEB 		bl	comm_send_ch
 2648 1ff8 0100A0E3 		mov	r0, #1
 2649 1ffc 6810DDE5 		ldrb	r1, [sp, #104]	@ zero_extendqisi2
 2650 2000 FEFFFFEB 		bl	comm_send_ch
 2651 2004 6430DDE5 		ldrb	r3, [sp, #100]	@ zero_extendqisi2
 2652 2008 000053E3 		cmp	r3, #0
 2653 200c 0B00000A 		beq	.L177
 2654 2010 0040A0E3 		mov	r4, #0
 2655              	.L179:
 2656 2014 5BCF8DE2 		add	ip, sp, #364
 2657 2018 04308CE0 		add	r3, ip, r4
 2658 201c 031153E5 		ldrb	r1, [r3, #-259]	@ zero_extendqisi2
 2659 2020 0100A0E3 		mov	r0, #1
 2660 2024 FEFFFFEB 		bl	comm_send_ch
 2661 2028 013084E2 		add	r3, r4, #1
 2662 202c 0338A0E1 		mov	r3, r3, asl #16
 2663 2030 6420DDE5 		ldrb	r2, [sp, #100]	@ zero_extendqisi2
 2664 2034 2348A0E1 		mov	r4, r3, lsr #16
 2665 2038 040052E1 		cmp	r2, r4
 2666 203c F4FFFF8A 		bhi	.L179
 2667              	.L177:
 2668 2040 6811DDE5 		ldrb	r1, [sp, #360]	@ zero_extendqisi2
 2669 2044 0100A0E3 		mov	r0, #1
 2670 2048 FEFFFFEB 		bl	comm_send_ch
 2671 204c 0100A0E3 		mov	r0, #1
 2672 2050 6911DDE5 		ldrb	r1, [sp, #361]	@ zero_extendqisi2
 2673 2054 FEFFFFEB 		bl	comm_send_ch
 2674 2058 9AFEFFEA 		b	.L180
 2675              	.L189:
 2676              		.align	2
 2677              	.L188:
 2678 205c 00000000 		.word	global_data
 2679 2060 00000000 		.word	mavlink_system
 2680 2064 00000000 		.word	m_mavlink_status.2141
 2681 2068 14000000 		.word	m_mavlink_status.2141+20
 2683              		.align	2
 2684              		.global	communication_send_remote_control
 2686              	communication_send_remote_control:
 2687              		@ Function supports interworking.
 2688              		@ args = 0, pretend = 0, frame = 336
 2689              		@ frame_needed = 0, uses_anonymous_args = 0
 2690 206c F04F2DE9 		stmfd	sp!, {r4, r5, r6, r7, r8, r9, sl, fp, lr}
 2691 2070 60459FE5 		ldr	r4, .L221
 2692 2074 15DE4DE2 		sub	sp, sp, #336
 2693 2078 FE15A0E3 		mov	r1, #1065353216
 2694 207c 740394E5 		ldr	r0, [r4, #884]	@ float
 2695 2080 FEFFFFEB 		bl	__eqsf2
 2696 2084 000050E3 		cmp	r0, #0
 2697 2088 A900001A 		bne	.L213
 2698 208c 680394E5 		ldr	r0, [r4, #872]	@ float
 2699 2090 0010A0E3 		mov	r1, #0
 2700 2094 FEFFFFEB 		bl	__eqsf2
 2701 2098 000050E3 		cmp	r0, #0
 2702 209c A700000A 		beq	.L220
 2703 20a0 0100A0E3 		mov	r0, #1
 2704 20a4 FEFFFFEB 		bl	ppm_get_channel
 2705 20a8 00B0A0E1 		mov	fp, r0
 2706 20ac 0200A0E3 		mov	r0, #2
 2707 20b0 FEFFFFEB 		bl	ppm_get_channel
 2708 20b4 0090A0E1 		mov	r9, r0
 2709 20b8 0300A0E3 		mov	r0, #3
 2710 20bc FEFFFFEB 		bl	ppm_get_channel
 2711 20c0 00A0A0E1 		mov	sl, r0
 2712 20c4 0400A0E3 		mov	r0, #4
 2713 20c8 FEFFFFEB 		bl	ppm_get_channel
 2714 20cc 0080A0E1 		mov	r8, r0
 2715 20d0 0500A0E3 		mov	r0, #5
 2716 20d4 FEFFFFEB 		bl	ppm_get_channel
 2717 20d8 0070A0E1 		mov	r7, r0
 2718 20dc 0600A0E3 		mov	r0, #6
 2719 20e0 FEFFFFEB 		bl	ppm_get_channel
 2720 20e4 0060A0E1 		mov	r6, r0
 2721 20e8 0700A0E3 		mov	r0, #7
 2722 20ec FEFFFFEB 		bl	ppm_get_channel
 2723 20f0 0050A0E1 		mov	r5, r0
 2724 20f4 0800A0E3 		mov	r0, #8
 2725 20f8 FEFFFFEB 		bl	ppm_get_channel
 2726 20fc 0040A0E1 		mov	r4, r0
 2727 2100 0100A0E3 		mov	r0, #1
 2728 2104 FEFFFFEB 		bl	ppm_get_channel
 2729 2108 CCE49FE5 		ldr	lr, .L221+4
 2730 210c 0E30DEE5 		ldrb	r3, [lr, #14]	@ zero_extendqisi2
 2731 2110 C8249FE5 		ldr	r2, .L221+8
 2732 2114 44308DE5 		str	r3, [sp, #68]
 2733 2118 7B3EA0E3 		mov	r3, #1968
 2734 211c 0888A0E1 		mov	r8, r8, asl #16
 2735 2120 013083E2 		add	r3, r3, #1
 2736 2124 0110D2E5 		ldrb	r1, [r2, #1]	@ zero_extendqisi2
 2737 2128 030050E1 		cmp	r0, r3
 2738 212c 0020D2E5 		ldrb	r2, [r2, #0]	@ zero_extendqisi2
 2739 2130 283CA0E1 		mov	r3, r8, lsr #24
 2740 2134 0668A0E1 		mov	r6, r6, asl #16
 2741 2138 10308DE5 		str	r3, [sp, #16]
 2742 213c 0AA8A0E1 		mov	sl, sl, asl #16
 2743 2140 263CA0E1 		mov	r3, r6, lsr #24
 2744 2144 0448A0E1 		mov	r4, r4, asl #16
 2745 2148 08308DE5 		str	r3, [sp, #8]
 2746 214c 40208DE5 		str	r2, [sp, #64]
 2747 2150 243CA0E1 		mov	r3, r4, lsr #24
 2748 2154 2A2CA0E1 		mov	r2, sl, lsr #24
 2749 2158 0778A0E1 		mov	r7, r7, asl #16
 2750 215c 14208DE5 		str	r2, [sp, #20]
 2751 2160 00308DE5 		str	r3, [sp, #0]
 2752 2164 272CA0E1 		mov	r2, r7, lsr #24
 2753 2168 44309DE5 		ldr	r3, [sp, #68]
 2754 216c 0558A0E1 		mov	r5, r5, asl #16
 2755 2170 0C208DE5 		str	r2, [sp, #12]
 2756 2174 252CA0E1 		mov	r2, r5, lsr #24
 2757 2178 04208DE5 		str	r2, [sp, #4]
 2758 217c 0BB8A0E1 		mov	fp, fp, asl #16
 2759 2180 012083E2 		add	r2, r3, #1
 2760 2184 3C108DE5 		str	r1, [sp, #60]
 2761 2188 0E20CEE5 		strb	r2, [lr, #14]
 2762 218c 2B1CA0E1 		mov	r1, fp, lsr #24
 2763 2190 10209DE5 		ldr	r2, [sp, #16]
 2764 2194 4D10CDE5 		strb	r1, [sp, #77]
 2765 2198 14109DE5 		ldr	r1, [sp, #20]
 2766 219c 2330A0E3 		mov	r3, #35
 2767 21a0 0998A0E1 		mov	r9, r9, asl #16
 2768 21a4 4C30CDE5 		strb	r3, [sp, #76]
 2769 21a8 5110CDE5 		strb	r1, [sp, #81]
 2770 21ac 08108DE2 		add	r1, sp, #8
 2771 21b0 0A0091E8 		ldmia	r1, {r1, r3}	@ phole ldm
 2772 21b4 5320CDE5 		strb	r2, [sp, #83]
 2773 21b8 04209DE5 		ldr	r2, [sp, #4]
 2774 21bc 29CCA0E1 		mov	ip, r9, lsr #24
 2775 21c0 2BB8A0E1 		mov	fp, fp, lsr #16
 2776 21c4 2998A0E1 		mov	r9, r9, lsr #16
 2777 21c8 2AA8A0E1 		mov	sl, sl, lsr #16
 2778 21cc 2888A0E1 		mov	r8, r8, lsr #16
 2779 21d0 2778A0E1 		mov	r7, r7, lsr #16
 2780 21d4 2668A0E1 		mov	r6, r6, lsr #16
 2781 21d8 2558A0E1 		mov	r5, r5, lsr #16
 2782 21dc 4FC0CDE5 		strb	ip, [sp, #79]
 2783 21e0 5530CDE5 		strb	r3, [sp, #85]
 2784 21e4 5710CDE5 		strb	r1, [sp, #87]
 2785 21e8 5920CDE5 		strb	r2, [sp, #89]
 2786 21ec 4EB0CDE5 		strb	fp, [sp, #78]
 2787 21f0 5090CDE5 		strb	r9, [sp, #80]
 2788 21f4 52A0CDE5 		strb	sl, [sp, #82]
 2789 21f8 5480CDE5 		strb	r8, [sp, #84]
 2790 21fc 5670CDE5 		strb	r7, [sp, #86]
 2791 2200 5860CDE5 		strb	r6, [sp, #88]
 2792 2204 5A50CDE5 		strb	r5, [sp, #90]
 2793 2208 00309DE5 		ldr	r3, [sp, #0]
 2794 220c 5B30CDE5 		strb	r3, [sp, #91]
 2795 2210 1130A0E3 		mov	r3, #17
 2796 2214 4830CDE5 		strb	r3, [sp, #72]
 2797 2218 3C209DE5 		ldr	r2, [sp, #60]
 2798 221c 40108DE2 		add	r1, sp, #64
 2799 2220 0A0091E8 		ldmia	r1, {r1, r3}	@ phole ldm
 2800 2224 2448A0E1 		mov	r4, r4, lsr #16
 2801 2228 FF00A0D3 		movle	r0, #255
 2802 222c 0000A0C3 		movgt	r0, #0
 2803 2230 01C8A0E3 		mov	ip, #65536
 2804 2234 5C40CDE5 		strb	r4, [sp, #92]
 2805 2238 4B20CDE5 		strb	r2, [sp, #75]
 2806 223c 4930CDE5 		strb	r3, [sp, #73]
 2807 2240 5D00CDE5 		strb	r0, [sp, #93]
 2808 2244 4A10CDE5 		strb	r1, [sp, #74]
 2809 2248 01C04CE2 		sub	ip, ip, #1
 2810 224c 48008DE2 		add	r0, sp, #72
 2811 2250 0010A0E3 		mov	r1, #0
 2812              	.L208:
 2813 2254 0030D1E7 		ldrb	r3, [r1, r0]	@ zero_extendqisi2
 2814 2258 0C3023E0 		eor	r3, r3, ip
 2815 225c FF3003E2 		and	r3, r3, #255
 2816 2260 033223E0 		eor	r3, r3, r3, asl #4
 2817 2264 FF3003E2 		and	r3, r3, #255
 2818 2268 0324A0E1 		mov	r2, r3, asl #8
 2819 226c 2C2482E1 		orr	r2, r2, ip, lsr #8
 2820 2270 232222E0 		eor	r2, r2, r3, lsr #4
 2821 2274 832122E0 		eor	r2, r2, r3, asl #3
 2822 2278 011081E2 		add	r1, r1, #1
 2823 227c 0228A0E1 		mov	r2, r2, asl #16
 2824 2280 160051E3 		cmp	r1, #22
 2825 2284 22C8A0E1 		mov	ip, r2, lsr #16
 2826 2288 F1FFFF1A 		bne	.L208
 2827 228c 2C34A0E1 		mov	r3, ip, lsr #8
 2828 2290 0100A0E3 		mov	r0, #1
 2829 2294 3F1081E2 		add	r1, r1, #63
 2830 2298 4D31CDE5 		strb	r3, [sp, #333]
 2831 229c 4CC1CDE5 		strb	ip, [sp, #332]
 2832 22a0 FEFFFFEB 		bl	comm_send_ch
 2833 22a4 0100A0E3 		mov	r0, #1
 2834 22a8 4810DDE5 		ldrb	r1, [sp, #72]	@ zero_extendqisi2
 2835 22ac FEFFFFEB 		bl	comm_send_ch
 2836 22b0 0100A0E3 		mov	r0, #1
 2837 22b4 4910DDE5 		ldrb	r1, [sp, #73]	@ zero_extendqisi2
 2838 22b8 FEFFFFEB 		bl	comm_send_ch
 2839 22bc 0100A0E3 		mov	r0, #1
 2840 22c0 4A10DDE5 		ldrb	r1, [sp, #74]	@ zero_extendqisi2
 2841 22c4 FEFFFFEB 		bl	comm_send_ch
 2842 22c8 0100A0E3 		mov	r0, #1
 2843 22cc 4B10DDE5 		ldrb	r1, [sp, #75]	@ zero_extendqisi2
 2844 22d0 FEFFFFEB 		bl	comm_send_ch
 2845 22d4 0100A0E3 		mov	r0, #1
 2846 22d8 4C10DDE5 		ldrb	r1, [sp, #76]	@ zero_extendqisi2
 2847 22dc FEFFFFEB 		bl	comm_send_ch
 2848 22e0 4830DDE5 		ldrb	r3, [sp, #72]	@ zero_extendqisi2
 2849 22e4 000053E3 		cmp	r3, #0
 2850 22e8 0B00000A 		beq	.L210
 2851 22ec 0040A0E3 		mov	r4, #0
 2852              	.L212:
 2853 22f0 151E8DE2 		add	r1, sp, #336
 2854 22f4 043081E0 		add	r3, r1, r4
 2855 22f8 031153E5 		ldrb	r1, [r3, #-259]	@ zero_extendqisi2
 2856 22fc 0100A0E3 		mov	r0, #1
 2857 2300 FEFFFFEB 		bl	comm_send_ch
 2858 2304 013084E2 		add	r3, r4, #1
 2859 2308 0338A0E1 		mov	r3, r3, asl #16
 2860 230c 4820DDE5 		ldrb	r2, [sp, #72]	@ zero_extendqisi2
 2861 2310 2348A0E1 		mov	r4, r3, lsr #16
 2862 2314 040052E1 		cmp	r2, r4
 2863 2318 F4FFFF8A 		bhi	.L212
 2864              	.L210:
 2865 231c 0100A0E3 		mov	r0, #1
 2866 2320 4C11DDE5 		ldrb	r1, [sp, #332]	@ zero_extendqisi2
 2867 2324 FEFFFFEB 		bl	comm_send_ch
 2868 2328 0100A0E3 		mov	r0, #1
 2869 232c 4D11DDE5 		ldrb	r1, [sp, #333]	@ zero_extendqisi2
 2870 2330 FEFFFFEB 		bl	comm_send_ch
 2871              	.L213:
 2872 2334 15DE8DE2 		add	sp, sp, #336
 2873 2338 F04FBDE8 		ldmfd	sp!, {r4, r5, r6, r7, r8, r9, sl, fp, lr}
 2874 233c 1EFF2FE1 		bx	lr
 2875              	.L220:
 2876 2340 010080E2 		add	r0, r0, #1
 2877 2344 FEFFFFEB 		bl	ppm_get_channel
 2878 2348 00B0A0E1 		mov	fp, r0
 2879 234c 0200A0E3 		mov	r0, #2
 2880 2350 FEFFFFEB 		bl	ppm_get_channel
 2881 2354 0090A0E1 		mov	r9, r0
 2882 2358 0300A0E3 		mov	r0, #3
 2883 235c FEFFFFEB 		bl	ppm_get_channel
 2884 2360 00A0A0E1 		mov	sl, r0
 2885 2364 0400A0E3 		mov	r0, #4
 2886 2368 FEFFFFEB 		bl	ppm_get_channel
 2887 236c 0080A0E1 		mov	r8, r0
 2888 2370 0500A0E3 		mov	r0, #5
 2889 2374 FEFFFFEB 		bl	ppm_get_channel
 2890 2378 0070A0E1 		mov	r7, r0
 2891 237c 0600A0E3 		mov	r0, #6
 2892 2380 FEFFFFEB 		bl	ppm_get_channel
 2893 2384 0060A0E1 		mov	r6, r0
 2894 2388 0700A0E3 		mov	r0, #7
 2895 238c FEFFFFEB 		bl	ppm_get_channel
 2896 2390 0050A0E1 		mov	r5, r0
 2897 2394 0800A0E3 		mov	r0, #8
 2898 2398 FEFFFFEB 		bl	ppm_get_channel
 2899 239c 0040A0E1 		mov	r4, r0
 2900 23a0 0100A0E3 		mov	r0, #1
 2901 23a4 FEFFFFEB 		bl	ppm_get_channel
 2902 23a8 34E29FE5 		ldr	lr, .L221+12
 2903 23ac 2C229FE5 		ldr	r2, .L221+8
 2904 23b0 0E10DEE5 		ldrb	r1, [lr, #14]	@ zero_extendqisi2
 2905 23b4 7B3EA0E3 		mov	r3, #1968
 2906 23b8 0888A0E1 		mov	r8, r8, asl #16
 2907 23bc 013083E2 		add	r3, r3, #1
 2908 23c0 38108DE5 		str	r1, [sp, #56]
 2909 23c4 030050E1 		cmp	r0, r3
 2910 23c8 0110D2E5 		ldrb	r1, [r2, #1]	@ zero_extendqisi2
 2911 23cc 283CA0E1 		mov	r3, r8, lsr #24
 2912 23d0 0020D2E5 		ldrb	r2, [r2, #0]	@ zero_extendqisi2
 2913 23d4 0668A0E1 		mov	r6, r6, asl #16
 2914 23d8 28308DE5 		str	r3, [sp, #40]
 2915 23dc 0AA8A0E1 		mov	sl, sl, asl #16
 2916 23e0 263CA0E1 		mov	r3, r6, lsr #24
 2917 23e4 0448A0E1 		mov	r4, r4, asl #16
 2918 23e8 20308DE5 		str	r3, [sp, #32]
 2919 23ec 34208DE5 		str	r2, [sp, #52]
 2920 23f0 243CA0E1 		mov	r3, r4, lsr #24
 2921 23f4 2A2CA0E1 		mov	r2, sl, lsr #24
 2922 23f8 0778A0E1 		mov	r7, r7, asl #16
 2923 23fc 2C208DE5 		str	r2, [sp, #44]
 2924 2400 18308DE5 		str	r3, [sp, #24]
 2925 2404 272CA0E1 		mov	r2, r7, lsr #24
 2926 2408 38309DE5 		ldr	r3, [sp, #56]
 2927 240c 0558A0E1 		mov	r5, r5, asl #16
 2928 2410 24208DE5 		str	r2, [sp, #36]
 2929 2414 252CA0E1 		mov	r2, r5, lsr #24
 2930 2418 1C208DE5 		str	r2, [sp, #28]
 2931 241c 0BB8A0E1 		mov	fp, fp, asl #16
 2932 2420 012083E2 		add	r2, r3, #1
 2933 2424 30108DE5 		str	r1, [sp, #48]
 2934 2428 0E20CEE5 		strb	r2, [lr, #14]
 2935 242c 2B1CA0E1 		mov	r1, fp, lsr #24
 2936 2430 28209DE5 		ldr	r2, [sp, #40]
 2937 2434 4D10CDE5 		strb	r1, [sp, #77]
 2938 2438 2C109DE5 		ldr	r1, [sp, #44]
 2939 243c 2330A0E3 		mov	r3, #35
 2940 2440 0998A0E1 		mov	r9, r9, asl #16
 2941 2444 4C30CDE5 		strb	r3, [sp, #76]
 2942 2448 5110CDE5 		strb	r1, [sp, #81]
 2943 244c 20108DE2 		add	r1, sp, #32
 2944 2450 0A0091E8 		ldmia	r1, {r1, r3}	@ phole ldm
 2945 2454 5320CDE5 		strb	r2, [sp, #83]
 2946 2458 1C209DE5 		ldr	r2, [sp, #28]
 2947 245c 29CCA0E1 		mov	ip, r9, lsr #24
 2948 2460 2BB8A0E1 		mov	fp, fp, lsr #16
 2949 2464 2998A0E1 		mov	r9, r9, lsr #16
 2950 2468 2AA8A0E1 		mov	sl, sl, lsr #16
 2951 246c 2888A0E1 		mov	r8, r8, lsr #16
 2952 2470 2778A0E1 		mov	r7, r7, lsr #16
 2953 2474 2668A0E1 		mov	r6, r6, lsr #16
 2954 2478 2558A0E1 		mov	r5, r5, lsr #16
 2955 247c 4FC0CDE5 		strb	ip, [sp, #79]
 2956 2480 5530CDE5 		strb	r3, [sp, #85]
 2957 2484 5710CDE5 		strb	r1, [sp, #87]
 2958 2488 5920CDE5 		strb	r2, [sp, #89]
 2959 248c 4EB0CDE5 		strb	fp, [sp, #78]
 2960 2490 5090CDE5 		strb	r9, [sp, #80]
 2961 2494 52A0CDE5 		strb	sl, [sp, #82]
 2962 2498 5480CDE5 		strb	r8, [sp, #84]
 2963 249c 5670CDE5 		strb	r7, [sp, #86]
 2964 24a0 5860CDE5 		strb	r6, [sp, #88]
 2965 24a4 5A50CDE5 		strb	r5, [sp, #90]
 2966 24a8 18309DE5 		ldr	r3, [sp, #24]
 2967 24ac 5B30CDE5 		strb	r3, [sp, #91]
 2968 24b0 1130A0E3 		mov	r3, #17
 2969 24b4 4830CDE5 		strb	r3, [sp, #72]
 2970 24b8 30209DE5 		ldr	r2, [sp, #48]
 2971 24bc 34108DE2 		add	r1, sp, #52
 2972 24c0 0A0091E8 		ldmia	r1, {r1, r3}	@ phole ldm
 2973 24c4 2448A0E1 		mov	r4, r4, lsr #16
 2974 24c8 FF00A0D3 		movle	r0, #255
 2975 24cc 0000A0C3 		movgt	r0, #0
 2976 24d0 01C8A0E3 		mov	ip, #65536
 2977 24d4 5C40CDE5 		strb	r4, [sp, #92]
 2978 24d8 4B20CDE5 		strb	r2, [sp, #75]
 2979 24dc 4930CDE5 		strb	r3, [sp, #73]
 2980 24e0 5D00CDE5 		strb	r0, [sp, #93]
 2981 24e4 4A10CDE5 		strb	r1, [sp, #74]
 2982 24e8 01C04CE2 		sub	ip, ip, #1
 2983 24ec 48008DE2 		add	r0, sp, #72
 2984 24f0 0010A0E3 		mov	r1, #0
 2985              	.L200:
 2986 24f4 0030D1E7 		ldrb	r3, [r1, r0]	@ zero_extendqisi2
 2987 24f8 0C3023E0 		eor	r3, r3, ip
 2988 24fc FF3003E2 		and	r3, r3, #255
 2989 2500 033223E0 		eor	r3, r3, r3, asl #4
 2990 2504 FF3003E2 		and	r3, r3, #255
 2991 2508 0324A0E1 		mov	r2, r3, asl #8
 2992 250c 2C2482E1 		orr	r2, r2, ip, lsr #8
 2993 2510 232222E0 		eor	r2, r2, r3, lsr #4
 2994 2514 832122E0 		eor	r2, r2, r3, asl #3
 2995 2518 011081E2 		add	r1, r1, #1
 2996 251c 0228A0E1 		mov	r2, r2, asl #16
 2997 2520 160051E3 		cmp	r1, #22
 2998 2524 22C8A0E1 		mov	ip, r2, lsr #16
 2999 2528 F1FFFF1A 		bne	.L200
 3000 252c 2C34A0E1 		mov	r3, ip, lsr #8
 3001 2530 0000A0E3 		mov	r0, #0
 3002 2534 3F1081E2 		add	r1, r1, #63
 3003 2538 4D31CDE5 		strb	r3, [sp, #333]
 3004 253c 4CC1CDE5 		strb	ip, [sp, #332]
 3005 2540 FEFFFFEB 		bl	comm_send_ch
 3006 2544 0000A0E3 		mov	r0, #0
 3007 2548 4810DDE5 		ldrb	r1, [sp, #72]	@ zero_extendqisi2
 3008 254c FEFFFFEB 		bl	comm_send_ch
 3009 2550 0000A0E3 		mov	r0, #0
 3010 2554 4910DDE5 		ldrb	r1, [sp, #73]	@ zero_extendqisi2
 3011 2558 FEFFFFEB 		bl	comm_send_ch
 3012 255c 0000A0E3 		mov	r0, #0
 3013 2560 4A10DDE5 		ldrb	r1, [sp, #74]	@ zero_extendqisi2
 3014 2564 FEFFFFEB 		bl	comm_send_ch
 3015 2568 0000A0E3 		mov	r0, #0
 3016 256c 4B10DDE5 		ldrb	r1, [sp, #75]	@ zero_extendqisi2
 3017 2570 FEFFFFEB 		bl	comm_send_ch
 3018 2574 0000A0E3 		mov	r0, #0
 3019 2578 4C10DDE5 		ldrb	r1, [sp, #76]	@ zero_extendqisi2
 3020 257c FEFFFFEB 		bl	comm_send_ch
 3021 2580 4830DDE5 		ldrb	r3, [sp, #72]	@ zero_extendqisi2
 3022 2584 000053E3 		cmp	r3, #0
 3023 2588 0B00000A 		beq	.L202
 3024 258c 0040A0E3 		mov	r4, #0
 3025              	.L204:
 3026 2590 151E8DE2 		add	r1, sp, #336
 3027 2594 043081E0 		add	r3, r1, r4
 3028 2598 031153E5 		ldrb	r1, [r3, #-259]	@ zero_extendqisi2
 3029 259c 0000A0E3 		mov	r0, #0
 3030 25a0 FEFFFFEB 		bl	comm_send_ch
 3031 25a4 013084E2 		add	r3, r4, #1
 3032 25a8 0338A0E1 		mov	r3, r3, asl #16
 3033 25ac 4820DDE5 		ldrb	r2, [sp, #72]	@ zero_extendqisi2
 3034 25b0 2348A0E1 		mov	r4, r3, lsr #16
 3035 25b4 040052E1 		cmp	r2, r4
 3036 25b8 F4FFFF8A 		bhi	.L204
 3037              	.L202:
 3038 25bc 4C11DDE5 		ldrb	r1, [sp, #332]	@ zero_extendqisi2
 3039 25c0 0000A0E3 		mov	r0, #0
 3040 25c4 FEFFFFEB 		bl	comm_send_ch
 3041 25c8 0000A0E3 		mov	r0, #0
 3042 25cc 4D11DDE5 		ldrb	r1, [sp, #333]	@ zero_extendqisi2
 3043 25d0 FEFFFFEB 		bl	comm_send_ch
 3044 25d4 56FFFFEA 		b	.L213
 3045              	.L222:
 3046              		.align	2
 3047              	.L221:
 3048 25d8 00000000 		.word	global_data
 3049 25dc 14000000 		.word	m_mavlink_status.2141+20
 3050 25e0 00000000 		.word	mavlink_system
 3051 25e4 00000000 		.word	m_mavlink_status.2141
 3053              		.align	2
 3054              		.global	handle_controller_timeouts
 3056              	handle_controller_timeouts:
 3057              		@ Function supports interworking.
 3058              		@ args = 0, pretend = 0, frame = 316
 3059              		@ frame_needed = 0, uses_anonymous_args = 0
 3060 25e8 F04F2DE9 		stmfd	sp!, {r4, r5, r6, r7, r8, r9, sl, fp, lr}
 3061 25ec 08269FE5 		ldr	r2, .L274
 3062 25f0 08B69FE5 		ldr	fp, .L274+4
 3063 25f4 0E20D2E5 		ldrb	r2, [r2, #14]	@ zero_extendqisi2
 3064 25f8 80309BE5 		ldr	r3, [fp, #128]	@ float
 3065 25fc 4FDF4DE2 		sub	sp, sp, #316
 3066 2600 24208DE5 		str	r2, [sp, #36]
 3067 2604 0320A0E1 		mov	r2, r3
 3068 2608 F4359FE5 		ldr	r3, .L274+8
 3069 260c 0030D3E5 		ldrb	r3, [r3, #0]	@ zero_extendqisi2
 3070 2610 20308DE5 		str	r3, [sp, #32]
 3071 2614 E8359FE5 		ldr	r3, .L274+8
 3072 2618 0130D3E5 		ldrb	r3, [r3, #1]	@ zero_extendqisi2
 3073 261c 1C308DE5 		str	r3, [sp, #28]
 3074 2620 24309DE5 		ldr	r3, [sp, #36]
 3075 2624 88E09BE5 		ldr	lr, [fp, #136]	@ float
 3076 2628 013083E2 		add	r3, r3, #1
 3077 262c 0E60A0E1 		mov	r6, lr
 3078 2630 84C09BE5 		ldr	ip, [fp, #132]	@ float
 3079 2634 8C409BE5 		ldr	r4, [fp, #140]	@ float
 3080 2638 00308DE5 		str	r3, [sp, #0]
 3081 263c 4234A0E1 		mov	r3, r2, asr #8
 3082 2640 18308DE5 		str	r3, [sp, #24]
 3083 2644 4638A0E1 		mov	r3, r6, asr #16
 3084 2648 0C50A0E1 		mov	r5, ip
 3085 264c 14308DE5 		str	r3, [sp, #20]
 3086 2650 04C0A0E1 		mov	ip, r4
 3087 2654 4634A0E1 		mov	r3, r6, asr #8
 3088 2658 10308DE5 		str	r3, [sp, #16]
 3089 265c 4C3CA0E1 		mov	r3, ip, asr #24
 3090 2660 0C308DE5 		str	r3, [sp, #12]
 3091 2664 4C38A0E1 		mov	r3, ip, asr #16
 3092 2668 08308DE5 		str	r3, [sp, #8]
 3093 266c 4C34A0E1 		mov	r3, ip, asr #8
 3094 2670 04308DE5 		str	r3, [sp, #4]
 3095 2674 3330A0E3 		mov	r3, #51
 3096 2678 3830CDE5 		strb	r3, [sp, #56]
 3097 267c 18309DE5 		ldr	r3, [sp, #24]
 3098 2680 42ECA0E1 		mov	lr, r2, asr #24
 3099 2684 4248A0E1 		mov	r4, r2, asr #16
 3100 2688 3B30CDE5 		strb	r3, [sp, #59]
 3101 268c 3C20CDE5 		strb	r2, [sp, #60]
 3102 2690 10309DE5 		ldr	r3, [sp, #16]
 3103 2694 14209DE5 		ldr	r2, [sp, #20]
 3104 2698 45A8A0E1 		mov	sl, r5, asr #16
 3105 269c 458CA0E1 		mov	r8, r5, asr #24
 3106 26a0 4594A0E1 		mov	r9, r5, asr #8
 3107 26a4 467CA0E1 		mov	r7, r6, asr #24
 3108 26a8 3EA0CDE5 		strb	sl, [sp, #62]
 3109 26ac 4050CDE5 		strb	r5, [sp, #64]
 3110 26b0 4220CDE5 		strb	r2, [sp, #66]
 3111 26b4 39E0CDE5 		strb	lr, [sp, #57]
 3112 26b8 3A40CDE5 		strb	r4, [sp, #58]
 3113 26bc 3D80CDE5 		strb	r8, [sp, #61]
 3114 26c0 3F90CDE5 		strb	r9, [sp, #63]
 3115 26c4 4170CDE5 		strb	r7, [sp, #65]
 3116 26c8 4330CDE5 		strb	r3, [sp, #67]
 3117 26cc 0C209DE5 		ldr	r2, [sp, #12]
 3118 26d0 08309DE5 		ldr	r3, [sp, #8]
 3119 26d4 4520CDE5 		strb	r2, [sp, #69]
 3120 26d8 04209DE5 		ldr	r2, [sp, #4]
 3121 26dc 4630CDE5 		strb	r3, [sp, #70]
 3122 26e0 1030A0E3 		mov	r3, #16
 3123 26e4 4720CDE5 		strb	r2, [sp, #71]
 3124 26e8 3430CDE5 		strb	r3, [sp, #52]
 3125 26ec 1C208DE2 		add	r2, sp, #28
 3126 26f0 0C0092E8 		ldmia	r2, {r2, r3}	@ phole ldm
 3127 26f4 3720CDE5 		strb	r2, [sp, #55]
 3128 26f8 3630CDE5 		strb	r3, [sp, #54]
 3129 26fc 00209DE5 		ldr	r2, [sp, #0]
 3130 2700 F4349FE5 		ldr	r3, .L274
 3131 2704 4460CDE5 		strb	r6, [sp, #68]
 3132 2708 48C0CDE5 		strb	ip, [sp, #72]
 3133 270c 0E20C3E5 		strb	r2, [r3, #14]
 3134 2710 24309DE5 		ldr	r3, [sp, #36]
 3135 2714 01C8A0E3 		mov	ip, #65536
 3136 2718 3530CDE5 		strb	r3, [sp, #53]
 3137 271c 0160A0E1 		mov	r6, r1
 3138 2720 0050A0E1 		mov	r5, r0
 3139 2724 01C04CE2 		sub	ip, ip, #1
 3140 2728 34A08DE2 		add	sl, sp, #52
 3141 272c 0010A0E3 		mov	r1, #0
 3142              	.L224:
 3143 2730 0A30D1E7 		ldrb	r3, [r1, sl]	@ zero_extendqisi2
 3144 2734 0C3023E0 		eor	r3, r3, ip
 3145 2738 FF3003E2 		and	r3, r3, #255
 3146 273c 033223E0 		eor	r3, r3, r3, asl #4
 3147 2740 FF3003E2 		and	r3, r3, #255
 3148 2744 0324A0E1 		mov	r2, r3, asl #8
 3149 2748 2C2482E1 		orr	r2, r2, ip, lsr #8
 3150 274c 232222E0 		eor	r2, r2, r3, lsr #4
 3151 2750 832122E0 		eor	r2, r2, r3, asl #3
 3152 2754 011081E2 		add	r1, r1, #1
 3153 2758 0228A0E1 		mov	r2, r2, asl #16
 3154 275c 150051E3 		cmp	r1, #21
 3155 2760 22C8A0E1 		mov	ip, r2, lsr #16
 3156 2764 F1FFFF1A 		bne	.L224
 3157 2768 2C34A0E1 		mov	r3, ip, lsr #8
 3158 276c 0000A0E3 		mov	r0, #0
 3159 2770 401081E2 		add	r1, r1, #64
 3160 2774 3931CDE5 		strb	r3, [sp, #313]
 3161 2778 38C1CDE5 		strb	ip, [sp, #312]
 3162 277c FEFFFFEB 		bl	comm_send_ch
 3163 2780 0000A0E3 		mov	r0, #0
 3164 2784 3410DDE5 		ldrb	r1, [sp, #52]	@ zero_extendqisi2
 3165 2788 FEFFFFEB 		bl	comm_send_ch
 3166 278c 0000A0E3 		mov	r0, #0
 3167 2790 3510DDE5 		ldrb	r1, [sp, #53]	@ zero_extendqisi2
 3168 2794 FEFFFFEB 		bl	comm_send_ch
 3169 2798 0000A0E3 		mov	r0, #0
 3170 279c 3610DDE5 		ldrb	r1, [sp, #54]	@ zero_extendqisi2
 3171 27a0 FEFFFFEB 		bl	comm_send_ch
 3172 27a4 0000A0E3 		mov	r0, #0
 3173 27a8 3710DDE5 		ldrb	r1, [sp, #55]	@ zero_extendqisi2
 3174 27ac FEFFFFEB 		bl	comm_send_ch
 3175 27b0 0000A0E3 		mov	r0, #0
 3176 27b4 3810DDE5 		ldrb	r1, [sp, #56]	@ zero_extendqisi2
 3177 27b8 FEFFFFEB 		bl	comm_send_ch
 3178 27bc 3430DDE5 		ldrb	r3, [sp, #52]	@ zero_extendqisi2
 3179 27c0 000053E3 		cmp	r3, #0
 3180 27c4 0B00000A 		beq	.L226
 3181 27c8 0040A0E3 		mov	r4, #0
 3182              	.L228:
 3183 27cc 4F2F8DE2 		add	r2, sp, #316
 3184 27d0 043082E0 		add	r3, r2, r4
 3185 27d4 031153E5 		ldrb	r1, [r3, #-259]	@ zero_extendqisi2
 3186 27d8 0000A0E3 		mov	r0, #0
 3187 27dc FEFFFFEB 		bl	comm_send_ch
 3188 27e0 013084E2 		add	r3, r4, #1
 3189 27e4 0338A0E1 		mov	r3, r3, asl #16
 3190 27e8 3420DDE5 		ldrb	r2, [sp, #52]	@ zero_extendqisi2
 3191 27ec 2348A0E1 		mov	r4, r3, lsr #16
 3192 27f0 040052E1 		cmp	r2, r4
 3193 27f4 F4FFFF8A 		bhi	.L228
 3194              	.L226:
 3195 27f8 0000A0E3 		mov	r0, #0
 3196 27fc 3811DDE5 		ldrb	r1, [sp, #312]	@ zero_extendqisi2
 3197 2800 FEFFFFEB 		bl	comm_send_ch
 3198 2804 3911DDE5 		ldrb	r1, [sp, #313]	@ zero_extendqisi2
 3199 2808 0000A0E3 		mov	r0, #0
 3200 280c FEFFFFEB 		bl	comm_send_ch
 3201 2810 B8199BE5 		ldr	r1, [fp, #2488]
 3202 2814 BC299BE5 		ldr	r2, [fp, #2492]
 3203 2818 023091E1 		orrs	r3, r1, r2
 3204 281c 0900000A 		beq	.L229
 3205 2820 D8339FE5 		ldr	r3, .L274+4
 3206 2824 0540A0E1 		mov	r4, r5
 3207 2828 DC0293E5 		ldr	r0, [r3, #732]	@ float
 3208 282c 0650A0E1 		mov	r5, r6
 3209 2830 014054E0 		subs	r4, r4, r1
 3210 2834 0250C5E0 		sbc	r5, r5, r2
 3211 2838 FEFFFFEB 		bl	__fixunssfsi
 3212 283c 000055E3 		cmp	r5, #0
 3213 2840 0010A0E3 		mov	r1, #0
 3214 2844 E400009A 		bls	.L272
 3215              	.L229:
 3216 2848 0030A0E3 		mov	r3, #0
 3217 284c 3131CBE5 		strb	r3, [fp, #305]
 3218 2850 2C31CBE5 		strb	r3, [fp, #300]
 3219              	.L233:
 3220 2854 0050A0E3 		mov	r5, #0
 3221 2858 0140A0E3 		mov	r4, #1
 3222 285c 60029BE5 		ldr	r0, [fp, #608]	@ float
 3223 2860 0010A0E3 		mov	r1, #0
 3224 2864 2D51CBE5 		strb	r5, [fp, #301]
 3225 2868 3341CBE5 		strb	r4, [fp, #307]
 3226 286c FEFFFFEB 		bl	__gtsf2
 3227 2870 88339FE5 		ldr	r3, .L274+4
 3228 2874 050050E1 		cmp	r0, r5
 3229 2878 3441C3C5 		strgtb	r4, [r3, #308]
 3230 287c 3451C3D5 		strleb	r5, [r3, #308]
 3231 2880 64029BE5 		ldr	r0, [fp, #612]	@ float
 3232 2884 0010A0E3 		mov	r1, #0
 3233 2888 FEFFFFEB 		bl	__gtsf2
 3234 288c 6C239FE5 		ldr	r2, .L274+4
 3235 2890 000050E3 		cmp	r0, #0
 3236 2894 0130A0C3 		movgt	r3, #1
 3237 2898 0030A0D3 		movle	r3, #0
 3238 289c 3531C2C5 		strgtb	r3, [r2, #309]
 3239 28a0 3531C2D5 		strleb	r3, [r2, #309]
 3240 28a4 68029BE5 		ldr	r0, [fp, #616]	@ float
 3241 28a8 0010A0E3 		mov	r1, #0
 3242 28ac FEFFFFEB 		bl	__gtsf2
 3243 28b0 48239FE5 		ldr	r2, .L274+4
 3244 28b4 000050E3 		cmp	r0, #0
 3245 28b8 0130A0C3 		movgt	r3, #1
 3246 28bc 0030A0D3 		movle	r3, #0
 3247 28c0 3631C2C5 		strgtb	r3, [r2, #310]
 3248 28c4 3631C2D5 		strleb	r3, [r2, #310]
 3249 28c8 2C21DBE5 		ldrb	r2, [fp, #300]	@ zero_extendqisi2
 3250 28cc 000052E3 		cmp	r2, #0
 3251 28d0 28339F05 		ldreq	r3, .L274+4
 3252 28d4 3131D305 		ldreqb	r3, [r3, #305]	@ zero_extendqisi2
 3253 28d8 0380A013 		movne	r8, #3
 3254 28dc 2C308D05 		streq	r3, [sp, #44]
 3255 28e0 2C808D15 		strne	r8, [sp, #44]
 3256 28e4 0280A001 		moveq	r8, r2
 3257 28e8 0C239FE5 		ldr	r2, .L274
 3258 28ec 10339FE5 		ldr	r3, .L274+8
 3259 28f0 0E50D2E5 		ldrb	r5, [r2, #14]	@ zero_extendqisi2
 3260 28f4 0060D3E5 		ldrb	r6, [r3, #0]	@ zero_extendqisi2
 3261 28f8 0190D3E5 		ldrb	r9, [r3, #1]	@ zero_extendqisi2
 3262 28fc 013085E2 		add	r3, r5, #1
 3263 2900 2D11DBE5 		ldrb	r1, [fp, #301]	@ zero_extendqisi2
 3264 2904 34C1DBE5 		ldrb	ip, [fp, #308]	@ zero_extendqisi2
 3265 2908 3301DBE5 		ldrb	r0, [fp, #307]	@ zero_extendqisi2
 3266 290c 35E1DBE5 		ldrb	lr, [fp, #309]	@ zero_extendqisi2
 3267 2910 3641DBE5 		ldrb	r4, [fp, #310]	@ zero_extendqisi2
 3268 2914 0E30C2E5 		strb	r3, [r2, #14]
 3269 2918 3420A0E3 		mov	r2, #52
 3270 291c 0030E0E3 		mvn	r3, #0
 3271 2920 3820CDE5 		strb	r2, [sp, #56]
 3272 2924 2C209DE5 		ldr	r2, [sp, #44]
 3273 2928 3C30CDE5 		strb	r3, [sp, #60]
 3274 292c 093083E2 		add	r3, r3, #9
 3275 2930 3EC0CDE5 		strb	ip, [sp, #62]
 3276 2934 3920CDE5 		strb	r2, [sp, #57]
 3277 2938 01C8A0E3 		mov	ip, #65536
 3278 293c 3A80CDE5 		strb	r8, [sp, #58]
 3279 2940 3D00CDE5 		strb	r0, [sp, #61]
 3280 2944 3FE0CDE5 		strb	lr, [sp, #63]
 3281 2948 4040CDE5 		strb	r4, [sp, #64]
 3282 294c 3430CDE5 		strb	r3, [sp, #52]
 3283 2950 3660CDE5 		strb	r6, [sp, #54]
 3284 2954 3790CDE5 		strb	r9, [sp, #55]
 3285 2958 3550CDE5 		strb	r5, [sp, #53]
 3286 295c 3B10CDE5 		strb	r1, [sp, #59]
 3287 2960 01C04CE2 		sub	ip, ip, #1
 3288 2964 0010A0E3 		mov	r1, #0
 3289              	.L249:
 3290 2968 0A30D1E7 		ldrb	r3, [r1, sl]	@ zero_extendqisi2
 3291 296c 0C3023E0 		eor	r3, r3, ip
 3292 2970 FF3003E2 		and	r3, r3, #255
 3293 2974 033223E0 		eor	r3, r3, r3, asl #4
 3294 2978 FF3003E2 		and	r3, r3, #255
 3295 297c 0324A0E1 		mov	r2, r3, asl #8
 3296 2980 2C2482E1 		orr	r2, r2, ip, lsr #8
 3297 2984 232222E0 		eor	r2, r2, r3, lsr #4
 3298 2988 832122E0 		eor	r2, r2, r3, asl #3
 3299 298c 011081E2 		add	r1, r1, #1
 3300 2990 0228A0E1 		mov	r2, r2, asl #16
 3301 2994 0D0051E3 		cmp	r1, #13
 3302 2998 22C8A0E1 		mov	ip, r2, lsr #16
 3303 299c F1FFFF1A 		bne	.L249
 3304 29a0 2C34A0E1 		mov	r3, ip, lsr #8
 3305 29a4 0000A0E3 		mov	r0, #0
 3306 29a8 481081E2 		add	r1, r1, #72
 3307 29ac 3931CDE5 		strb	r3, [sp, #313]
 3308 29b0 38C1CDE5 		strb	ip, [sp, #312]
 3309 29b4 FEFFFFEB 		bl	comm_send_ch
 3310 29b8 0000A0E3 		mov	r0, #0
 3311 29bc 3410DDE5 		ldrb	r1, [sp, #52]	@ zero_extendqisi2
 3312 29c0 FEFFFFEB 		bl	comm_send_ch
 3313 29c4 0000A0E3 		mov	r0, #0
 3314 29c8 3510DDE5 		ldrb	r1, [sp, #53]	@ zero_extendqisi2
 3315 29cc FEFFFFEB 		bl	comm_send_ch
 3316 29d0 0000A0E3 		mov	r0, #0
 3317 29d4 3610DDE5 		ldrb	r1, [sp, #54]	@ zero_extendqisi2
 3318 29d8 FEFFFFEB 		bl	comm_send_ch
 3319 29dc 0000A0E3 		mov	r0, #0
 3320 29e0 3710DDE5 		ldrb	r1, [sp, #55]	@ zero_extendqisi2
 3321 29e4 FEFFFFEB 		bl	comm_send_ch
 3322 29e8 0000A0E3 		mov	r0, #0
 3323 29ec 3810DDE5 		ldrb	r1, [sp, #56]	@ zero_extendqisi2
 3324 29f0 FEFFFFEB 		bl	comm_send_ch
 3325 29f4 3430DDE5 		ldrb	r3, [sp, #52]	@ zero_extendqisi2
 3326 29f8 000053E3 		cmp	r3, #0
 3327 29fc 0B00000A 		beq	.L251
 3328 2a00 0040A0E3 		mov	r4, #0
 3329              	.L253:
 3330 2a04 4F2F8DE2 		add	r2, sp, #316
 3331 2a08 043082E0 		add	r3, r2, r4
 3332 2a0c 031153E5 		ldrb	r1, [r3, #-259]	@ zero_extendqisi2
 3333 2a10 0000A0E3 		mov	r0, #0
 3334 2a14 FEFFFFEB 		bl	comm_send_ch
 3335 2a18 013084E2 		add	r3, r4, #1
 3336 2a1c 0338A0E1 		mov	r3, r3, asl #16
 3337 2a20 3420DDE5 		ldrb	r2, [sp, #52]	@ zero_extendqisi2
 3338 2a24 2348A0E1 		mov	r4, r3, lsr #16
 3339 2a28 040052E1 		cmp	r2, r4
 3340 2a2c F4FFFF8A 		bhi	.L253
 3341              	.L251:
 3342 2a30 0000A0E3 		mov	r0, #0
 3343 2a34 3811DDE5 		ldrb	r1, [sp, #312]	@ zero_extendqisi2
 3344 2a38 FEFFFFEB 		bl	comm_send_ch
 3345 2a3c 0000A0E3 		mov	r0, #0
 3346 2a40 3911DDE5 		ldrb	r1, [sp, #313]	@ zero_extendqisi2
 3347 2a44 FEFFFFEB 		bl	comm_send_ch
 3348 2a48 2C21DBE5 		ldrb	r2, [fp, #300]	@ zero_extendqisi2
 3349 2a4c 000052E3 		cmp	r2, #0
 3350 2a50 A8319F05 		ldreq	r3, .L274+4
 3351 2a54 3131D305 		ldreqb	r3, [r3, #305]	@ zero_extendqisi2
 3352 2a58 0390A013 		movne	r9, #3
 3353 2a5c 30308D05 		streq	r3, [sp, #48]
 3354 2a60 30908D15 		strne	r9, [sp, #48]
 3355 2a64 9C119FE5 		ldr	r1, .L274+12
 3356 2a68 94319FE5 		ldr	r3, .L274+8
 3357 2a6c 0E50D1E5 		ldrb	r5, [r1, #14]	@ zero_extendqisi2
 3358 2a70 0290A001 		moveq	r9, r2
 3359 2a74 0020D3E5 		ldrb	r2, [r3, #0]	@ zero_extendqisi2
 3360 2a78 0180D3E5 		ldrb	r8, [r3, #1]	@ zero_extendqisi2
 3361 2a7c 013085E2 		add	r3, r5, #1
 3362 2a80 28208DE5 		str	r2, [sp, #40]
 3363 2a84 33C1DBE5 		ldrb	ip, [fp, #307]	@ zero_extendqisi2
 3364 2a88 3661DBE5 		ldrb	r6, [fp, #310]	@ zero_extendqisi2
 3365 2a8c 2D01DBE5 		ldrb	r0, [fp, #301]	@ zero_extendqisi2
 3366 2a90 34E1DBE5 		ldrb	lr, [fp, #308]	@ zero_extendqisi2
 3367 2a94 3541DBE5 		ldrb	r4, [fp, #309]	@ zero_extendqisi2
 3368 2a98 0E30C1E5 		strb	r3, [r1, #14]
 3369 2a9c 30309DE5 		ldr	r3, [sp, #48]
 3370 2aa0 3420A0E3 		mov	r2, #52
 3371 2aa4 3820CDE5 		strb	r2, [sp, #56]
 3372 2aa8 3930CDE5 		strb	r3, [sp, #57]
 3373 2aac 28209DE5 		ldr	r2, [sp, #40]
 3374 2ab0 0030E0E3 		mvn	r3, #0
 3375 2ab4 3C30CDE5 		strb	r3, [sp, #60]
 3376 2ab8 093083E2 		add	r3, r3, #9
 3377 2abc 3DC0CDE5 		strb	ip, [sp, #61]
 3378 2ac0 3A90CDE5 		strb	r9, [sp, #58]
 3379 2ac4 01C8A0E3 		mov	ip, #65536
 3380 2ac8 3B00CDE5 		strb	r0, [sp, #59]
 3381 2acc 3EE0CDE5 		strb	lr, [sp, #62]
 3382 2ad0 3F40CDE5 		strb	r4, [sp, #63]
 3383 2ad4 4060CDE5 		strb	r6, [sp, #64]
 3384 2ad8 3430CDE5 		strb	r3, [sp, #52]
 3385 2adc 3620CDE5 		strb	r2, [sp, #54]
 3386 2ae0 3780CDE5 		strb	r8, [sp, #55]
 3387 2ae4 3550CDE5 		strb	r5, [sp, #53]
 3388 2ae8 01C04CE2 		sub	ip, ip, #1
 3389 2aec 0010A0E3 		mov	r1, #0
 3390              	.L257:
 3391 2af0 0A30D1E7 		ldrb	r3, [r1, sl]	@ zero_extendqisi2
 3392 2af4 0C3023E0 		eor	r3, r3, ip
 3393 2af8 FF3003E2 		and	r3, r3, #255
 3394 2afc 033223E0 		eor	r3, r3, r3, asl #4
 3395 2b00 FF3003E2 		and	r3, r3, #255
 3396 2b04 0324A0E1 		mov	r2, r3, asl #8
 3397 2b08 2C2482E1 		orr	r2, r2, ip, lsr #8
 3398 2b0c 232222E0 		eor	r2, r2, r3, lsr #4
 3399 2b10 832122E0 		eor	r2, r2, r3, asl #3
 3400 2b14 011081E2 		add	r1, r1, #1
 3401 2b18 0228A0E1 		mov	r2, r2, asl #16
 3402 2b1c 0D0051E3 		cmp	r1, #13
 3403 2b20 22C8A0E1 		mov	ip, r2, lsr #16
 3404 2b24 F1FFFF1A 		bne	.L257
 3405 2b28 2C34A0E1 		mov	r3, ip, lsr #8
 3406 2b2c 0100A0E3 		mov	r0, #1
 3407 2b30 481081E2 		add	r1, r1, #72
 3408 2b34 3931CDE5 		strb	r3, [sp, #313]
 3409 2b38 38C1CDE5 		strb	ip, [sp, #312]
 3410 2b3c FEFFFFEB 		bl	comm_send_ch
 3411 2b40 0100A0E3 		mov	r0, #1
 3412 2b44 3410DDE5 		ldrb	r1, [sp, #52]	@ zero_extendqisi2
 3413 2b48 FEFFFFEB 		bl	comm_send_ch
 3414 2b4c 0100A0E3 		mov	r0, #1
 3415 2b50 3510DDE5 		ldrb	r1, [sp, #53]	@ zero_extendqisi2
 3416 2b54 FEFFFFEB 		bl	comm_send_ch
 3417 2b58 0100A0E3 		mov	r0, #1
 3418 2b5c 3610DDE5 		ldrb	r1, [sp, #54]	@ zero_extendqisi2
 3419 2b60 FEFFFFEB 		bl	comm_send_ch
 3420 2b64 0100A0E3 		mov	r0, #1
 3421 2b68 3710DDE5 		ldrb	r1, [sp, #55]	@ zero_extendqisi2
 3422 2b6c FEFFFFEB 		bl	comm_send_ch
 3423 2b70 0100A0E3 		mov	r0, #1
 3424 2b74 3810DDE5 		ldrb	r1, [sp, #56]	@ zero_extendqisi2
 3425 2b78 FEFFFFEB 		bl	comm_send_ch
 3426 2b7c 3430DDE5 		ldrb	r3, [sp, #52]	@ zero_extendqisi2
 3427 2b80 000053E3 		cmp	r3, #0
 3428 2b84 0B00000A 		beq	.L259
 3429 2b88 0040A0E3 		mov	r4, #0
 3430              	.L261:
 3431 2b8c 4F2F8DE2 		add	r2, sp, #316
 3432 2b90 043082E0 		add	r3, r2, r4
 3433 2b94 031153E5 		ldrb	r1, [r3, #-259]	@ zero_extendqisi2
 3434 2b98 0100A0E3 		mov	r0, #1
 3435 2b9c FEFFFFEB 		bl	comm_send_ch
 3436 2ba0 013084E2 		add	r3, r4, #1
 3437 2ba4 0338A0E1 		mov	r3, r3, asl #16
 3438 2ba8 3420DDE5 		ldrb	r2, [sp, #52]	@ zero_extendqisi2
 3439 2bac 2348A0E1 		mov	r4, r3, lsr #16
 3440 2bb0 040052E1 		cmp	r2, r4
 3441 2bb4 F4FFFF8A 		bhi	.L261
 3442              	.L259:
 3443 2bb8 3811DDE5 		ldrb	r1, [sp, #312]	@ zero_extendqisi2
 3444 2bbc 0100A0E3 		mov	r0, #1
 3445 2bc0 FEFFFFEB 		bl	comm_send_ch
 3446 2bc4 0100A0E3 		mov	r0, #1
 3447 2bc8 3911DDE5 		ldrb	r1, [sp, #313]	@ zero_extendqisi2
 3448 2bcc FEFFFFEB 		bl	comm_send_ch
 3449 2bd0 4FDF8DE2 		add	sp, sp, #316
 3450 2bd4 F04FBDE8 		ldmfd	sp!, {r4, r5, r6, r7, r8, r9, sl, fp, lr}
 3451 2bd8 1EFF2FE1 		bx	lr
 3452              	.L272:
 3453 2bdc 0300000A 		beq	.L273
 3454              	.L231:
 3455 2be0 0130A0E3 		mov	r3, #1
 3456 2be4 3131CBE5 		strb	r3, [fp, #305]
 3457 2be8 2C31CBE5 		strb	r3, [fp, #300]
 3458 2bec 18FFFFEA 		b	.L233
 3459              	.L273:
 3460 2bf0 000054E1 		cmp	r4, r0
 3461 2bf4 F9FFFF9A 		bls	.L231
 3462 2bf8 12FFFFEA 		b	.L229
 3463              	.L275:
 3464              		.align	2
 3465              	.L274:
 3466 2bfc 00000000 		.word	m_mavlink_status.2141
 3467 2c00 00000000 		.word	global_data
 3468 2c04 00000000 		.word	mavlink_system
 3469 2c08 14000000 		.word	m_mavlink_status.2141+20
 3471              		.align	2
 3472              		.global	communication_send_attitude_position
 3474              	communication_send_attitude_position:
 3475              		@ Function supports interworking.
 3476              		@ args = 0, pretend = 0, frame = 540
 3477              		@ frame_needed = 0, uses_anonymous_args = 0
 3478 2c0c F04F2DE9 		stmfd	sp!, {r4, r5, r6, r7, r8, r9, sl, fp, lr}
 3479 2c10 B4299FE5 		ldr	r2, .L310
 3480 2c14 87DF4DE2 		sub	sp, sp, #540
 3481 2c18 E0008DE5 		str	r0, [sp, #224]
 3482 2c1c E4108DE5 		str	r1, [sp, #228]
 3483 2c20 6C0392E5 		ldr	r0, [r2, #876]	@ float
 3484 2c24 FE15A0E3 		mov	r1, #1065353216
 3485 2c28 FEFFFFEB 		bl	__eqsf2
 3486 2c2c 000050E3 		cmp	r0, #0
 3487 2c30 D100000A 		beq	.L308
 3488              	.L277:
 3489 2c34 90399FE5 		ldr	r3, .L310
 3490 2c38 FE15A0E3 		mov	r1, #1065353216
 3491 2c3c 8C0393E5 		ldr	r0, [r3, #908]	@ float
 3492 2c40 FEFFFFEB 		bl	__eqsf2
 3493 2c44 000050E3 		cmp	r0, #0
 3494 2c48 7C599FE5 		ldr	r5, .L310
 3495 2c4c 0200000A 		beq	.L309
 3496              	.L298:
 3497 2c50 87DF8DE2 		add	sp, sp, #540
 3498 2c54 F04FBDE8 		ldmfd	sp!, {r4, r5, r6, r7, r8, r9, sl, fp, lr}
 3499 2c58 1EFF2FE1 		bx	lr
 3500              	.L309:
 3501 2c5c FEFFFFEB 		bl	sys_time_clock_get_unix_offset
 3502 2c60 E0708DE2 		add	r7, sp, #224
 3503 2c64 800197E8 		ldmia	r7, {r7-r8}
 3504 2c68 743095E5 		ldr	r3, [r5, #116]	@ float
 3505 2c6c 007097E0 		adds	r7, r7, r0
 3506 2c70 0180A8E0 		adc	r8, r8, r1
 3507 2c74 03B0A0E1 		mov	fp, r3
 3508 2c78 782095E5 		ldr	r2, [r5, #120]	@ float
 3509 2c7c 2804A0E1 		mov	r0, r8, lsr #8
 3510 2c80 38008DE5 		str	r0, [sp, #56]
 3511 2c84 4B08A0E1 		mov	r0, fp, asr #16
 3512 2c88 F0208DE5 		str	r2, [sp, #240]	@ float
 3513 2c8c 34008DE5 		str	r0, [sp, #52]
 3514 2c90 4B04A0E1 		mov	r0, fp, asr #8
 3515 2c94 30008DE5 		str	r0, [sp, #48]
 3516 2c98 F0009DE5 		ldr	r0, [sp, #240]
 3517 2c9c 400CA0E1 		mov	r0, r0, asr #24
 3518 2ca0 2C008DE5 		str	r0, [sp, #44]
 3519 2ca4 F0009DE5 		ldr	r0, [sp, #240]
 3520 2ca8 4008A0E1 		mov	r0, r0, asr #16
 3521 2cac 7CC095E5 		ldr	ip, [r5, #124]	@ float
 3522 2cb0 28008DE5 		str	r0, [sp, #40]
 3523 2cb4 F0009DE5 		ldr	r0, [sp, #240]
 3524 2cb8 ECC08DE5 		str	ip, [sp, #236]	@ float
 3525 2cbc 4004A0E1 		mov	r0, r0, asr #8
 3526 2cc0 24008DE5 		str	r0, [sp, #36]
 3527 2cc4 EC009DE5 		ldr	r0, [sp, #236]
 3528 2cc8 400CA0E1 		mov	r0, r0, asr #24
 3529 2ccc 20008DE5 		str	r0, [sp, #32]
 3530 2cd0 EC009DE5 		ldr	r0, [sp, #236]
 3531 2cd4 4008A0E1 		mov	r0, r0, asr #16
 3532 2cd8 68E095E5 		ldr	lr, [r5, #104]	@ float
 3533 2cdc 1C008DE5 		str	r0, [sp, #28]
 3534 2ce0 EC009DE5 		ldr	r0, [sp, #236]
 3535 2ce4 0EC0A0E1 		mov	ip, lr
 3536 2ce8 4004A0E1 		mov	r0, r0, asr #8
 3537 2cec 6C4095E5 		ldr	r4, [r5, #108]	@ float
 3538 2cf0 18008DE5 		str	r0, [sp, #24]
 3539 2cf4 705095E5 		ldr	r5, [r5, #112]	@ float
 3540 2cf8 4C0CA0E1 		mov	r0, ip, asr #24
 3541 2cfc 14008DE5 		str	r0, [sp, #20]
 3542 2d00 4C08A0E1 		mov	r0, ip, asr #16
 3543 2d04 28E8A0E1 		mov	lr, r8, lsr #16
 3544 2d08 E8408DE5 		str	r4, [sp, #232]	@ float
 3545 2d0c 10518DE5 		str	r5, [sp, #272]	@ float
 3546 2d10 284CA0E1 		mov	r4, r8, lsr #24
 3547 2d14 0050A0E3 		mov	r5, #0
 3548 2d18 10008DE5 		str	r0, [sp, #16]
 3549 2d1c 4C04A0E1 		mov	r0, ip, asr #8
 3550 2d20 48408DE5 		str	r4, [sp, #72]
 3551 2d24 4C508DE5 		str	r5, [sp, #76]
 3552 2d28 40E08DE5 		str	lr, [sp, #64]
 3553 2d2c 44508DE5 		str	r5, [sp, #68]
 3554 2d30 3C508DE5 		str	r5, [sp, #60]
 3555 2d34 0C008DE5 		str	r0, [sp, #12]
 3556 2d38 E8009DE5 		ldr	r0, [sp, #232]
 3557 2d3c 400CA0E1 		mov	r0, r0, asr #24
 3558 2d40 08008DE5 		str	r0, [sp, #8]
 3559 2d44 1F00A0E3 		mov	r0, #31
 3560 2d48 1801CDE5 		strb	r0, [sp, #280]
 3561 2d4c 4800DDE5 		ldrb	r0, [sp, #72]	@ zero_extendqisi2
 3562 2d50 2734A0E1 		mov	r3, r7, lsr #8
 3563 2d54 1901CDE5 		strb	r0, [sp, #281]
 3564 2d58 4000DDE5 		ldrb	r0, [sp, #64]	@ zero_extendqisi2
 3565 2d5c 083C83E1 		orr	r3, r3, r8, asl #24
 3566 2d60 34209DE5 		ldr	r2, [sp, #52]
 3567 2d64 05A0A0E1 		mov	sl, r5
 3568 2d68 1A01CDE5 		strb	r0, [sp, #282]
 3569 2d6c 275CA0E1 		mov	r5, r7, lsr #24
 3570 2d70 3800DDE5 		ldrb	r0, [sp, #56]	@ zero_extendqisi2
 3571 2d74 1F31CDE5 		strb	r3, [sp, #287]
 3572 2d78 30309DE5 		ldr	r3, [sp, #48]
 3573 2d7c 085485E1 		orr	r5, r5, r8, asl #8
 3574 2d80 2718A0E1 		mov	r1, r7, lsr #16
 3575 2d84 4BECA0E1 		mov	lr, fp, asr #24
 3576 2d88 081881E1 		orr	r1, r1, r8, asl #16
 3577 2d8c 2C409DE5 		ldr	r4, [sp, #44]
 3578 2d90 1B01CDE5 		strb	r0, [sp, #283]
 3579 2d94 1C81CDE5 		strb	r8, [sp, #284]
 3580 2d98 20009DE5 		ldr	r0, [sp, #32]
 3581 2d9c 1D51CDE5 		strb	r5, [sp, #285]
 3582 2da0 21E1CDE5 		strb	lr, [sp, #289]
 3583 2da4 28509DE5 		ldr	r5, [sp, #40]
 3584 2da8 F0E09DE5 		ldr	lr, [sp, #240]
 3585 2dac 2221CDE5 		strb	r2, [sp, #290]
 3586 2db0 2331CDE5 		strb	r3, [sp, #291]
 3587 2db4 1C209DE5 		ldr	r2, [sp, #28]
 3588 2db8 18309DE5 		ldr	r3, [sp, #24]
 3589 2dbc 0890A0E1 		mov	r9, r8
 3590 2dc0 24809DE5 		ldr	r8, [sp, #36]
 3591 2dc4 1E11CDE5 		strb	r1, [sp, #286]
 3592 2dc8 2071CDE5 		strb	r7, [sp, #288]
 3593 2dcc 2541CDE5 		strb	r4, [sp, #293]
 3594 2dd0 2651CDE5 		strb	r5, [sp, #294]
 3595 2dd4 2781CDE5 		strb	r8, [sp, #295]
 3596 2dd8 28E1CDE5 		strb	lr, [sp, #296]
 3597 2ddc 2901CDE5 		strb	r0, [sp, #297]
 3598 2de0 2A21CDE5 		strb	r2, [sp, #298]
 3599 2de4 24B1CDE5 		strb	fp, [sp, #292]
 3600 2de8 2B31CDE5 		strb	r3, [sp, #299]
 3601 2dec EC409DE5 		ldr	r4, [sp, #236]
 3602 2df0 14509DE5 		ldr	r5, [sp, #20]
 3603 2df4 10809DE5 		ldr	r8, [sp, #16]
 3604 2df8 08208DE2 		add	r2, sp, #8
 3605 2dfc 044092E8 		ldmia	r2, {r2, lr}	@ phole ldm
 3606 2e00 2C41CDE5 		strb	r4, [sp, #300]
 3607 2e04 2E81CDE5 		strb	r8, [sp, #302]
 3608 2e08 2FE1CDE5 		strb	lr, [sp, #303]
 3609 2e0c 30C1CDE5 		strb	ip, [sp, #304]
 3610 2e10 3121CDE5 		strb	r2, [sp, #305]
 3611 2e14 2D51CDE5 		strb	r5, [sp, #301]
 3612 2e18 B0379FE5 		ldr	r3, .L310+4
 3613 2e1c 0E50D3E5 		ldrb	r5, [r3, #14]	@ zero_extendqisi2
 3614 2e20 E8409DE5 		ldr	r4, [sp, #232]
 3615 2e24 A8079FE5 		ldr	r0, .L310+8
 3616 2e28 A0879FE5 		ldr	r8, .L310+4
 3617 2e2c 10219DE5 		ldr	r2, [sp, #272]	@ float
 3618 2e30 013085E2 		add	r3, r5, #1
 3619 2e34 0170D0E5 		ldrb	r7, [r0, #1]	@ zero_extendqisi2
 3620 2e38 0060D0E5 		ldrb	r6, [r0, #0]	@ zero_extendqisi2
 3621 2e3c 0E30C8E5 		strb	r3, [r8, #14]
 3622 2e40 4404A0E1 		mov	r0, r4, asr #8
 3623 2e44 4418A0E1 		mov	r1, r4, asr #16
 3624 2e48 42CCA0E1 		mov	ip, r2, asr #24
 3625 2e4c 42E8A0E1 		mov	lr, r2, asr #16
 3626 2e50 4244A0E1 		mov	r4, r2, asr #8
 3627 2e54 3301CDE5 		strb	r0, [sp, #307]
 3628 2e58 2030A0E3 		mov	r3, #32
 3629 2e5c E8009DE5 		ldr	r0, [sp, #232]
 3630 2e60 35C1CDE5 		strb	ip, [sp, #309]
 3631 2e64 36E1CDE5 		strb	lr, [sp, #310]
 3632 2e68 01C8A0E3 		mov	ip, #65536
 3633 2e6c 3741CDE5 		strb	r4, [sp, #311]
 3634 2e70 3821CDE5 		strb	r2, [sp, #312]
 3635 2e74 1431CDE5 		strb	r3, [sp, #276]
 3636 2e78 1661CDE5 		strb	r6, [sp, #278]
 3637 2e7c 1771CDE5 		strb	r7, [sp, #279]
 3638 2e80 1551CDE5 		strb	r5, [sp, #277]
 3639 2e84 3211CDE5 		strb	r1, [sp, #306]
 3640 2e88 3401CDE5 		strb	r0, [sp, #308]
 3641 2e8c 01C04CE2 		sub	ip, ip, #1
 3642 2e90 450F8DE2 		add	r0, sp, #276
 3643 2e94 0A10A0E1 		mov	r1, sl
 3644              	.L293:
 3645 2e98 0030D1E7 		ldrb	r3, [r1, r0]	@ zero_extendqisi2
 3646 2e9c 0C3023E0 		eor	r3, r3, ip
 3647 2ea0 FF3003E2 		and	r3, r3, #255
 3648 2ea4 033223E0 		eor	r3, r3, r3, asl #4
 3649 2ea8 FF3003E2 		and	r3, r3, #255
 3650 2eac 0324A0E1 		mov	r2, r3, asl #8
 3651 2eb0 2C2482E1 		orr	r2, r2, ip, lsr #8
 3652 2eb4 232222E0 		eor	r2, r2, r3, lsr #4
 3653 2eb8 832122E0 		eor	r2, r2, r3, asl #3
 3654 2ebc 011081E2 		add	r1, r1, #1
 3655 2ec0 0228A0E1 		mov	r2, r2, asl #16
 3656 2ec4 250051E3 		cmp	r1, #37
 3657 2ec8 22C8A0E1 		mov	ip, r2, lsr #16
 3658 2ecc F1FFFF1A 		bne	.L293
 3659 2ed0 2C34A0E1 		mov	r3, ip, lsr #8
 3660 2ed4 0000A0E3 		mov	r0, #0
 3661 2ed8 301081E2 		add	r1, r1, #48
 3662 2edc 1932CDE5 		strb	r3, [sp, #537]
 3663 2ee0 18C2CDE5 		strb	ip, [sp, #536]
 3664 2ee4 FEFFFFEB 		bl	comm_send_ch
 3665 2ee8 0000A0E3 		mov	r0, #0
 3666 2eec 1411DDE5 		ldrb	r1, [sp, #276]	@ zero_extendqisi2
 3667 2ef0 FEFFFFEB 		bl	comm_send_ch
 3668 2ef4 0000A0E3 		mov	r0, #0
 3669 2ef8 1511DDE5 		ldrb	r1, [sp, #277]	@ zero_extendqisi2
 3670 2efc FEFFFFEB 		bl	comm_send_ch
 3671 2f00 0000A0E3 		mov	r0, #0
 3672 2f04 1611DDE5 		ldrb	r1, [sp, #278]	@ zero_extendqisi2
 3673 2f08 FEFFFFEB 		bl	comm_send_ch
 3674 2f0c 0000A0E3 		mov	r0, #0
 3675 2f10 1711DDE5 		ldrb	r1, [sp, #279]	@ zero_extendqisi2
 3676 2f14 FEFFFFEB 		bl	comm_send_ch
 3677 2f18 0000A0E3 		mov	r0, #0
 3678 2f1c 1811DDE5 		ldrb	r1, [sp, #280]	@ zero_extendqisi2
 3679 2f20 FEFFFFEB 		bl	comm_send_ch
 3680 2f24 1431DDE5 		ldrb	r3, [sp, #276]	@ zero_extendqisi2
 3681 2f28 000053E3 		cmp	r3, #0
 3682 2f2c 0B00000A 		beq	.L295
 3683 2f30 0040A0E3 		mov	r4, #0
 3684              	.L297:
 3685 2f34 872F8DE2 		add	r2, sp, #540
 3686 2f38 043082E0 		add	r3, r2, r4
 3687 2f3c 031153E5 		ldrb	r1, [r3, #-259]	@ zero_extendqisi2
 3688 2f40 0000A0E3 		mov	r0, #0
 3689 2f44 FEFFFFEB 		bl	comm_send_ch
 3690 2f48 013084E2 		add	r3, r4, #1
 3691 2f4c 0338A0E1 		mov	r3, r3, asl #16
 3692 2f50 1421DDE5 		ldrb	r2, [sp, #276]	@ zero_extendqisi2
 3693 2f54 2348A0E1 		mov	r4, r3, lsr #16
 3694 2f58 040052E1 		cmp	r2, r4
 3695 2f5c F4FFFF8A 		bhi	.L297
 3696              	.L295:
 3697 2f60 1812DDE5 		ldrb	r1, [sp, #536]	@ zero_extendqisi2
 3698 2f64 0000A0E3 		mov	r0, #0
 3699 2f68 FEFFFFEB 		bl	comm_send_ch
 3700 2f6c 0000A0E3 		mov	r0, #0
 3701 2f70 1912DDE5 		ldrb	r1, [sp, #537]	@ zero_extendqisi2
 3702 2f74 FEFFFFEB 		bl	comm_send_ch
 3703 2f78 34FFFFEA 		b	.L298
 3704              	.L308:
 3705 2f7c FEFFFFEB 		bl	sys_time_clock_get_unix_offset
 3706 2f80 44469FE5 		ldr	r4, .L310
 3707 2f84 E0708DE2 		add	r7, sp, #224
 3708 2f88 800197E8 		ldmia	r7, {r7-r8}
 3709 2f8c 5C3094E5 		ldr	r3, [r4, #92]	@ float
 3710 2f90 007097E0 		adds	r7, r7, r0
 3711 2f94 03B0A0E1 		mov	fp, r3
 3712 2f98 0000A0E3 		mov	r0, #0
 3713 2f9c 602094E5 		ldr	r2, [r4, #96]	@ float
 3714 2fa0 DC008DE5 		str	r0, [sp, #220]
 3715 2fa4 D4008DE5 		str	r0, [sp, #212]
 3716 2fa8 CC008DE5 		str	r0, [sp, #204]
 3717 2fac 00A0A0E1 		mov	sl, r0
 3718 2fb0 4B08A0E1 		mov	r0, fp, asr #16
 3719 2fb4 0C218DE5 		str	r2, [sp, #268]	@ float
 3720 2fb8 C4008DE5 		str	r0, [sp, #196]
 3721 2fbc 4B04A0E1 		mov	r0, fp, asr #8
 3722 2fc0 C0008DE5 		str	r0, [sp, #192]
 3723 2fc4 0C019DE5 		ldr	r0, [sp, #268]
 3724 2fc8 400CA0E1 		mov	r0, r0, asr #24
 3725 2fcc BC008DE5 		str	r0, [sp, #188]
 3726 2fd0 0C019DE5 		ldr	r0, [sp, #268]
 3727 2fd4 4008A0E1 		mov	r0, r0, asr #16
 3728 2fd8 64C094E5 		ldr	ip, [r4, #100]	@ float
 3729 2fdc B8008DE5 		str	r0, [sp, #184]
 3730 2fe0 0C019DE5 		ldr	r0, [sp, #268]
 3731 2fe4 08C18DE5 		str	ip, [sp, #264]	@ float
 3732 2fe8 4004A0E1 		mov	r0, r0, asr #8
 3733 2fec B4008DE5 		str	r0, [sp, #180]
 3734 2ff0 08019DE5 		ldr	r0, [sp, #264]
 3735 2ff4 400CA0E1 		mov	r0, r0, asr #24
 3736 2ff8 B0008DE5 		str	r0, [sp, #176]
 3737 2ffc 08019DE5 		ldr	r0, [sp, #264]
 3738 3000 4008A0E1 		mov	r0, r0, asr #16
 3739 3004 3CE094E5 		ldr	lr, [r4, #60]	@ float
 3740 3008 AC008DE5 		str	r0, [sp, #172]
 3741 300c 08019DE5 		ldr	r0, [sp, #264]
 3742 3010 0EC0A0E1 		mov	ip, lr
 3743 3014 4004A0E1 		mov	r0, r0, asr #8
 3744 3018 AC559FE5 		ldr	r5, .L310
 3745 301c A8008DE5 		str	r0, [sp, #168]
 3746 3020 4C0CA0E1 		mov	r0, ip, asr #24
 3747 3024 0180A8E0 		adc	r8, r8, r1
 3748 3028 404094E5 		ldr	r4, [r4, #64]	@ float
 3749 302c 445095E5 		ldr	r5, [r5, #68]	@ float
 3750 3030 A4008DE5 		str	r0, [sp, #164]
 3751 3034 4C08A0E1 		mov	r0, ip, asr #16
 3752 3038 28ECA0E1 		mov	lr, r8, lsr #24
 3753 303c 2828A0E1 		mov	r2, r8, lsr #16
 3754 3040 2834A0E1 		mov	r3, r8, lsr #8
 3755 3044 A0008DE5 		str	r0, [sp, #160]
 3756 3048 4C04A0E1 		mov	r0, ip, asr #8
 3757 304c 04418DE5 		str	r4, [sp, #260]	@ float
 3758 3050 00508DE5 		str	r5, [sp, #0]	@ float
 3759 3054 D8E08DE5 		str	lr, [sp, #216]
 3760 3058 D0208DE5 		str	r2, [sp, #208]
 3761 305c C8308DE5 		str	r3, [sp, #200]
 3762 3060 9C008DE5 		str	r0, [sp, #156]
 3763 3064 04019DE5 		ldr	r0, [sp, #260]
 3764 3068 400CA0E1 		mov	r0, r0, asr #24
 3765 306c 98008DE5 		str	r0, [sp, #152]
 3766 3070 1E00A0E3 		mov	r0, #30
 3767 3074 1801CDE5 		strb	r0, [sp, #280]
 3768 3078 D800DDE5 		ldrb	r0, [sp, #216]	@ zero_extendqisi2
 3769 307c 2734A0E1 		mov	r3, r7, lsr #8
 3770 3080 1901CDE5 		strb	r0, [sp, #281]
 3771 3084 D000DDE5 		ldrb	r0, [sp, #208]	@ zero_extendqisi2
 3772 3088 083C83E1 		orr	r3, r3, r8, asl #24
 3773 308c C4209DE5 		ldr	r2, [sp, #196]
 3774 3090 275CA0E1 		mov	r5, r7, lsr #24
 3775 3094 1A01CDE5 		strb	r0, [sp, #282]
 3776 3098 1F31CDE5 		strb	r3, [sp, #287]
 3777 309c C800DDE5 		ldrb	r0, [sp, #200]	@ zero_extendqisi2
 3778 30a0 C0309DE5 		ldr	r3, [sp, #192]
 3779 30a4 085485E1 		orr	r5, r5, r8, asl #8
 3780 30a8 4BECA0E1 		mov	lr, fp, asr #24
 3781 30ac 2718A0E1 		mov	r1, r7, lsr #16
 3782 30b0 081881E1 		orr	r1, r1, r8, asl #16
 3783 30b4 BC409DE5 		ldr	r4, [sp, #188]
 3784 30b8 1B01CDE5 		strb	r0, [sp, #283]
 3785 30bc 1C81CDE5 		strb	r8, [sp, #284]
 3786 30c0 B0008DE2 		add	r0, sp, #176
 3787 30c4 010190E8 		ldmia	r0, {r0, r8}	@ phole ldm
 3788 30c8 1D51CDE5 		strb	r5, [sp, #285]
 3789 30cc 21E1CDE5 		strb	lr, [sp, #289]
 3790 30d0 B8509DE5 		ldr	r5, [sp, #184]
 3791 30d4 0CE19DE5 		ldr	lr, [sp, #268]
 3792 30d8 2221CDE5 		strb	r2, [sp, #290]
 3793 30dc 2331CDE5 		strb	r3, [sp, #291]
 3794 30e0 AC209DE5 		ldr	r2, [sp, #172]
 3795 30e4 A8309DE5 		ldr	r3, [sp, #168]
 3796 30e8 1E11CDE5 		strb	r1, [sp, #286]
 3797 30ec 2071CDE5 		strb	r7, [sp, #288]
 3798 30f0 24B1CDE5 		strb	fp, [sp, #292]
 3799 30f4 2541CDE5 		strb	r4, [sp, #293]
 3800 30f8 2651CDE5 		strb	r5, [sp, #294]
 3801 30fc 2781CDE5 		strb	r8, [sp, #295]
 3802 3100 28E1CDE5 		strb	lr, [sp, #296]
 3803 3104 2901CDE5 		strb	r0, [sp, #297]
 3804 3108 2A21CDE5 		strb	r2, [sp, #298]
 3805 310c 2B31CDE5 		strb	r3, [sp, #299]
 3806 3110 08419DE5 		ldr	r4, [sp, #264]
 3807 3114 A4509DE5 		ldr	r5, [sp, #164]
 3808 3118 A0809DE5 		ldr	r8, [sp, #160]
 3809 311c 98208DE2 		add	r2, sp, #152
 3810 3120 044092E8 		ldmia	r2, {r2, lr}	@ phole ldm
 3811 3124 2C41CDE5 		strb	r4, [sp, #300]
 3812 3128 2E81CDE5 		strb	r8, [sp, #302]
 3813 312c 2FE1CDE5 		strb	lr, [sp, #303]
 3814 3130 30C1CDE5 		strb	ip, [sp, #304]
 3815 3134 3121CDE5 		strb	r2, [sp, #305]
 3816 3138 2D51CDE5 		strb	r5, [sp, #301]
 3817 313c 8C349FE5 		ldr	r3, .L310+4
 3818 3140 0E50D3E5 		ldrb	r5, [r3, #14]	@ zero_extendqisi2
 3819 3144 04419DE5 		ldr	r4, [sp, #260]
 3820 3148 84049FE5 		ldr	r0, .L310+8
 3821 314c 7C849FE5 		ldr	r8, .L310+4
 3822 3150 013085E2 		add	r3, r5, #1
 3823 3154 00209DE5 		ldr	r2, [sp, #0]	@ float
 3824 3158 0060D0E5 		ldrb	r6, [r0, #0]	@ zero_extendqisi2
 3825 315c 0170D0E5 		ldrb	r7, [r0, #1]	@ zero_extendqisi2
 3826 3160 0E30C8E5 		strb	r3, [r8, #14]
 3827 3164 4404A0E1 		mov	r0, r4, asr #8
 3828 3168 3301CDE5 		strb	r0, [sp, #307]
 3829 316c 04019DE5 		ldr	r0, [sp, #260]
 3830 3170 4418A0E1 		mov	r1, r4, asr #16
 3831 3174 42CCA0E1 		mov	ip, r2, asr #24
 3832 3178 42E8A0E1 		mov	lr, r2, asr #16
 3833 317c 4244A0E1 		mov	r4, r2, asr #8
 3834 3180 2030A0E3 		mov	r3, #32
 3835 3184 35C1CDE5 		strb	ip, [sp, #309]
 3836 3188 3401CDE5 		strb	r0, [sp, #308]
 3837 318c 01C8A0E3 		mov	ip, #65536
 3838 3190 36E1CDE5 		strb	lr, [sp, #310]
 3839 3194 3741CDE5 		strb	r4, [sp, #311]
 3840 3198 3821CDE5 		strb	r2, [sp, #312]
 3841 319c 1431CDE5 		strb	r3, [sp, #276]
 3842 31a0 1661CDE5 		strb	r6, [sp, #278]
 3843 31a4 1771CDE5 		strb	r7, [sp, #279]
 3844 31a8 1551CDE5 		strb	r5, [sp, #277]
 3845 31ac 3211CDE5 		strb	r1, [sp, #306]
 3846 31b0 01C04CE2 		sub	ip, ip, #1
 3847 31b4 45BF8DE2 		add	fp, sp, #276
 3848 31b8 0A10A0E1 		mov	r1, sl
 3849              	.L280:
 3850 31bc 0B30D1E7 		ldrb	r3, [r1, fp]	@ zero_extendqisi2
 3851 31c0 0C3023E0 		eor	r3, r3, ip
 3852 31c4 FF3003E2 		and	r3, r3, #255
 3853 31c8 033223E0 		eor	r3, r3, r3, asl #4
 3854 31cc FF3003E2 		and	r3, r3, #255
 3855 31d0 0324A0E1 		mov	r2, r3, asl #8
 3856 31d4 2C2482E1 		orr	r2, r2, ip, lsr #8
 3857 31d8 232222E0 		eor	r2, r2, r3, lsr #4
 3858 31dc 832122E0 		eor	r2, r2, r3, asl #3
 3859 31e0 011081E2 		add	r1, r1, #1
 3860 31e4 0228A0E1 		mov	r2, r2, asl #16
 3861 31e8 250051E3 		cmp	r1, #37
 3862 31ec 22C8A0E1 		mov	ip, r2, lsr #16
 3863 31f0 F1FFFF1A 		bne	.L280
 3864 31f4 2C34A0E1 		mov	r3, ip, lsr #8
 3865 31f8 0000A0E3 		mov	r0, #0
 3866 31fc 301081E2 		add	r1, r1, #48
 3867 3200 1932CDE5 		strb	r3, [sp, #537]
 3868 3204 18C2CDE5 		strb	ip, [sp, #536]
 3869 3208 FEFFFFEB 		bl	comm_send_ch
 3870 320c 0000A0E3 		mov	r0, #0
 3871 3210 1411DDE5 		ldrb	r1, [sp, #276]	@ zero_extendqisi2
 3872 3214 FEFFFFEB 		bl	comm_send_ch
 3873 3218 0000A0E3 		mov	r0, #0
 3874 321c 1511DDE5 		ldrb	r1, [sp, #277]	@ zero_extendqisi2
 3875 3220 FEFFFFEB 		bl	comm_send_ch
 3876 3224 0000A0E3 		mov	r0, #0
 3877 3228 1611DDE5 		ldrb	r1, [sp, #278]	@ zero_extendqisi2
 3878 322c FEFFFFEB 		bl	comm_send_ch
 3879 3230 0000A0E3 		mov	r0, #0
 3880 3234 1711DDE5 		ldrb	r1, [sp, #279]	@ zero_extendqisi2
 3881 3238 FEFFFFEB 		bl	comm_send_ch
 3882 323c 0000A0E3 		mov	r0, #0
 3883 3240 1811DDE5 		ldrb	r1, [sp, #280]	@ zero_extendqisi2
 3884 3244 FEFFFFEB 		bl	comm_send_ch
 3885 3248 1431DDE5 		ldrb	r3, [sp, #276]	@ zero_extendqisi2
 3886 324c 000053E3 		cmp	r3, #0
 3887 3250 0B00000A 		beq	.L282
 3888 3254 0040A0E3 		mov	r4, #0
 3889              	.L284:
 3890 3258 872F8DE2 		add	r2, sp, #540
 3891 325c 043082E0 		add	r3, r2, r4
 3892 3260 031153E5 		ldrb	r1, [r3, #-259]	@ zero_extendqisi2
 3893 3264 0000A0E3 		mov	r0, #0
 3894 3268 FEFFFFEB 		bl	comm_send_ch
 3895 326c 013084E2 		add	r3, r4, #1
 3896 3270 0338A0E1 		mov	r3, r3, asl #16
 3897 3274 1421DDE5 		ldrb	r2, [sp, #276]	@ zero_extendqisi2
 3898 3278 2348A0E1 		mov	r4, r3, lsr #16
 3899 327c 040052E1 		cmp	r2, r4
 3900 3280 F4FFFF8A 		bhi	.L284
 3901              	.L282:
 3902 3284 0000A0E3 		mov	r0, #0
 3903 3288 1812DDE5 		ldrb	r1, [sp, #536]	@ zero_extendqisi2
 3904 328c FEFFFFEB 		bl	comm_send_ch
 3905 3290 0000A0E3 		mov	r0, #0
 3906 3294 1912DDE5 		ldrb	r1, [sp, #537]	@ zero_extendqisi2
 3907 3298 FEFFFFEB 		bl	comm_send_ch
 3908 329c FEFFFFEB 		bl	sys_time_clock_get_unix_offset
 3909 32a0 24439FE5 		ldr	r4, .L310
 3910 32a4 E0708DE2 		add	r7, sp, #224
 3911 32a8 800197E8 		ldmia	r7, {r7-r8}
 3912 32ac 5C3094E5 		ldr	r3, [r4, #92]	@ float
 3913 32b0 007097E0 		adds	r7, r7, r0
 3914 32b4 64C094E5 		ldr	ip, [r4, #100]	@ float
 3915 32b8 0000A0E3 		mov	r0, #0
 3916 32bc 3CE094E5 		ldr	lr, [r4, #60]	@ float
 3917 32c0 00318DE5 		str	r3, [sp, #256]	@ float
 3918 32c4 0180A8E0 		adc	r8, r8, r1
 3919 32c8 94008DE5 		str	r0, [sp, #148]
 3920 32cc 8C008DE5 		str	r0, [sp, #140]
 3921 32d0 84008DE5 		str	r0, [sp, #132]
 3922 32d4 00A0A0E1 		mov	sl, r0
 3923 32d8 00019DE5 		ldr	r0, [sp, #256]
 3924 32dc F8C08DE5 		str	ip, [sp, #248]	@ float
 3925 32e0 0EC0A0E1 		mov	ip, lr
 3926 32e4 28ECA0E1 		mov	lr, r8, lsr #24
 3927 32e8 90E08DE5 		str	lr, [sp, #144]
 3928 32ec 40ECA0E1 		mov	lr, r0, asr #24
 3929 32f0 4008A0E1 		mov	r0, r0, asr #16
 3930 32f4 602094E5 		ldr	r2, [r4, #96]	@ float
 3931 32f8 7C008DE5 		str	r0, [sp, #124]
 3932 32fc 00019DE5 		ldr	r0, [sp, #256]
 3933 3300 FC208DE5 		str	r2, [sp, #252]	@ float
 3934 3304 4004A0E1 		mov	r0, r0, asr #8
 3935 3308 78008DE5 		str	r0, [sp, #120]
 3936 330c FC009DE5 		ldr	r0, [sp, #252]
 3937 3310 400CA0E1 		mov	r0, r0, asr #24
 3938 3314 74008DE5 		str	r0, [sp, #116]
 3939 3318 FC009DE5 		ldr	r0, [sp, #252]
 3940 331c 4008A0E1 		mov	r0, r0, asr #16
 3941 3320 70008DE5 		str	r0, [sp, #112]
 3942 3324 FC009DE5 		ldr	r0, [sp, #252]
 3943 3328 4004A0E1 		mov	r0, r0, asr #8
 3944 332c 6C008DE5 		str	r0, [sp, #108]
 3945 3330 F8009DE5 		ldr	r0, [sp, #248]
 3946 3334 400CA0E1 		mov	r0, r0, asr #24
 3947 3338 68008DE5 		str	r0, [sp, #104]
 3948 333c F8009DE5 		ldr	r0, [sp, #248]
 3949 3340 84529FE5 		ldr	r5, .L310
 3950 3344 4008A0E1 		mov	r0, r0, asr #16
 3951 3348 64008DE5 		str	r0, [sp, #100]
 3952 334c F8009DE5 		ldr	r0, [sp, #248]
 3953 3350 404094E5 		ldr	r4, [r4, #64]	@ float
 3954 3354 445095E5 		ldr	r5, [r5, #68]	@ float
 3955 3358 2828A0E1 		mov	r2, r8, lsr #16
 3956 335c 2834A0E1 		mov	r3, r8, lsr #8
 3957 3360 4004A0E1 		mov	r0, r0, asr #8
 3958 3364 F4408DE5 		str	r4, [sp, #244]	@ float
 3959 3368 04508DE5 		str	r5, [sp, #4]	@ float
 3960 336c 88208DE5 		str	r2, [sp, #136]
 3961 3370 80308DE5 		str	r3, [sp, #128]
 3962 3374 60008DE5 		str	r0, [sp, #96]
 3963 3378 4C0CA0E1 		mov	r0, ip, asr #24
 3964 337c 5C008DE5 		str	r0, [sp, #92]
 3965 3380 4C08A0E1 		mov	r0, ip, asr #16
 3966 3384 58008DE5 		str	r0, [sp, #88]
 3967 3388 4C04A0E1 		mov	r0, ip, asr #8
 3968 338c 54008DE5 		str	r0, [sp, #84]
 3969 3390 F4009DE5 		ldr	r0, [sp, #244]
 3970 3394 400CA0E1 		mov	r0, r0, asr #24
 3971 3398 50008DE5 		str	r0, [sp, #80]
 3972 339c 1E00A0E3 		mov	r0, #30
 3973 33a0 1801CDE5 		strb	r0, [sp, #280]
 3974 33a4 9000DDE5 		ldrb	r0, [sp, #144]	@ zero_extendqisi2
 3975 33a8 1901CDE5 		strb	r0, [sp, #281]
 3976 33ac 8800DDE5 		ldrb	r0, [sp, #136]	@ zero_extendqisi2
 3977 33b0 7C209DE5 		ldr	r2, [sp, #124]
 3978 33b4 275CA0E1 		mov	r5, r7, lsr #24
 3979 33b8 2734A0E1 		mov	r3, r7, lsr #8
 3980 33bc 1A01CDE5 		strb	r0, [sp, #282]
 3981 33c0 8000DDE5 		ldrb	r0, [sp, #128]	@ zero_extendqisi2
 3982 33c4 085485E1 		orr	r5, r5, r8, asl #8
 3983 33c8 083C83E1 		orr	r3, r3, r8, asl #24
 3984 33cc 2718A0E1 		mov	r1, r7, lsr #16
 3985 33d0 081881E1 		orr	r1, r1, r8, asl #16
 3986 33d4 00419DE5 		ldr	r4, [sp, #256]
 3987 33d8 1B01CDE5 		strb	r0, [sp, #283]
 3988 33dc 1C81CDE5 		strb	r8, [sp, #284]
 3989 33e0 FC009DE5 		ldr	r0, [sp, #252]
 3990 33e4 1D51CDE5 		strb	r5, [sp, #285]
 3991 33e8 1F31CDE5 		strb	r3, [sp, #287]
 3992 33ec 74509DE5 		ldr	r5, [sp, #116]
 3993 33f0 78309DE5 		ldr	r3, [sp, #120]
 3994 33f4 21E1CDE5 		strb	lr, [sp, #289]
 3995 33f8 2221CDE5 		strb	r2, [sp, #290]
 3996 33fc 68208DE2 		add	r2, sp, #104
 3997 3400 044092E8 		ldmia	r2, {r2, lr}	@ phole ldm
 3998 3404 0890A0E1 		mov	r9, r8
 3999 3408 70809DE5 		ldr	r8, [sp, #112]
 4000 340c 1E11CDE5 		strb	r1, [sp, #286]
 4001 3410 2071CDE5 		strb	r7, [sp, #288]
 4002 3414 2331CDE5 		strb	r3, [sp, #291]
 4003 3418 2441CDE5 		strb	r4, [sp, #292]
 4004 341c 2551CDE5 		strb	r5, [sp, #293]
 4005 3420 2681CDE5 		strb	r8, [sp, #294]
 4006 3424 27E1CDE5 		strb	lr, [sp, #295]
 4007 3428 2801CDE5 		strb	r0, [sp, #296]
 4008 342c 2921CDE5 		strb	r2, [sp, #297]
 4009 3430 64309DE5 		ldr	r3, [sp, #100]
 4010 3434 60409DE5 		ldr	r4, [sp, #96]
 4011 3438 2A31CDE5 		strb	r3, [sp, #298]
 4012 343c F8509DE5 		ldr	r5, [sp, #248]
 4013 3440 5C809DE5 		ldr	r8, [sp, #92]
 4014 3444 54008DE2 		add	r0, sp, #84
 4015 3448 014090E8 		ldmia	r0, {r0, lr}	@ phole ldm
 4016 344c 50309DE5 		ldr	r3, [sp, #80]
 4017 3450 2B41CDE5 		strb	r4, [sp, #299]
 4018 3454 2D81CDE5 		strb	r8, [sp, #301]
 4019 3458 2EE1CDE5 		strb	lr, [sp, #302]
 4020 345c 2F01CDE5 		strb	r0, [sp, #303]
 4021 3460 30C1CDE5 		strb	ip, [sp, #304]
 4022 3464 3131CDE5 		strb	r3, [sp, #305]
 4023 3468 2C51CDE5 		strb	r5, [sp, #300]
 4024 346c 64419FE5 		ldr	r4, .L310+12
 4025 3470 F4809DE5 		ldr	r8, [sp, #244]
 4026 3474 0E50D4E5 		ldrb	r5, [r4, #14]	@ zero_extendqisi2
 4027 3478 54219FE5 		ldr	r2, .L310+8
 4028 347c 4818A0E1 		mov	r1, r8, asr #16
 4029 3480 4804A0E1 		mov	r0, r8, asr #8
 4030 3484 4C819FE5 		ldr	r8, .L310+12
 4031 3488 013085E2 		add	r3, r5, #1
 4032 348c 0170D2E5 		ldrb	r7, [r2, #1]	@ zero_extendqisi2
 4033 3490 0060D2E5 		ldrb	r6, [r2, #0]	@ zero_extendqisi2
 4034 3494 04209DE5 		ldr	r2, [sp, #4]	@ float
 4035 3498 0E30C8E5 		strb	r3, [r8, #14]
 4036 349c 3301CDE5 		strb	r0, [sp, #307]
 4037 34a0 F4009DE5 		ldr	r0, [sp, #244]
 4038 34a4 42CCA0E1 		mov	ip, r2, asr #24
 4039 34a8 42E8A0E1 		mov	lr, r2, asr #16
 4040 34ac 4244A0E1 		mov	r4, r2, asr #8
 4041 34b0 2030A0E3 		mov	r3, #32
 4042 34b4 35C1CDE5 		strb	ip, [sp, #309]
 4043 34b8 3401CDE5 		strb	r0, [sp, #308]
 4044 34bc 01C8A0E3 		mov	ip, #65536
 4045 34c0 36E1CDE5 		strb	lr, [sp, #310]
 4046 34c4 3741CDE5 		strb	r4, [sp, #311]
 4047 34c8 3821CDE5 		strb	r2, [sp, #312]
 4048 34cc 1431CDE5 		strb	r3, [sp, #276]
 4049 34d0 1661CDE5 		strb	r6, [sp, #278]
 4050 34d4 1771CDE5 		strb	r7, [sp, #279]
 4051 34d8 1551CDE5 		strb	r5, [sp, #277]
 4052 34dc 3211CDE5 		strb	r1, [sp, #306]
 4053 34e0 01C04CE2 		sub	ip, ip, #1
 4054 34e4 0A10A0E1 		mov	r1, sl
 4055              	.L285:
 4056 34e8 0B30D1E7 		ldrb	r3, [r1, fp]	@ zero_extendqisi2
 4057 34ec 0C3023E0 		eor	r3, r3, ip
 4058 34f0 FF3003E2 		and	r3, r3, #255
 4059 34f4 033223E0 		eor	r3, r3, r3, asl #4
 4060 34f8 FF3003E2 		and	r3, r3, #255
 4061 34fc 0324A0E1 		mov	r2, r3, asl #8
 4062 3500 2C2482E1 		orr	r2, r2, ip, lsr #8
 4063 3504 232222E0 		eor	r2, r2, r3, lsr #4
 4064 3508 832122E0 		eor	r2, r2, r3, asl #3
 4065 350c 011081E2 		add	r1, r1, #1
 4066 3510 0228A0E1 		mov	r2, r2, asl #16
 4067 3514 250051E3 		cmp	r1, #37
 4068 3518 22C8A0E1 		mov	ip, r2, lsr #16
 4069 351c F1FFFF1A 		bne	.L285
 4070 3520 2C34A0E1 		mov	r3, ip, lsr #8
 4071 3524 0100A0E3 		mov	r0, #1
 4072 3528 301081E2 		add	r1, r1, #48
 4073 352c 1932CDE5 		strb	r3, [sp, #537]
 4074 3530 18C2CDE5 		strb	ip, [sp, #536]
 4075 3534 FEFFFFEB 		bl	comm_send_ch
 4076 3538 0100A0E3 		mov	r0, #1
 4077 353c 1411DDE5 		ldrb	r1, [sp, #276]	@ zero_extendqisi2
 4078 3540 FEFFFFEB 		bl	comm_send_ch
 4079 3544 0100A0E3 		mov	r0, #1
 4080 3548 1511DDE5 		ldrb	r1, [sp, #277]	@ zero_extendqisi2
 4081 354c FEFFFFEB 		bl	comm_send_ch
 4082 3550 0100A0E3 		mov	r0, #1
 4083 3554 1611DDE5 		ldrb	r1, [sp, #278]	@ zero_extendqisi2
 4084 3558 FEFFFFEB 		bl	comm_send_ch
 4085 355c 0100A0E3 		mov	r0, #1
 4086 3560 1711DDE5 		ldrb	r1, [sp, #279]	@ zero_extendqisi2
 4087 3564 FEFFFFEB 		bl	comm_send_ch
 4088 3568 0100A0E3 		mov	r0, #1
 4089 356c 1811DDE5 		ldrb	r1, [sp, #280]	@ zero_extendqisi2
 4090 3570 FEFFFFEB 		bl	comm_send_ch
 4091 3574 1431DDE5 		ldrb	r3, [sp, #276]	@ zero_extendqisi2
 4092 3578 000053E3 		cmp	r3, #0
 4093 357c 0B00000A 		beq	.L287
 4094 3580 0040A0E3 		mov	r4, #0
 4095              	.L289:
 4096 3584 872F8DE2 		add	r2, sp, #540
 4097 3588 043082E0 		add	r3, r2, r4
 4098 358c 031153E5 		ldrb	r1, [r3, #-259]	@ zero_extendqisi2
 4099 3590 0100A0E3 		mov	r0, #1
 4100 3594 FEFFFFEB 		bl	comm_send_ch
 4101 3598 013084E2 		add	r3, r4, #1
 4102 359c 0338A0E1 		mov	r3, r3, asl #16
 4103 35a0 1421DDE5 		ldrb	r2, [sp, #276]	@ zero_extendqisi2
 4104 35a4 2348A0E1 		mov	r4, r3, lsr #16
 4105 35a8 040052E1 		cmp	r2, r4
 4106 35ac F4FFFF8A 		bhi	.L289
 4107              	.L287:
 4108 35b0 1812DDE5 		ldrb	r1, [sp, #536]	@ zero_extendqisi2
 4109 35b4 0100A0E3 		mov	r0, #1
 4110 35b8 FEFFFFEB 		bl	comm_send_ch
 4111 35bc 0100A0E3 		mov	r0, #1
 4112 35c0 1912DDE5 		ldrb	r1, [sp, #537]	@ zero_extendqisi2
 4113 35c4 FEFFFFEB 		bl	comm_send_ch
 4114 35c8 99FDFFEA 		b	.L277
 4115              	.L311:
 4116              		.align	2
 4117              	.L310:
 4118 35cc 00000000 		.word	global_data
 4119 35d0 00000000 		.word	m_mavlink_status.2141
 4120 35d4 00000000 		.word	mavlink_system
 4121 35d8 14000000 		.word	m_mavlink_status.2141+20
 4123              		.align	2
 4124              		.global	send_system_state
 4126              	send_system_state:
 4127              		@ Function supports interworking.
 4128              		@ args = 0, pretend = 0, frame = 304
 4129              		@ frame_needed = 0, uses_anonymous_args = 0
 4130 35dc F04F2DE9 		stmfd	sp!, {r4, r5, r6, r7, r8, r9, sl, fp, lr}
 4131 35e0 382A9FE5 		ldr	r2, .L362
 4132 35e4 13DE4DE2 		sub	sp, sp, #304
 4133 35e8 480292E5 		ldr	r0, [r2, #584]	@ float
 4134 35ec FEFFFFEB 		bl	__fixunssfsi
 4135 35f0 2C3A9FE5 		ldr	r3, .L362+4
 4136 35f4 2C4A9FE5 		ldr	r4, .L362+8
 4137 35f8 0EC0D3E5 		ldrb	ip, [r3, #14]	@ zero_extendqisi2
 4138 35fc 0220A0E3 		mov	r2, #2
 4139 3600 0130A0E3 		mov	r3, #1
 4140 3604 00E0D4E5 		ldrb	lr, [r4, #0]	@ zero_extendqisi2
 4141 3608 2E30CDE5 		strb	r3, [sp, #46]
 4142 360c 0140D4E5 		ldrb	r4, [r4, #1]	@ zero_extendqisi2
 4143 3610 2F20CDE5 		strb	r2, [sp, #47]
 4144 3614 023083E0 		add	r3, r3, r2
 4145 3618 042A9FE5 		ldr	r2, .L362+4
 4146 361c 01508CE2 		add	r5, ip, #1
 4147 3620 0010A0E3 		mov	r1, #0
 4148 3624 2D00CDE5 		strb	r0, [sp, #45]
 4149 3628 2830CDE5 		strb	r3, [sp, #40]
 4150 362c 2AE0CDE5 		strb	lr, [sp, #42]
 4151 3630 2B40CDE5 		strb	r4, [sp, #43]
 4152 3634 0E50C2E5 		strb	r5, [r2, #14]
 4153 3638 29C0CDE5 		strb	ip, [sp, #41]
 4154 363c 2C10CDE5 		strb	r1, [sp, #44]
 4155 3640 01C8A0E3 		mov	ip, #65536
 4156 3644 01C04CE2 		sub	ip, ip, #1
 4157 3648 28B08DE2 		add	fp, sp, #40
 4158              	.L313:
 4159 364c 0B30D1E7 		ldrb	r3, [r1, fp]	@ zero_extendqisi2
 4160 3650 0C3023E0 		eor	r3, r3, ip
 4161 3654 FF3003E2 		and	r3, r3, #255
 4162 3658 033223E0 		eor	r3, r3, r3, asl #4
 4163 365c FF3003E2 		and	r3, r3, #255
 4164 3660 0324A0E1 		mov	r2, r3, asl #8
 4165 3664 2C2482E1 		orr	r2, r2, ip, lsr #8
 4166 3668 232222E0 		eor	r2, r2, r3, lsr #4
 4167 366c 832122E0 		eor	r2, r2, r3, asl #3
 4168 3670 011081E2 		add	r1, r1, #1
 4169 3674 0228A0E1 		mov	r2, r2, asl #16
 4170 3678 080051E3 		cmp	r1, #8
 4171 367c 22C8A0E1 		mov	ip, r2, lsr #16
 4172 3680 F1FFFF1A 		bne	.L313
 4173 3684 2C34A0E1 		mov	r3, ip, lsr #8
 4174 3688 0100A0E3 		mov	r0, #1
 4175 368c 4D1081E2 		add	r1, r1, #77
 4176 3690 2D31CDE5 		strb	r3, [sp, #301]
 4177 3694 2CC1CDE5 		strb	ip, [sp, #300]
 4178 3698 FEFFFFEB 		bl	comm_send_ch
 4179 369c 0100A0E3 		mov	r0, #1
 4180 36a0 2810DDE5 		ldrb	r1, [sp, #40]	@ zero_extendqisi2
 4181 36a4 FEFFFFEB 		bl	comm_send_ch
 4182 36a8 0100A0E3 		mov	r0, #1
 4183 36ac 2910DDE5 		ldrb	r1, [sp, #41]	@ zero_extendqisi2
 4184 36b0 FEFFFFEB 		bl	comm_send_ch
 4185 36b4 0100A0E3 		mov	r0, #1
 4186 36b8 2A10DDE5 		ldrb	r1, [sp, #42]	@ zero_extendqisi2
 4187 36bc FEFFFFEB 		bl	comm_send_ch
 4188 36c0 0100A0E3 		mov	r0, #1
 4189 36c4 2B10DDE5 		ldrb	r1, [sp, #43]	@ zero_extendqisi2
 4190 36c8 FEFFFFEB 		bl	comm_send_ch
 4191 36cc 0100A0E3 		mov	r0, #1
 4192 36d0 2C10DDE5 		ldrb	r1, [sp, #44]	@ zero_extendqisi2
 4193 36d4 FEFFFFEB 		bl	comm_send_ch
 4194 36d8 2830DDE5 		ldrb	r3, [sp, #40]	@ zero_extendqisi2
 4195 36dc 000053E3 		cmp	r3, #0
 4196 36e0 0B00000A 		beq	.L315
 4197 36e4 0040A0E3 		mov	r4, #0
 4198              	.L317:
 4199 36e8 132E8DE2 		add	r2, sp, #304
 4200 36ec 043082E0 		add	r3, r2, r4
 4201 36f0 031153E5 		ldrb	r1, [r3, #-259]	@ zero_extendqisi2
 4202 36f4 0100A0E3 		mov	r0, #1
 4203 36f8 FEFFFFEB 		bl	comm_send_ch
 4204 36fc 013084E2 		add	r3, r4, #1
 4205 3700 0338A0E1 		mov	r3, r3, asl #16
 4206 3704 2820DDE5 		ldrb	r2, [sp, #40]	@ zero_extendqisi2
 4207 3708 2348A0E1 		mov	r4, r3, lsr #16
 4208 370c 040052E1 		cmp	r2, r4
 4209 3710 F4FFFF8A 		bhi	.L317
 4210              	.L315:
 4211 3714 0100A0E3 		mov	r0, #1
 4212 3718 2C11DDE5 		ldrb	r1, [sp, #300]	@ zero_extendqisi2
 4213 371c FEFFFFEB 		bl	comm_send_ch
 4214 3720 2D11DDE5 		ldrb	r1, [sp, #301]	@ zero_extendqisi2
 4215 3724 0100A0E3 		mov	r0, #1
 4216 3728 FEFFFFEB 		bl	comm_send_ch
 4217 372c EC389FE5 		ldr	r3, .L362
 4218 3730 480293E5 		ldr	r0, [r3, #584]	@ float
 4219 3734 FEFFFFEB 		bl	__fixunssfsi
 4220 3738 EC489FE5 		ldr	r4, .L362+12
 4221 373c E4289FE5 		ldr	r2, .L362+8
 4222 3740 0EC0D4E5 		ldrb	ip, [r4, #14]	@ zero_extendqisi2
 4223 3744 00E0D2E5 		ldrb	lr, [r2, #0]	@ zero_extendqisi2
 4224 3748 0140D2E5 		ldrb	r4, [r2, #1]	@ zero_extendqisi2
 4225 374c 0130A0E3 		mov	r3, #1
 4226 3750 0220A0E3 		mov	r2, #2
 4227 3754 2E30CDE5 		strb	r3, [sp, #46]
 4228 3758 023083E0 		add	r3, r3, r2
 4229 375c 2830CDE5 		strb	r3, [sp, #40]
 4230 3760 C4389FE5 		ldr	r3, .L362+12
 4231 3764 01508CE2 		add	r5, ip, #1
 4232 3768 0010A0E3 		mov	r1, #0
 4233 376c 2D00CDE5 		strb	r0, [sp, #45]
 4234 3770 2F20CDE5 		strb	r2, [sp, #47]
 4235 3774 2AE0CDE5 		strb	lr, [sp, #42]
 4236 3778 2B40CDE5 		strb	r4, [sp, #43]
 4237 377c 0E50C3E5 		strb	r5, [r3, #14]
 4238 3780 29C0CDE5 		strb	ip, [sp, #41]
 4239 3784 2C10CDE5 		strb	r1, [sp, #44]
 4240 3788 01C8A0E3 		mov	ip, #65536
 4241 378c 01C04CE2 		sub	ip, ip, #1
 4242              	.L318:
 4243 3790 0B30D1E7 		ldrb	r3, [r1, fp]	@ zero_extendqisi2
 4244 3794 0C3023E0 		eor	r3, r3, ip
 4245 3798 FF3003E2 		and	r3, r3, #255
 4246 379c 033223E0 		eor	r3, r3, r3, asl #4
 4247 37a0 FF3003E2 		and	r3, r3, #255
 4248 37a4 0324A0E1 		mov	r2, r3, asl #8
 4249 37a8 2C2482E1 		orr	r2, r2, ip, lsr #8
 4250 37ac 232222E0 		eor	r2, r2, r3, lsr #4
 4251 37b0 832122E0 		eor	r2, r2, r3, asl #3
 4252 37b4 011081E2 		add	r1, r1, #1
 4253 37b8 0228A0E1 		mov	r2, r2, asl #16
 4254 37bc 080051E3 		cmp	r1, #8
 4255 37c0 22C8A0E1 		mov	ip, r2, lsr #16
 4256 37c4 F1FFFF1A 		bne	.L318
 4257 37c8 2C34A0E1 		mov	r3, ip, lsr #8
 4258 37cc 0000A0E3 		mov	r0, #0
 4259 37d0 4D1081E2 		add	r1, r1, #77
 4260 37d4 2D31CDE5 		strb	r3, [sp, #301]
 4261 37d8 2CC1CDE5 		strb	ip, [sp, #300]
 4262 37dc FEFFFFEB 		bl	comm_send_ch
 4263 37e0 0000A0E3 		mov	r0, #0
 4264 37e4 2810DDE5 		ldrb	r1, [sp, #40]	@ zero_extendqisi2
 4265 37e8 FEFFFFEB 		bl	comm_send_ch
 4266 37ec 0000A0E3 		mov	r0, #0
 4267 37f0 2910DDE5 		ldrb	r1, [sp, #41]	@ zero_extendqisi2
 4268 37f4 FEFFFFEB 		bl	comm_send_ch
 4269 37f8 0000A0E3 		mov	r0, #0
 4270 37fc 2A10DDE5 		ldrb	r1, [sp, #42]	@ zero_extendqisi2
 4271 3800 FEFFFFEB 		bl	comm_send_ch
 4272 3804 0000A0E3 		mov	r0, #0
 4273 3808 2B10DDE5 		ldrb	r1, [sp, #43]	@ zero_extendqisi2
 4274 380c FEFFFFEB 		bl	comm_send_ch
 4275 3810 0000A0E3 		mov	r0, #0
 4276 3814 2C10DDE5 		ldrb	r1, [sp, #44]	@ zero_extendqisi2
 4277 3818 FEFFFFEB 		bl	comm_send_ch
 4278 381c 2830DDE5 		ldrb	r3, [sp, #40]	@ zero_extendqisi2
 4279 3820 000053E3 		cmp	r3, #0
 4280 3824 0B00000A 		beq	.L320
 4281 3828 0040A0E3 		mov	r4, #0
 4282              	.L322:
 4283 382c 132E8DE2 		add	r2, sp, #304
 4284 3830 043082E0 		add	r3, r2, r4
 4285 3834 031153E5 		ldrb	r1, [r3, #-259]	@ zero_extendqisi2
 4286 3838 0000A0E3 		mov	r0, #0
 4287 383c FEFFFFEB 		bl	comm_send_ch
 4288 3840 013084E2 		add	r3, r4, #1
 4289 3844 0338A0E1 		mov	r3, r3, asl #16
 4290 3848 2820DDE5 		ldrb	r2, [sp, #40]	@ zero_extendqisi2
 4291 384c 2348A0E1 		mov	r4, r3, lsr #16
 4292 3850 040052E1 		cmp	r2, r4
 4293 3854 F4FFFF8A 		bhi	.L322
 4294              	.L320:
 4295 3858 0000A0E3 		mov	r0, #0
 4296 385c 2C11DDE5 		ldrb	r1, [sp, #300]	@ zero_extendqisi2
 4297 3860 FEFFFFEB 		bl	comm_send_ch
 4298 3864 0000A0E3 		mov	r0, #0
 4299 3868 2D11DDE5 		ldrb	r1, [sp, #301]	@ zero_extendqisi2
 4300 386c FEFFFFEB 		bl	comm_send_ch
 4301 3870 A8479FE5 		ldr	r4, .L362
 4302 3874 633FA0E3 		mov	r3, #396
 4303 3878 023083E2 		add	r3, r3, #2
 4304 387c B30094E1 		ldrh	r0, [r4, r3]
 4305 3880 A4379FE5 		ldr	r3, .L362+12
 4306 3884 0E30D3E5 		ldrb	r3, [r3, #14]	@ zero_extendqisi2
 4307 3888 161EA0E3 		mov	r1, #352
 4308 388c 08308DE5 		str	r3, [sp, #8]
 4309 3890 90379FE5 		ldr	r3, .L362+8
 4310 3894 021081E2 		add	r1, r1, #2
 4311 3898 632FA0E3 		mov	r2, #396
 4312 389c B2C094E1 		ldrh	ip, [r4, r2]
 4313 38a0 B1E094E1 		ldrh	lr, [r4, r1]
 4314 38a4 6021D4E5 		ldrb	r2, [r4, #352]	@ zero_extendqisi2
 4315 38a8 0130D3E5 		ldrb	r3, [r3, #1]	@ zero_extendqisi2
 4316 38ac 74479FE5 		ldr	r4, .L362+8
 4317 38b0 00308DE5 		str	r3, [sp, #0]
 4318 38b4 0040D4E5 		ldrb	r4, [r4, #0]	@ zero_extendqisi2
 4319 38b8 60379FE5 		ldr	r3, .L362
 4320 38bc 04408DE5 		str	r4, [sp, #4]
 4321 38c0 5851D3E5 		ldrb	r5, [r3, #344]	@ zero_extendqisi2
 4322 38c4 54479FE5 		ldr	r4, .L362
 4323 38c8 08309DE5 		ldr	r3, [sp, #8]
 4324 38cc 4C11D4E5 		ldrb	r1, [r4, #332]	@ zero_extendqisi2
 4325 38d0 0228A0E1 		mov	r2, r2, asl #16
 4326 38d4 5041D4E5 		ldrb	r4, [r4, #336]	@ zero_extendqisi2
 4327 38d8 019083E2 		add	r9, r3, #1
 4328 38dc 2230A0E3 		mov	r3, #34
 4329 38e0 2C30CDE5 		strb	r3, [sp, #44]
 4330 38e4 228CA0E1 		mov	r8, r2, lsr #24
 4331 38e8 173043E2 		sub	r3, r3, #23
 4332 38ec 2228A0E1 		mov	r2, r2, lsr #16
 4333 38f0 2E40CDE5 		strb	r4, [sp, #46]
 4334 38f4 3520CDE5 		strb	r2, [sp, #53]
 4335 38f8 04409DE5 		ldr	r4, [sp, #4]
 4336 38fc 2830CDE5 		strb	r3, [sp, #40]
 4337 3900 00209DE5 		ldr	r2, [sp, #0]
 4338 3904 0008A0E1 		mov	r0, r0, asl #16
 4339 3908 0CC8A0E1 		mov	ip, ip, asl #16
 4340 390c 0EE8A0E1 		mov	lr, lr, asl #16
 4341 3910 14379FE5 		ldr	r3, .L362+12
 4342 3914 206CA0E1 		mov	r6, r0, lsr #24
 4343 3918 2C7CA0E1 		mov	r7, ip, lsr #24
 4344 391c 2EACA0E1 		mov	sl, lr, lsr #24
 4345 3920 2CC8A0E1 		mov	ip, ip, lsr #16
 4346 3924 2008A0E1 		mov	r0, r0, lsr #16
 4347 3928 2EE8A0E1 		mov	lr, lr, lsr #16
 4348 392c 2D10CDE5 		strb	r1, [sp, #45]
 4349 3930 33C0CDE5 		strb	ip, [sp, #51]
 4350 3934 2A40CDE5 		strb	r4, [sp, #42]
 4351 3938 2F50CDE5 		strb	r5, [sp, #47]
 4352 393c 3060CDE5 		strb	r6, [sp, #48]
 4353 3940 3100CDE5 		strb	r0, [sp, #49]
 4354 3944 3270CDE5 		strb	r7, [sp, #50]
 4355 3948 3480CDE5 		strb	r8, [sp, #52]
 4356 394c 36A0CDE5 		strb	sl, [sp, #54]
 4357 3950 37E0CDE5 		strb	lr, [sp, #55]
 4358 3954 2B20CDE5 		strb	r2, [sp, #43]
 4359 3958 0E90C3E5 		strb	r9, [r3, #14]
 4360 395c 08409DE5 		ldr	r4, [sp, #8]
 4361 3960 01C8A0E3 		mov	ip, #65536
 4362 3964 2940CDE5 		strb	r4, [sp, #41]
 4363 3968 01C04CE2 		sub	ip, ip, #1
 4364 396c 0010A0E3 		mov	r1, #0
 4365              	.L323:
 4366 3970 0B30D1E7 		ldrb	r3, [r1, fp]	@ zero_extendqisi2
 4367 3974 0C3023E0 		eor	r3, r3, ip
 4368 3978 FF3003E2 		and	r3, r3, #255
 4369 397c 033223E0 		eor	r3, r3, r3, asl #4
 4370 3980 FF3003E2 		and	r3, r3, #255
 4371 3984 0324A0E1 		mov	r2, r3, asl #8
 4372 3988 2C2482E1 		orr	r2, r2, ip, lsr #8
 4373 398c 232222E0 		eor	r2, r2, r3, lsr #4
 4374 3990 832122E0 		eor	r2, r2, r3, asl #3
 4375 3994 011081E2 		add	r1, r1, #1
 4376 3998 0228A0E1 		mov	r2, r2, asl #16
 4377 399c 100051E3 		cmp	r1, #16
 4378 39a0 22C8A0E1 		mov	ip, r2, lsr #16
 4379 39a4 F1FFFF1A 		bne	.L323
 4380 39a8 2C34A0E1 		mov	r3, ip, lsr #8
 4381 39ac 0000A0E3 		mov	r0, #0
 4382 39b0 451081E2 		add	r1, r1, #69
 4383 39b4 2D31CDE5 		strb	r3, [sp, #301]
 4384 39b8 2CC1CDE5 		strb	ip, [sp, #300]
 4385 39bc FEFFFFEB 		bl	comm_send_ch
 4386 39c0 0000A0E3 		mov	r0, #0
 4387 39c4 2810DDE5 		ldrb	r1, [sp, #40]	@ zero_extendqisi2
 4388 39c8 FEFFFFEB 		bl	comm_send_ch
 4389 39cc 0000A0E3 		mov	r0, #0
 4390 39d0 2910DDE5 		ldrb	r1, [sp, #41]	@ zero_extendqisi2
 4391 39d4 FEFFFFEB 		bl	comm_send_ch
 4392 39d8 0000A0E3 		mov	r0, #0
 4393 39dc 2A10DDE5 		ldrb	r1, [sp, #42]	@ zero_extendqisi2
 4394 39e0 FEFFFFEB 		bl	comm_send_ch
 4395 39e4 0000A0E3 		mov	r0, #0
 4396 39e8 2B10DDE5 		ldrb	r1, [sp, #43]	@ zero_extendqisi2
 4397 39ec FEFFFFEB 		bl	comm_send_ch
 4398 39f0 0000A0E3 		mov	r0, #0
 4399 39f4 2C10DDE5 		ldrb	r1, [sp, #44]	@ zero_extendqisi2
 4400 39f8 FEFFFFEB 		bl	comm_send_ch
 4401 39fc 2830DDE5 		ldrb	r3, [sp, #40]	@ zero_extendqisi2
 4402 3a00 000053E3 		cmp	r3, #0
 4403 3a04 0B00000A 		beq	.L325
 4404 3a08 0040A0E3 		mov	r4, #0
 4405              	.L327:
 4406 3a0c 132E8DE2 		add	r2, sp, #304
 4407 3a10 043082E0 		add	r3, r2, r4
 4408 3a14 031153E5 		ldrb	r1, [r3, #-259]	@ zero_extendqisi2
 4409 3a18 0000A0E3 		mov	r0, #0
 4410 3a1c FEFFFFEB 		bl	comm_send_ch
 4411 3a20 013084E2 		add	r3, r4, #1
 4412 3a24 0338A0E1 		mov	r3, r3, asl #16
 4413 3a28 2820DDE5 		ldrb	r2, [sp, #40]	@ zero_extendqisi2
 4414 3a2c 2348A0E1 		mov	r4, r3, lsr #16
 4415 3a30 040052E1 		cmp	r2, r4
 4416 3a34 F4FFFF8A 		bhi	.L327
 4417              	.L325:
 4418 3a38 0000A0E3 		mov	r0, #0
 4419 3a3c 2C11DDE5 		ldrb	r1, [sp, #300]	@ zero_extendqisi2
 4420 3a40 FEFFFFEB 		bl	comm_send_ch
 4421 3a44 0000A0E3 		mov	r0, #0
 4422 3a48 2D11DDE5 		ldrb	r1, [sp, #301]	@ zero_extendqisi2
 4423 3a4c FEFFFFEB 		bl	comm_send_ch
 4424 3a50 C8459FE5 		ldr	r4, .L362
 4425 3a54 633FA0E3 		mov	r3, #396
 4426 3a58 023083E2 		add	r3, r3, #2
 4427 3a5c B30094E1 		ldrh	r0, [r4, r3]
 4428 3a60 BC359FE5 		ldr	r3, .L362+4
 4429 3a64 0E30D3E5 		ldrb	r3, [r3, #14]	@ zero_extendqisi2
 4430 3a68 161EA0E3 		mov	r1, #352
 4431 3a6c 14308DE5 		str	r3, [sp, #20]
 4432 3a70 B0359FE5 		ldr	r3, .L362+8
 4433 3a74 021081E2 		add	r1, r1, #2
 4434 3a78 632FA0E3 		mov	r2, #396
 4435 3a7c B2C094E1 		ldrh	ip, [r4, r2]
 4436 3a80 B1E094E1 		ldrh	lr, [r4, r1]
 4437 3a84 6021D4E5 		ldrb	r2, [r4, #352]	@ zero_extendqisi2
 4438 3a88 0130D3E5 		ldrb	r3, [r3, #1]	@ zero_extendqisi2
 4439 3a8c 94459FE5 		ldr	r4, .L362+8
 4440 3a90 0C308DE5 		str	r3, [sp, #12]
 4441 3a94 0040D4E5 		ldrb	r4, [r4, #0]	@ zero_extendqisi2
 4442 3a98 80359FE5 		ldr	r3, .L362
 4443 3a9c 10408DE5 		str	r4, [sp, #16]
 4444 3aa0 5851D3E5 		ldrb	r5, [r3, #344]	@ zero_extendqisi2
 4445 3aa4 74459FE5 		ldr	r4, .L362
 4446 3aa8 14309DE5 		ldr	r3, [sp, #20]
 4447 3aac 4C11D4E5 		ldrb	r1, [r4, #332]	@ zero_extendqisi2
 4448 3ab0 0228A0E1 		mov	r2, r2, asl #16
 4449 3ab4 5041D4E5 		ldrb	r4, [r4, #336]	@ zero_extendqisi2
 4450 3ab8 019083E2 		add	r9, r3, #1
 4451 3abc 2230A0E3 		mov	r3, #34
 4452 3ac0 2C30CDE5 		strb	r3, [sp, #44]
 4453 3ac4 228CA0E1 		mov	r8, r2, lsr #24
 4454 3ac8 173043E2 		sub	r3, r3, #23
 4455 3acc 2228A0E1 		mov	r2, r2, lsr #16
 4456 3ad0 2E40CDE5 		strb	r4, [sp, #46]
 4457 3ad4 3520CDE5 		strb	r2, [sp, #53]
 4458 3ad8 10409DE5 		ldr	r4, [sp, #16]
 4459 3adc 2830CDE5 		strb	r3, [sp, #40]
 4460 3ae0 0C209DE5 		ldr	r2, [sp, #12]
 4461 3ae4 0008A0E1 		mov	r0, r0, asl #16
 4462 3ae8 0CC8A0E1 		mov	ip, ip, asl #16
 4463 3aec 0EE8A0E1 		mov	lr, lr, asl #16
 4464 3af0 2C359FE5 		ldr	r3, .L362+4
 4465 3af4 206CA0E1 		mov	r6, r0, lsr #24
 4466 3af8 2C7CA0E1 		mov	r7, ip, lsr #24
 4467 3afc 2EACA0E1 		mov	sl, lr, lsr #24
 4468 3b00 2CC8A0E1 		mov	ip, ip, lsr #16
 4469 3b04 2008A0E1 		mov	r0, r0, lsr #16
 4470 3b08 2EE8A0E1 		mov	lr, lr, lsr #16
 4471 3b0c 2D10CDE5 		strb	r1, [sp, #45]
 4472 3b10 33C0CDE5 		strb	ip, [sp, #51]
 4473 3b14 2A40CDE5 		strb	r4, [sp, #42]
 4474 3b18 2F50CDE5 		strb	r5, [sp, #47]
 4475 3b1c 3060CDE5 		strb	r6, [sp, #48]
 4476 3b20 3100CDE5 		strb	r0, [sp, #49]
 4477 3b24 3270CDE5 		strb	r7, [sp, #50]
 4478 3b28 3480CDE5 		strb	r8, [sp, #52]
 4479 3b2c 36A0CDE5 		strb	sl, [sp, #54]
 4480 3b30 37E0CDE5 		strb	lr, [sp, #55]
 4481 3b34 2B20CDE5 		strb	r2, [sp, #43]
 4482 3b38 0E90C3E5 		strb	r9, [r3, #14]
 4483 3b3c 14409DE5 		ldr	r4, [sp, #20]
 4484 3b40 01C8A0E3 		mov	ip, #65536
 4485 3b44 2940CDE5 		strb	r4, [sp, #41]
 4486 3b48 01C04CE2 		sub	ip, ip, #1
 4487 3b4c 0010A0E3 		mov	r1, #0
 4488              	.L328:
 4489 3b50 0B30D1E7 		ldrb	r3, [r1, fp]	@ zero_extendqisi2
 4490 3b54 0C3023E0 		eor	r3, r3, ip
 4491 3b58 FF3003E2 		and	r3, r3, #255
 4492 3b5c 033223E0 		eor	r3, r3, r3, asl #4
 4493 3b60 FF3003E2 		and	r3, r3, #255
 4494 3b64 0324A0E1 		mov	r2, r3, asl #8
 4495 3b68 2C2482E1 		orr	r2, r2, ip, lsr #8
 4496 3b6c 232222E0 		eor	r2, r2, r3, lsr #4
 4497 3b70 832122E0 		eor	r2, r2, r3, asl #3
 4498 3b74 011081E2 		add	r1, r1, #1
 4499 3b78 0228A0E1 		mov	r2, r2, asl #16
 4500 3b7c 100051E3 		cmp	r1, #16
 4501 3b80 22C8A0E1 		mov	ip, r2, lsr #16
 4502 3b84 F1FFFF1A 		bne	.L328
 4503 3b88 2C34A0E1 		mov	r3, ip, lsr #8
 4504 3b8c 0100A0E3 		mov	r0, #1
 4505 3b90 451081E2 		add	r1, r1, #69
 4506 3b94 2D31CDE5 		strb	r3, [sp, #301]
 4507 3b98 2CC1CDE5 		strb	ip, [sp, #300]
 4508 3b9c FEFFFFEB 		bl	comm_send_ch
 4509 3ba0 0100A0E3 		mov	r0, #1
 4510 3ba4 2810DDE5 		ldrb	r1, [sp, #40]	@ zero_extendqisi2
 4511 3ba8 FEFFFFEB 		bl	comm_send_ch
 4512 3bac 0100A0E3 		mov	r0, #1
 4513 3bb0 2910DDE5 		ldrb	r1, [sp, #41]	@ zero_extendqisi2
 4514 3bb4 FEFFFFEB 		bl	comm_send_ch
 4515 3bb8 0100A0E3 		mov	r0, #1
 4516 3bbc 2A10DDE5 		ldrb	r1, [sp, #42]	@ zero_extendqisi2
 4517 3bc0 FEFFFFEB 		bl	comm_send_ch
 4518 3bc4 0100A0E3 		mov	r0, #1
 4519 3bc8 2B10DDE5 		ldrb	r1, [sp, #43]	@ zero_extendqisi2
 4520 3bcc FEFFFFEB 		bl	comm_send_ch
 4521 3bd0 0100A0E3 		mov	r0, #1
 4522 3bd4 2C10DDE5 		ldrb	r1, [sp, #44]	@ zero_extendqisi2
 4523 3bd8 FEFFFFEB 		bl	comm_send_ch
 4524 3bdc 2830DDE5 		ldrb	r3, [sp, #40]	@ zero_extendqisi2
 4525 3be0 000053E3 		cmp	r3, #0
 4526 3be4 0B00000A 		beq	.L330
 4527 3be8 0040A0E3 		mov	r4, #0
 4528              	.L332:
 4529 3bec 132E8DE2 		add	r2, sp, #304
 4530 3bf0 043082E0 		add	r3, r2, r4
 4531 3bf4 031153E5 		ldrb	r1, [r3, #-259]	@ zero_extendqisi2
 4532 3bf8 0100A0E3 		mov	r0, #1
 4533 3bfc FEFFFFEB 		bl	comm_send_ch
 4534 3c00 013084E2 		add	r3, r4, #1
 4535 3c04 0338A0E1 		mov	r3, r3, asl #16
 4536 3c08 2820DDE5 		ldrb	r2, [sp, #40]	@ zero_extendqisi2
 4537 3c0c 2348A0E1 		mov	r4, r3, lsr #16
 4538 3c10 040052E1 		cmp	r2, r4
 4539 3c14 F4FFFF8A 		bhi	.L332
 4540              	.L330:
 4541 3c18 0100A0E3 		mov	r0, #1
 4542 3c1c 2C11DDE5 		ldrb	r1, [sp, #300]	@ zero_extendqisi2
 4543 3c20 FEFFFFEB 		bl	comm_send_ch
 4544 3c24 0100A0E3 		mov	r0, #1
 4545 3c28 2D11DDE5 		ldrb	r1, [sp, #301]	@ zero_extendqisi2
 4546 3c2c FEFFFFEB 		bl	comm_send_ch
 4547 3c30 E8439FE5 		ldr	r4, .L362
 4548 3c34 273DA0E3 		mov	r3, #2496
 4549 3c38 632FA0E3 		mov	r2, #396
 4550 3c3c 0C3083E2 		add	r3, r3, #12
 4551 3c40 022082E2 		add	r2, r2, #2
 4552 3c44 B3E094E1 		ldrh	lr, [r4, r3]
 4553 3c48 271DA0E3 		mov	r1, #2496
 4554 3c4c B24094E1 		ldrh	r4, [r4, r2]
 4555 3c50 C8339FE5 		ldr	r3, .L362
 4556 3c54 C4239FE5 		ldr	r2, .L362
 4557 3c58 16CEA0E3 		mov	ip, #352
 4558 3c5c 0100A0E1 		mov	r0, r1
 4559 3c60 02C08CE2 		add	ip, ip, #2
 4560 3c64 081081E2 		add	r1, r1, #8
 4561 3c68 B15092E1 		ldrh	r5, [r2, r1]
 4562 3c6c BC1093E1 		ldrh	r1, [r3, ip]
 4563 3c70 AC339FE5 		ldr	r3, .L362+4
 4564 3c74 0E90D3E5 		ldrb	r9, [r3, #14]	@ zero_extendqisi2
 4565 3c78 A8339FE5 		ldr	r3, .L362+8
 4566 3c7c 0030D3E5 		ldrb	r3, [r3, #0]	@ zero_extendqisi2
 4567 3c80 1C308DE5 		str	r3, [sp, #28]
 4568 3c84 9C339FE5 		ldr	r3, .L362+8
 4569 3c88 0A0080E2 		add	r0, r0, #10
 4570 3c8c 0130D3E5 		ldrb	r3, [r3, #1]	@ zero_extendqisi2
 4571 3c90 B02092E1 		ldrh	r2, [r2, r0]
 4572 3c94 18308DE5 		str	r3, [sp, #24]
 4573 3c98 84339FE5 		ldr	r3, .L362+4
 4574 3c9c 0448A0E1 		mov	r4, r4, asl #16
 4575 3ca0 0228A0E1 		mov	r2, r2, asl #16
 4576 3ca4 010089E2 		add	r0, r9, #1
 4577 3ca8 0E00C3E5 		strb	r0, [r3, #14]
 4578 3cac 0EE8A0E1 		mov	lr, lr, asl #16
 4579 3cb0 246CA0E1 		mov	r6, r4, lsr #24
 4580 3cb4 228CA0E1 		mov	r8, r2, lsr #24
 4581 3cb8 2448A0E1 		mov	r4, r4, lsr #16
 4582 3cbc 2228A0E1 		mov	r2, r2, lsr #16
 4583 3cc0 0558A0E1 		mov	r5, r5, asl #16
 4584 3cc4 0118A0E1 		mov	r1, r1, asl #16
 4585 3cc8 2EC8A0E1 		mov	ip, lr, lsr #16
 4586 3ccc 7130E0E3 		mvn	r3, #113
 4587 3cd0 2E40CDE5 		strb	r4, [sp, #46]
 4588 3cd4 3220CDE5 		strb	r2, [sp, #50]
 4589 3cd8 18208DE2 		add	r2, sp, #24
 4590 3cdc 140092E8 		ldmia	r2, {r2, r4}	@ phole ldm
 4591 3ce0 FFC00CE2 		and	ip, ip, #255
 4592 3ce4 2EECA0E1 		mov	lr, lr, lsr #24
 4593 3ce8 257CA0E1 		mov	r7, r5, lsr #24
 4594 3cec 21ACA0E1 		mov	sl, r1, lsr #24
 4595 3cf0 2558A0E1 		mov	r5, r5, lsr #16
 4596 3cf4 2C30CDE5 		strb	r3, [sp, #44]
 4597 3cf8 7E3083E2 		add	r3, r3, #126
 4598 3cfc 2118A0E1 		mov	r1, r1, lsr #16
 4599 3d00 36C0CDE5 		strb	ip, [sp, #54]
 4600 3d04 34C0CDE5 		strb	ip, [sp, #52]
 4601 3d08 2D60CDE5 		strb	r6, [sp, #45]
 4602 3d0c 01C8A0E3 		mov	ip, #65536
 4603 3d10 2F70CDE5 		strb	r7, [sp, #47]
 4604 3d14 3050CDE5 		strb	r5, [sp, #48]
 4605 3d18 3180CDE5 		strb	r8, [sp, #49]
 4606 3d1c 35E0CDE5 		strb	lr, [sp, #53]
 4607 3d20 37A0CDE5 		strb	sl, [sp, #55]
 4608 3d24 2830CDE5 		strb	r3, [sp, #40]
 4609 3d28 2A40CDE5 		strb	r4, [sp, #42]
 4610 3d2c 2B20CDE5 		strb	r2, [sp, #43]
 4611 3d30 33E0CDE5 		strb	lr, [sp, #51]
 4612 3d34 2990CDE5 		strb	r9, [sp, #41]
 4613 3d38 3810CDE5 		strb	r1, [sp, #56]
 4614 3d3c 01C04CE2 		sub	ip, ip, #1
 4615 3d40 0010A0E3 		mov	r1, #0
 4616              	.L333:
 4617 3d44 0B30D1E7 		ldrb	r3, [r1, fp]	@ zero_extendqisi2
 4618 3d48 0C3023E0 		eor	r3, r3, ip
 4619 3d4c FF3003E2 		and	r3, r3, #255
 4620 3d50 033223E0 		eor	r3, r3, r3, asl #4
 4621 3d54 FF3003E2 		and	r3, r3, #255
 4622 3d58 0324A0E1 		mov	r2, r3, asl #8
 4623 3d5c 2C2482E1 		orr	r2, r2, ip, lsr #8
 4624 3d60 232222E0 		eor	r2, r2, r3, lsr #4
 4625 3d64 832122E0 		eor	r2, r2, r3, asl #3
 4626 3d68 011081E2 		add	r1, r1, #1
 4627 3d6c 0228A0E1 		mov	r2, r2, asl #16
 4628 3d70 110051E3 		cmp	r1, #17
 4629 3d74 22C8A0E1 		mov	ip, r2, lsr #16
 4630 3d78 F1FFFF1A 		bne	.L333
 4631 3d7c 2C34A0E1 		mov	r3, ip, lsr #8
 4632 3d80 0100A0E3 		mov	r0, #1
 4633 3d84 441081E2 		add	r1, r1, #68
 4634 3d88 2D31CDE5 		strb	r3, [sp, #301]
 4635 3d8c 2CC1CDE5 		strb	ip, [sp, #300]
 4636 3d90 FEFFFFEB 		bl	comm_send_ch
 4637 3d94 0100A0E3 		mov	r0, #1
 4638 3d98 2810DDE5 		ldrb	r1, [sp, #40]	@ zero_extendqisi2
 4639 3d9c FEFFFFEB 		bl	comm_send_ch
 4640 3da0 0100A0E3 		mov	r0, #1
 4641 3da4 2910DDE5 		ldrb	r1, [sp, #41]	@ zero_extendqisi2
 4642 3da8 FEFFFFEB 		bl	comm_send_ch
 4643 3dac 0100A0E3 		mov	r0, #1
 4644 3db0 2A10DDE5 		ldrb	r1, [sp, #42]	@ zero_extendqisi2
 4645 3db4 FEFFFFEB 		bl	comm_send_ch
 4646 3db8 0100A0E3 		mov	r0, #1
 4647 3dbc 2B10DDE5 		ldrb	r1, [sp, #43]	@ zero_extendqisi2
 4648 3dc0 FEFFFFEB 		bl	comm_send_ch
 4649 3dc4 0100A0E3 		mov	r0, #1
 4650 3dc8 2C10DDE5 		ldrb	r1, [sp, #44]	@ zero_extendqisi2
 4651 3dcc FEFFFFEB 		bl	comm_send_ch
 4652 3dd0 2830DDE5 		ldrb	r3, [sp, #40]	@ zero_extendqisi2
 4653 3dd4 000053E3 		cmp	r3, #0
 4654 3dd8 0B00000A 		beq	.L335
 4655 3ddc 0040A0E3 		mov	r4, #0
 4656              	.L337:
 4657 3de0 132E8DE2 		add	r2, sp, #304
 4658 3de4 043082E0 		add	r3, r2, r4
 4659 3de8 031153E5 		ldrb	r1, [r3, #-259]	@ zero_extendqisi2
 4660 3dec 0100A0E3 		mov	r0, #1
 4661 3df0 FEFFFFEB 		bl	comm_send_ch
 4662 3df4 013084E2 		add	r3, r4, #1
 4663 3df8 0338A0E1 		mov	r3, r3, asl #16
 4664 3dfc 2820DDE5 		ldrb	r2, [sp, #40]	@ zero_extendqisi2
 4665 3e00 2348A0E1 		mov	r4, r3, lsr #16
 4666 3e04 040052E1 		cmp	r2, r4
 4667 3e08 F4FFFF8A 		bhi	.L337
 4668              	.L335:
 4669 3e0c 0100A0E3 		mov	r0, #1
 4670 3e10 2C11DDE5 		ldrb	r1, [sp, #300]	@ zero_extendqisi2
 4671 3e14 FEFFFFEB 		bl	comm_send_ch
 4672 3e18 0100A0E3 		mov	r0, #1
 4673 3e1c 2D11DDE5 		ldrb	r1, [sp, #301]	@ zero_extendqisi2
 4674 3e20 FEFFFFEB 		bl	comm_send_ch
 4675 3e24 F4419FE5 		ldr	r4, .L362
 4676 3e28 163EA0E3 		mov	r3, #352
 4677 3e2c 270DA0E3 		mov	r0, #2496
 4678 3e30 023083E2 		add	r3, r3, #2
 4679 3e34 B35094E1 		ldrh	r5, [r4, r3]
 4680 3e38 00C0A0E1 		mov	ip, r0
 4681 3e3c DC319FE5 		ldr	r3, .L362
 4682 3e40 272DA0E3 		mov	r2, #2496
 4683 3e44 631FA0E3 		mov	r1, #396
 4684 3e48 0C2082E2 		add	r2, r2, #12
 4685 3e4c 021081E2 		add	r1, r1, #2
 4686 3e50 0AC08CE2 		add	ip, ip, #10
 4687 3e54 B2E094E1 		ldrh	lr, [r4, r2]
 4688 3e58 B12094E1 		ldrh	r2, [r4, r1]
 4689 3e5c BC1093E1 		ldrh	r1, [r3, ip]
 4690 3e60 C4319FE5 		ldr	r3, .L362+12
 4691 3e64 0E90D3E5 		ldrb	r9, [r3, #14]	@ zero_extendqisi2
 4692 3e68 B8319FE5 		ldr	r3, .L362+8
 4693 3e6c 0130D3E5 		ldrb	r3, [r3, #1]	@ zero_extendqisi2
 4694 3e70 20308DE5 		str	r3, [sp, #32]
 4695 3e74 AC319FE5 		ldr	r3, .L362+8
 4696 3e78 080080E2 		add	r0, r0, #8
 4697 3e7c 0030D3E5 		ldrb	r3, [r3, #0]	@ zero_extendqisi2
 4698 3e80 B04094E1 		ldrh	r4, [r4, r0]
 4699 3e84 24308DE5 		str	r3, [sp, #36]
 4700 3e88 9C319FE5 		ldr	r3, .L362+12
 4701 3e8c 0228A0E1 		mov	r2, r2, asl #16
 4702 3e90 0448A0E1 		mov	r4, r4, asl #16
 4703 3e94 010089E2 		add	r0, r9, #1
 4704 3e98 0E00C3E5 		strb	r0, [r3, #14]
 4705 3e9c 0EE8A0E1 		mov	lr, lr, asl #16
 4706 3ea0 226CA0E1 		mov	r6, r2, lsr #24
 4707 3ea4 247CA0E1 		mov	r7, r4, lsr #24
 4708 3ea8 2228A0E1 		mov	r2, r2, lsr #16
 4709 3eac 2448A0E1 		mov	r4, r4, lsr #16
 4710 3eb0 0118A0E1 		mov	r1, r1, asl #16
 4711 3eb4 0558A0E1 		mov	r5, r5, asl #16
 4712 3eb8 2EC8A0E1 		mov	ip, lr, lsr #16
 4713 3ebc 7130E0E3 		mvn	r3, #113
 4714 3ec0 2E20CDE5 		strb	r2, [sp, #46]
 4715 3ec4 3040CDE5 		strb	r4, [sp, #48]
 4716 3ec8 20208DE2 		add	r2, sp, #32
 4717 3ecc 140092E8 		ldmia	r2, {r2, r4}	@ phole ldm
 4718 3ed0 FFC00CE2 		and	ip, ip, #255
 4719 3ed4 2EECA0E1 		mov	lr, lr, lsr #24
 4720 3ed8 218CA0E1 		mov	r8, r1, lsr #24
 4721 3edc 25ACA0E1 		mov	sl, r5, lsr #24
 4722 3ee0 2C30CDE5 		strb	r3, [sp, #44]
 4723 3ee4 2558A0E1 		mov	r5, r5, lsr #16
 4724 3ee8 7E3083E2 		add	r3, r3, #126
 4725 3eec 2118A0E1 		mov	r1, r1, lsr #16
 4726 3ef0 36C0CDE5 		strb	ip, [sp, #54]
 4727 3ef4 34C0CDE5 		strb	ip, [sp, #52]
 4728 3ef8 2D60CDE5 		strb	r6, [sp, #45]
 4729 3efc 01C8A0E3 		mov	ip, #65536
 4730 3f00 2F70CDE5 		strb	r7, [sp, #47]
 4731 3f04 3180CDE5 		strb	r8, [sp, #49]
 4732 3f08 35E0CDE5 		strb	lr, [sp, #53]
 4733 3f0c 37A0CDE5 		strb	sl, [sp, #55]
 4734 3f10 3850CDE5 		strb	r5, [sp, #56]
 4735 3f14 2830CDE5 		strb	r3, [sp, #40]
 4736 3f18 2A40CDE5 		strb	r4, [sp, #42]
 4737 3f1c 2B20CDE5 		strb	r2, [sp, #43]
 4738 3f20 33E0CDE5 		strb	lr, [sp, #51]
 4739 3f24 2990CDE5 		strb	r9, [sp, #41]
 4740 3f28 3210CDE5 		strb	r1, [sp, #50]
 4741 3f2c 01C04CE2 		sub	ip, ip, #1
 4742 3f30 0010A0E3 		mov	r1, #0
 4743              	.L338:
 4744 3f34 0B30D1E7 		ldrb	r3, [r1, fp]	@ zero_extendqisi2
 4745 3f38 0C3023E0 		eor	r3, r3, ip
 4746 3f3c FF3003E2 		and	r3, r3, #255
 4747 3f40 033223E0 		eor	r3, r3, r3, asl #4
 4748 3f44 FF3003E2 		and	r3, r3, #255
 4749 3f48 0324A0E1 		mov	r2, r3, asl #8
 4750 3f4c 2C2482E1 		orr	r2, r2, ip, lsr #8
 4751 3f50 232222E0 		eor	r2, r2, r3, lsr #4
 4752 3f54 832122E0 		eor	r2, r2, r3, asl #3
 4753 3f58 011081E2 		add	r1, r1, #1
 4754 3f5c 0228A0E1 		mov	r2, r2, asl #16
 4755 3f60 110051E3 		cmp	r1, #17
 4756 3f64 22C8A0E1 		mov	ip, r2, lsr #16
 4757 3f68 F1FFFF1A 		bne	.L338
 4758 3f6c 2C34A0E1 		mov	r3, ip, lsr #8
 4759 3f70 0000A0E3 		mov	r0, #0
 4760 3f74 441081E2 		add	r1, r1, #68
 4761 3f78 2D31CDE5 		strb	r3, [sp, #301]
 4762 3f7c 2CC1CDE5 		strb	ip, [sp, #300]
 4763 3f80 FEFFFFEB 		bl	comm_send_ch
 4764 3f84 0000A0E3 		mov	r0, #0
 4765 3f88 2810DDE5 		ldrb	r1, [sp, #40]	@ zero_extendqisi2
 4766 3f8c FEFFFFEB 		bl	comm_send_ch
 4767 3f90 0000A0E3 		mov	r0, #0
 4768 3f94 2910DDE5 		ldrb	r1, [sp, #41]	@ zero_extendqisi2
 4769 3f98 FEFFFFEB 		bl	comm_send_ch
 4770 3f9c 0000A0E3 		mov	r0, #0
 4771 3fa0 2A10DDE5 		ldrb	r1, [sp, #42]	@ zero_extendqisi2
 4772 3fa4 FEFFFFEB 		bl	comm_send_ch
 4773 3fa8 0000A0E3 		mov	r0, #0
 4774 3fac 2B10DDE5 		ldrb	r1, [sp, #43]	@ zero_extendqisi2
 4775 3fb0 FEFFFFEB 		bl	comm_send_ch
 4776 3fb4 0000A0E3 		mov	r0, #0
 4777 3fb8 2C10DDE5 		ldrb	r1, [sp, #44]	@ zero_extendqisi2
 4778 3fbc FEFFFFEB 		bl	comm_send_ch
 4779 3fc0 2830DDE5 		ldrb	r3, [sp, #40]	@ zero_extendqisi2
 4780 3fc4 000053E3 		cmp	r3, #0
 4781 3fc8 0B00000A 		beq	.L340
 4782 3fcc 0040A0E3 		mov	r4, #0
 4783              	.L342:
 4784 3fd0 132E8DE2 		add	r2, sp, #304
 4785 3fd4 043082E0 		add	r3, r2, r4
 4786 3fd8 031153E5 		ldrb	r1, [r3, #-259]	@ zero_extendqisi2
 4787 3fdc 0000A0E3 		mov	r0, #0
 4788 3fe0 FEFFFFEB 		bl	comm_send_ch
 4789 3fe4 013084E2 		add	r3, r4, #1
 4790 3fe8 0338A0E1 		mov	r3, r3, asl #16
 4791 3fec 2820DDE5 		ldrb	r2, [sp, #40]	@ zero_extendqisi2
 4792 3ff0 2348A0E1 		mov	r4, r3, lsr #16
 4793 3ff4 040052E1 		cmp	r2, r4
 4794 3ff8 F4FFFF8A 		bhi	.L342
 4795              	.L340:
 4796 3ffc 2C11DDE5 		ldrb	r1, [sp, #300]	@ zero_extendqisi2
 4797 4000 0000A0E3 		mov	r0, #0
 4798 4004 FEFFFFEB 		bl	comm_send_ch
 4799 4008 0000A0E3 		mov	r0, #0
 4800 400c 2D11DDE5 		ldrb	r1, [sp, #301]	@ zero_extendqisi2
 4801 4010 FEFFFFEB 		bl	comm_send_ch
 4802 4014 13DE8DE2 		add	sp, sp, #304
 4803 4018 F04FBDE8 		ldmfd	sp!, {r4, r5, r6, r7, r8, r9, sl, fp, lr}
 4804 401c 1EFF2FE1 		bx	lr
 4805              	.L363:
 4806              		.align	2
 4807              	.L362:
 4808 4020 00000000 		.word	global_data
 4809 4024 14000000 		.word	m_mavlink_status.2141+20
 4810 4028 00000000 		.word	mavlink_system
 4811 402c 00000000 		.word	m_mavlink_status.2141
 4813              		.bss
 4814              		.align	2
 4815              	m_mavlink_status.2141:
 4816 0000 00000000 		.space	80
 4816      00000000 
 4816      00000000 
 4816      00000000 
 4816      00000000 
 4817              		.align	2
 4818              	vel_est3.21052:
 4819 0050 00000000 		.space	12
 4819      00000000 
 4819      00000000 
 4820              		.align	2
 4821              	pos_est3.21051:
 4822 005c 00000000 		.space	12
 4822      00000000 
 4822      00000000 
 4823              		.align	2
 4824              	reset_countdown.20948:
 4825 0068 00000000 		.space	4
 4826              		.align	2
 4827              	next_exec_time:
 4828 006c 00000000 		.space	56
 4828      00000000 
 4828      00000000 
 4828      00000000 
 4828      00000000 
 4829              		.comm	mavlink_system,8,4
 4830              		.comm	global_param_id,4,4
 4831              		.comm	state_fly_id,4,4
 4832              		.comm	global_data,2588,4
 4833              		.comm	mag_axis,1,1
 4834              		.comm	bmp085_measurement_mode,1,1
 4835              		.comm	gps_device_mode,1,1
 4836              		.comm	yaw_pos_controller,32,4
 4837              		.comm	yaw_speed_controller,32,4
 4838              		.comm	nick_controller,32,4
 4839              		.comm	roll_controller,32,4
 4840              		.comm	fw_yaw_controller,32,4
 4841              		.comm	fw_nick_controller,32,4
 4842              		.comm	fw_roll_controller,32,4
 4843              		.comm	x_axis_controller,32,4
 4844              		.comm	y_axis_controller,32,4
 4845              		.comm	z_axis_controller,32,4
 4846              		.ident	"GCC: (GNU) 4.1.1 (WinARM)"
DEFINED SYMBOLS
                            *ABS*:00000000 common_mainloop_functions.c
C:\Users\Srdjan\AppData\Local\Temp/ccQHaaaa.s:7      .text:00000000 sync_state_parameters
C:\Users\Srdjan\AppData\Local\Temp/ccQHaaaa.s:11     .text:00000000 $a
C:\Users\Srdjan\AppData\Local\Temp/ccQHaaaa.s:26     .text:00000030 $d
                            *COM*:00000a1c global_data
C:\Users\Srdjan\AppData\Local\Temp/ccQHaaaa.s:31     .text:00000034 beep_on_low_voltage
C:\Users\Srdjan\AppData\Local\Temp/ccQHaaaa.s:35     .text:00000034 $a
C:\Users\Srdjan\AppData\Local\Temp/ccQHaaaa.s:64     .text:00000098 $d
C:\Users\Srdjan\AppData\Local\Temp/ccQHaaaa.s:69     .text:0000009c measure_peak_cpu_load
C:\Users\Srdjan\AppData\Local\Temp/ccQHaaaa.s:74     .text:0000009c $a
C:\Users\Srdjan\AppData\Local\Temp/ccQHaaaa.s:81     .text:000000a4 measure_avg_cpu_load
C:\Users\Srdjan\AppData\Local\Temp/ccQHaaaa.s:93     .text:000000ac us_run_init
C:\Users\Srdjan\AppData\Local\Temp/ccQHaaaa.s:110    .text:000000c8 $d
C:\Users\Srdjan\AppData\Local\Temp/ccQHaaaa.s:4827   .bss:0000006c next_exec_time
C:\Users\Srdjan\AppData\Local\Temp/ccQHaaaa.s:115    .text:000000cc us_run_every
C:\Users\Srdjan\AppData\Local\Temp/ccQHaaaa.s:119    .text:000000cc $a
C:\Users\Srdjan\AppData\Local\Temp/ccQHaaaa.s:138    .text:00000104 $d
C:\Users\Srdjan\AppData\Local\Temp/ccQHaaaa.s:151    .text:00000108 update_system_statemachine
C:\Users\Srdjan\AppData\Local\Temp/ccQHaaaa.s:155    .text:00000108 $a
C:\Users\Srdjan\AppData\Local\Temp/ccQHaaaa.s:166    .text:0000012c $d
C:\Users\Srdjan\AppData\Local\Temp/ccQHaaaa.s:172    .text:00000140 $a
C:\Users\Srdjan\AppData\Local\Temp/ccQHaaaa.s:276    .text:000002a8 $d
C:\Users\Srdjan\AppData\Local\Temp/ccQHaaaa.s:294    .text:000002b4 adc_read
C:\Users\Srdjan\AppData\Local\Temp/ccQHaaaa.s:298    .text:000002b4 $a
C:\Users\Srdjan\AppData\Local\Temp/ccQHaaaa.s:427    .text:00000494 $d
C:\Users\Srdjan\AppData\Local\Temp/ccQHaaaa.s:748    .text:000004b8 handle_eeprom_write_request
C:\Users\Srdjan\AppData\Local\Temp/ccQHaaaa.s:752    .text:000004b8 $a
C:\Users\Srdjan\AppData\Local\Temp/ccQHaaaa.s:770    .text:000004f0 $d
C:\Users\Srdjan\AppData\Local\Temp/ccQHaaaa.s:776    .text:00000504 $a
C:\Users\Srdjan\AppData\Local\Temp/ccQHaaaa.s:1388   .text:00000e74 $d
C:\Users\Srdjan\AppData\Local\Temp/ccQHaaaa.s:1596   .text:00001174 handle_reset_request
C:\Users\Srdjan\AppData\Local\Temp/ccQHaaaa.s:1600   .text:00001174 $a
C:\Users\Srdjan\AppData\Local\Temp/ccQHaaaa.s:1648   .text:00001214 $d
C:\Users\Srdjan\AppData\Local\Temp/ccQHaaaa.s:4824   .bss:00000068 reset_countdown.20948
C:\Users\Srdjan\AppData\Local\Temp/ccQHaaaa.s:1686   .text:00001228 communication_send_controller_feedback
C:\Users\Srdjan\AppData\Local\Temp/ccQHaaaa.s:1690   .text:00001228 $a
C:\Users\Srdjan\AppData\Local\Temp/ccQHaaaa.s:1781   .text:00001374 $d
                            *COM*:00000020 roll_controller
                            *COM*:00000020 nick_controller
                            *COM*:00000020 yaw_speed_controller
                            *COM*:00000020 x_axis_controller
                            *COM*:00000020 y_axis_controller
                            *COM*:00000020 z_axis_controller
                            *COM*:00000020 yaw_pos_controller
C:\Users\Srdjan\AppData\Local\Temp/ccQHaaaa.s:1802   .text:000013b8 position_integrate
C:\Users\Srdjan\AppData\Local\Temp/ccQHaaaa.s:1806   .text:000013b8 $a
C:\Users\Srdjan\AppData\Local\Temp/ccQHaaaa.s:1819   .text:000013dc rc_to_255
C:\Users\Srdjan\AppData\Local\Temp/ccQHaaaa.s:1893   .text:000014d8 communication_send_raw_data
C:\Users\Srdjan\AppData\Local\Temp/ccQHaaaa.s:2130   .text:0000185c $d
C:\Users\Srdjan\AppData\Local\Temp/ccQHaaaa.s:4815   .bss:00000000 m_mavlink_status.2141
                            *COM*:00000008 mavlink_system
C:\Users\Srdjan\AppData\Local\Temp/ccQHaaaa.s:2137   .text:00001868 fuse_vision_altitude_200hz
C:\Users\Srdjan\AppData\Local\Temp/ccQHaaaa.s:2141   .text:00001868 $a
C:\Users\Srdjan\AppData\Local\Temp/ccQHaaaa.s:2290   .text:00001a98 $d
C:\Users\Srdjan\AppData\Local\Temp/ccQHaaaa.s:4821   .bss:0000005c pos_est3.21051
C:\Users\Srdjan\AppData\Local\Temp/ccQHaaaa.s:4818   .bss:00000050 vel_est3.21052
C:\Users\Srdjan\AppData\Local\Temp/ccQHaaaa.s:2299   .text:00001aac camera_shutter_handling
C:\Users\Srdjan\AppData\Local\Temp/ccQHaaaa.s:2303   .text:00001aac $a
C:\Users\Srdjan\AppData\Local\Temp/ccQHaaaa.s:2678   .text:0000205c $d
C:\Users\Srdjan\AppData\Local\Temp/ccQHaaaa.s:2686   .text:0000206c communication_send_remote_control
C:\Users\Srdjan\AppData\Local\Temp/ccQHaaaa.s:2690   .text:0000206c $a
C:\Users\Srdjan\AppData\Local\Temp/ccQHaaaa.s:3048   .text:000025d8 $d
C:\Users\Srdjan\AppData\Local\Temp/ccQHaaaa.s:3056   .text:000025e8 handle_controller_timeouts
C:\Users\Srdjan\AppData\Local\Temp/ccQHaaaa.s:3060   .text:000025e8 $a
C:\Users\Srdjan\AppData\Local\Temp/ccQHaaaa.s:3466   .text:00002bfc $d
C:\Users\Srdjan\AppData\Local\Temp/ccQHaaaa.s:3474   .text:00002c0c communication_send_attitude_position
C:\Users\Srdjan\AppData\Local\Temp/ccQHaaaa.s:3478   .text:00002c0c $a
C:\Users\Srdjan\AppData\Local\Temp/ccQHaaaa.s:4118   .text:000035cc $d
C:\Users\Srdjan\AppData\Local\Temp/ccQHaaaa.s:4126   .text:000035dc send_system_state
C:\Users\Srdjan\AppData\Local\Temp/ccQHaaaa.s:4130   .text:000035dc $a
C:\Users\Srdjan\AppData\Local\Temp/ccQHaaaa.s:4808   .text:00004020 $d
                            *COM*:00000004 global_param_id
                            *COM*:00000004 state_fly_id
                            *COM*:00000001 mag_axis
                            *COM*:00000001 bmp085_measurement_mode
                            *COM*:00000001 gps_device_mode
                            *COM*:00000020 fw_yaw_controller
                            *COM*:00000020 fw_nick_controller
                            *COM*:00000020 fw_roll_controller

UNDEFINED SYMBOLS
__fixunssfsi
debug_message_buffer
__floatsisf
__addsf3
__divsf3
__mulsf3
__extendsfdf2
__subdf3
__truncdfsf2
__muldf3
__fixunsdfsi
__ltsf2
__gtsf2
adc_get_value
param_write_all
param_read_all
memcpy
param_size_check
eeprom_check_start
__eqsf2
debug_message_buffer_sprintf
watchdog_wait_reset
debug_vect
body2navi
ppm_get_channel
sys_time_clock_get_unix_offset
comm_send_ch
x_position_kalman3
y_position_kalman3
z_position_kalman3
shutter_loop
shutter_get_seq
vision_buffer_buffer_camera_triggered
