   1              		.file	"communication.c"
   2              		.text
   3              		.align	2
   5              	mavlink_parse_state_initialize:
   6              		@ Function supports interworking.
   7              		@ args = 0, pretend = 0, frame = 0
   8              		@ frame_needed = 0, uses_anonymous_args = 0
   9              		@ link register save eliminated.
  10 0000 083090E5 		ldr	r3, [r0, #8]
  11 0004 013043E2 		sub	r3, r3, #1
  12 0008 080053E3 		cmp	r3, #8
  13              		@ lr needed for prologue
  14 000c 0020A0E3 		mov	r2, #0
  15 0010 1EFF2F91 		bxls	lr
  16 0014 0E20C0E5 		strb	r2, [r0, #14]
  17 0018 B021C0E1 		strh	r2, [r0, #16]	@ movhi
  18 001c 0020C0E5 		strb	r2, [r0, #0]
  19 0020 0120C0E5 		strb	r2, [r0, #1]
  20 0024 0220C0E5 		strb	r2, [r0, #2]
  21 0028 0320C0E5 		strb	r2, [r0, #3]
  22 002c 0420C0E5 		strb	r2, [r0, #4]
  23 0030 082080E5 		str	r2, [r0, #8]
  24 0034 0C20C0E5 		strb	r2, [r0, #12]
  25 0038 B221C0E1 		strh	r2, [r0, #18]	@ movhi
  26 003c 0D20C0E5 		strb	r2, [r0, #13]
  27 0040 1EFF2FE1 		bx	lr
  29              		.align	2
  31              	mavlink_finalize_message_chan:
  32              		@ Function supports interworking.
  33              		@ args = 4, pretend = 0, frame = 0
  34              		@ frame_needed = 0, uses_anonymous_args = 0
  35 0044 10402DE9 		stmfd	sp!, {r4, lr}
  36 0048 08C09DE5 		ldr	ip, [sp, #8]
  37 004c 0CC8A0E1 		mov	ip, ip, asl #16
  38 0050 0210C0E5 		strb	r1, [r0, #2]
  39 0054 2CC8A0E1 		mov	ip, ip, lsr #16
  40 0058 FF3003E2 		and	r3, r3, #255
  41 005c A8109FE5 		ldr	r1, .L15
  42 0060 0320C0E5 		strb	r2, [r0, #3]
  43 0064 00C0C0E5 		strb	ip, [r0, #0]
  44 0068 033183E0 		add	r3, r3, r3, asl #2
  45 006c 031181E0 		add	r1, r1, r3, asl #2
  46 0070 0E30D1E5 		ldrb	r3, [r1, #14]	@ zero_extendqisi2
  47 0074 0130C0E5 		strb	r3, [r0, #1]
  48 0078 0E20D1E5 		ldrb	r2, [r1, #14]	@ zero_extendqisi2
  49 007c 0040A0E1 		mov	r4, r0
  50 0080 05008CE2 		add	r0, ip, #5
  51 0084 012082E2 		add	r2, r2, #1
  52 0088 000050E3 		cmp	r0, #0
  53 008c 0E20C1E5 		strb	r2, [r1, #14]
  54 0090 FF20A0D3 		movle	r2, #255
  55 0094 0230A0D1 		movle	r3, r2
  56 0098 140000DA 		ble	.L9
  57 009c 01E8A0E3 		mov	lr, #65536
  58 00a0 01E04EE2 		sub	lr, lr, #1
  59 00a4 0010A0E3 		mov	r1, #0
  60              	.L10:
  61 00a8 0430D1E7 		ldrb	r3, [r1, r4]	@ zero_extendqisi2
  62 00ac 0E3023E0 		eor	r3, r3, lr
  63 00b0 FF3003E2 		and	r3, r3, #255
  64 00b4 033223E0 		eor	r3, r3, r3, asl #4
  65 00b8 FF3003E2 		and	r3, r3, #255
  66 00bc 0324A0E1 		mov	r2, r3, asl #8
  67 00c0 2E2482E1 		orr	r2, r2, lr, lsr #8
  68 00c4 232222E0 		eor	r2, r2, r3, lsr #4
  69 00c8 832122E0 		eor	r2, r2, r3, asl #3
  70 00cc 011081E2 		add	r1, r1, #1
  71 00d0 0228A0E1 		mov	r2, r2, asl #16
  72 00d4 000051E1 		cmp	r1, r0
  73 00d8 22E8A0E1 		mov	lr, r2, lsr #16
  74 00dc F1FFFF1A 		bne	.L10
  75 00e0 0E28A0E1 		mov	r2, lr, asl #16
  76 00e4 2238A0E1 		mov	r3, r2, lsr #16
  77 00e8 FF3003E2 		and	r3, r3, #255
  78 00ec 222CA0E1 		mov	r2, r2, lsr #24
  79              	.L9:
  80 00f0 07008CE2 		add	r0, ip, #7
  81 00f4 0008A0E1 		mov	r0, r0, asl #16
  82 00f8 2008A0E1 		mov	r0, r0, lsr #16
  83 00fc 0521C4E5 		strb	r2, [r4, #261]
  84 0100 0431C4E5 		strb	r3, [r4, #260]
  85 0104 1040BDE8 		ldmfd	sp!, {r4, lr}
  86 0108 1EFF2FE1 		bx	lr
  87              	.L16:
  88              		.align	2
  89              	.L15:
  90 010c 54040000 		.word	m_mavlink_status.2036
  92              		.global	__udivsi3
  93              		.align	2
  94              		.global	communication_get_uart_drop_rate
  96              	communication_get_uart_drop_rate:
  97              		@ Function supports interworking.
  98              		@ args = 0, pretend = 0, frame = 0
  99              		@ frame_needed = 0, uses_anonymous_args = 0
 100 0110 30402DE9 		stmfd	sp!, {r4, r5, lr}
 101 0114 4C409FE5 		ldr	r4, .L19
 102 0118 680194E5 		ldr	r0, [r4, #360]
 103 011c 803260E0 		rsb	r3, r0, r0, asl #5
 104 0120 030180E0 		add	r0, r0, r3, asl #2
 105 0124 6C1194E5 		ldr	r1, [r4, #364]
 106 0128 8001A0E1 		mov	r0, r0, asl #3
 107 012c 011081E2 		add	r1, r1, #1
 108 0130 010080E2 		add	r0, r0, #1
 109 0134 FEFFFFEB 		bl	__udivsi3
 110 0138 0050A0E1 		mov	r5, r0
 111 013c 700194E5 		ldr	r0, [r4, #368]
 112 0140 803260E0 		rsb	r3, r0, r0, asl #5
 113 0144 030180E0 		add	r0, r0, r3, asl #2
 114 0148 741194E5 		ldr	r1, [r4, #372]
 115 014c 8001A0E1 		mov	r0, r0, asl #3
 116 0150 011081E2 		add	r1, r1, #1
 117 0154 010080E2 		add	r0, r0, #1
 118 0158 FEFFFFEB 		bl	__udivsi3
 119 015c 000085E0 		add	r0, r5, r0
 120 0160 3040BDE8 		ldmfd	sp!, {r4, r5, lr}
 121 0164 1EFF2FE1 		bx	lr
 122              	.L20:
 123              		.align	2
 124              	.L19:
 125 0168 00000000 		.word	global_data
 127              		.global	__gtsf2
 128              		.align	2
 129              		.global	communication_init
 131              	communication_init:
 132              		@ Function supports interworking.
 133              		@ args = 0, pretend = 0, frame = 0
 134              		@ frame_needed = 0, uses_anonymous_args = 0
 135 016c 10402DE9 		stmfd	sp!, {r4, lr}
 136 0170 24409FE5 		ldr	r4, .L27
 137 0174 0010A0E3 		mov	r1, #0
 138 0178 CC0394E5 		ldr	r0, [r4, #972]	@ float
 139 017c FEFFFFEB 		bl	__gtsf2
 140 0180 000050E3 		cmp	r0, #0
 141 0184 0130A0C3 		movgt	r3, #1
 142 0188 0030A0D3 		movle	r3, #0
 143 018c 6231C4C5 		strgtb	r3, [r4, #354]
 144 0190 6231C4D5 		strleb	r3, [r4, #354]
 145 0194 1040BDE8 		ldmfd	sp!, {r4, lr}
 146 0198 1EFF2FE1 		bx	lr
 147              	.L28:
 148              		.align	2
 149              	.L27:
 150 019c 00000000 		.word	global_data
 152              		.align	2
 154              	mavlink_send_uart:
 155              		@ Function supports interworking.
 156              		@ args = 0, pretend = 0, frame = 0
 157              		@ frame_needed = 0, uses_anonymous_args = 0
 158 01a0 70402DE9 		stmfd	sp!, {r4, r5, r6, lr}
 159 01a4 0150A0E1 		mov	r5, r1
 160 01a8 0060A0E1 		mov	r6, r0
 161 01ac 5510A0E3 		mov	r1, #85
 162 01b0 FEFFFFEB 		bl	comm_send_ch
 163 01b4 0600A0E1 		mov	r0, r6
 164 01b8 0010D5E5 		ldrb	r1, [r5, #0]	@ zero_extendqisi2
 165 01bc FEFFFFEB 		bl	comm_send_ch
 166 01c0 0600A0E1 		mov	r0, r6
 167 01c4 0110D5E5 		ldrb	r1, [r5, #1]	@ zero_extendqisi2
 168 01c8 FEFFFFEB 		bl	comm_send_ch
 169 01cc 0600A0E1 		mov	r0, r6
 170 01d0 0210D5E5 		ldrb	r1, [r5, #2]	@ zero_extendqisi2
 171 01d4 FEFFFFEB 		bl	comm_send_ch
 172 01d8 0600A0E1 		mov	r0, r6
 173 01dc 0310D5E5 		ldrb	r1, [r5, #3]	@ zero_extendqisi2
 174 01e0 FEFFFFEB 		bl	comm_send_ch
 175 01e4 0600A0E1 		mov	r0, r6
 176 01e8 0410D5E5 		ldrb	r1, [r5, #4]	@ zero_extendqisi2
 177 01ec FEFFFFEB 		bl	comm_send_ch
 178 01f0 0030D5E5 		ldrb	r3, [r5, #0]	@ zero_extendqisi2
 179 01f4 000053E3 		cmp	r3, #0
 180 01f8 0A00000A 		beq	.L30
 181 01fc 0040A0E3 		mov	r4, #0
 182              	.L32:
 183 0200 053084E0 		add	r3, r4, r5
 184 0204 0510D3E5 		ldrb	r1, [r3, #5]	@ zero_extendqisi2
 185 0208 0600A0E1 		mov	r0, r6
 186 020c FEFFFFEB 		bl	comm_send_ch
 187 0210 013084E2 		add	r3, r4, #1
 188 0214 0338A0E1 		mov	r3, r3, asl #16
 189 0218 0020D5E5 		ldrb	r2, [r5, #0]	@ zero_extendqisi2
 190 021c 2348A0E1 		mov	r4, r3, lsr #16
 191 0220 040052E1 		cmp	r2, r4
 192 0224 F5FFFF8A 		bhi	.L32
 193              	.L30:
 194 0228 0411D5E5 		ldrb	r1, [r5, #260]	@ zero_extendqisi2
 195 022c 0600A0E1 		mov	r0, r6
 196 0230 FEFFFFEB 		bl	comm_send_ch
 197 0234 0600A0E1 		mov	r0, r6
 198 0238 0511D5E5 		ldrb	r1, [r5, #261]	@ zero_extendqisi2
 199 023c FEFFFFEB 		bl	comm_send_ch
 200 0240 7040BDE8 		ldmfd	sp!, {r4, r5, r6, lr}
 201 0244 1EFF2FE1 		bx	lr
 203              		.section	.rodata.str1.4,"aMS",%progbits,1
 204              		.align	2
 205              	.LC0:
 206 0000 53746172 		.ascii	"Started reading params from eeprom\000"
 206      74656420 
 206      72656164 
 206      696E6720 
 206      70617261 
 207 0023 00       		.align	2
 208              	.LC1:
 209 0024 53746172 		.ascii	"Started writing params to eeprom\000"
 209      74656420 
 209      77726974 
 209      696E6720 
 209      70617261 
 210 0045 000000   		.align	2
 211              	.LC2:
 212 0048 5741524E 		.ascii	"WARNING: Rejected unknown action\000"
 212      494E473A 
 212      2052656A 
 212      65637465 
 212      6420756E 
 213              		.text
 214              		.align	2
 215              		.global	execute_action
 217              	execute_action:
 218              		@ Function supports interworking.
 219              		@ args = 0, pretend = 0, frame = 4
 220              		@ frame_needed = 0, uses_anonymous_args = 0
 221 0248 10402DE9 		stmfd	sp!, {r4, lr}
 222 024c FF4000E2 		and	r4, r0, #255
 223 0250 013044E2 		sub	r3, r4, #1
 224 0254 04D04DE2 		sub	sp, sp, #4
 225 0258 1B0053E3 		cmp	r3, #27
 226 025c 03F19F97 		ldrls	pc, [pc, r3, asl #2]
 227 0260 290000EA 		b	.L36
 228              		.p2align 2
 229              	.L48:
 230 0264 D4020000 		.word	.L37
 231 0268 D4020000 		.word	.L37
 232 026c 0C030000 		.word	.L36
 233 0270 0C030000 		.word	.L36
 234 0274 C8030000 		.word	.L39
 235 0278 0C030000 		.word	.L36
 236 027c 0C030000 		.word	.L36
 237 0280 B8030000 		.word	.L40
 238 0284 0C030000 		.word	.L36
 239 0288 0C030000 		.word	.L36
 240 028c 0C030000 		.word	.L36
 241 0290 0C030000 		.word	.L36
 242 0294 0C030000 		.word	.L36
 243 0298 A8030000 		.word	.L41
 244 029c 98030000 		.word	.L42
 245 02a0 90030000 		.word	.L43
 246 02a4 88030000 		.word	.L44
 247 02a8 80030000 		.word	.L45
 248 02ac 0C030000 		.word	.L36
 249 02b0 78030000 		.word	.L46
 250 02b4 0C030000 		.word	.L36
 251 02b8 0C030000 		.word	.L36
 252 02bc 0C030000 		.word	.L36
 253 02c0 0C030000 		.word	.L36
 254 02c4 0C030000 		.word	.L36
 255 02c8 0C030000 		.word	.L36
 256 02cc 0C030000 		.word	.L36
 257 02d0 F4020000 		.word	.L47
 258              	.L37:
 259 02d4 FC209FE5 		ldr	r2, .L55
 260 02d8 503192E5 		ldr	r3, [r2, #336]
 261 02dc 010053E3 		cmp	r3, #1
 262 02e0 0430A083 		movhi	r3, #4
 263 02e4 5C318285 		strhi	r3, [r2, #348]
 264              	.L53:
 265 02e8 04D08DE2 		add	sp, sp, #4
 266 02ec 1040BDE8 		ldmfd	sp!, {r4, lr}
 267 02f0 1EFF2FE1 		bx	lr
 268              	.L47:
 269 02f4 FEFFFFEB 		bl	sys_state_is_flying
 270 02f8 000050E3 		cmp	r0, #0
 271 02fc F9FFFF1A 		bne	.L53
 272 0300 FEFFFFEB 		bl	gps_set_local_origin
 273 0304 FEFFFFEB 		bl	altitude_set_local_origin
 274 0308 F6FFFFEA 		b	.L53
 275              	.L36:
 276 030c C8009FE5 		ldr	r0, .L55+4
 277 0310 FEFFFFEB 		bl	debug_message_buffer
 278 0314 C4309FE5 		ldr	r3, .L55+8
 279 0318 932481E0 		umull	r2, r1, r3, r4
 280 031c A112A0E1 		mov	r1, r1, lsr #5
 281 0320 BC009FE5 		ldr	r0, .L55+12
 282 0324 013181E0 		add	r3, r1, r1, asl #2
 283 0328 033183E0 		add	r3, r3, r3, asl #2
 284 032c 90C482E0 		umull	ip, r2, r0, r4
 285 0330 033144E0 		sub	r3, r4, r3, asl #2
 286 0334 FF3003E2 		and	r3, r3, #255
 287 0338 90E38CE0 		umull	lr, ip, r0, r3
 288 033c A221A0E1 		mov	r2, r2, lsr #3
 289 0340 022182E0 		add	r2, r2, r2, asl #2
 290 0344 822044E0 		sub	r2, r4, r2, asl #1
 291 0348 ACC1A0E1 		mov	ip, ip, lsr #3
 292 034c 30C08CE2 		add	ip, ip, #48
 293 0350 302082E2 		add	r2, r2, #48
 294 0354 301081E2 		add	r1, r1, #48
 295 0358 0030A0E3 		mov	r3, #0
 296 035c 0D00A0E1 		mov	r0, sp
 297 0360 0010CDE5 		strb	r1, [sp, #0]
 298 0364 01C0CDE5 		strb	ip, [sp, #1]
 299 0368 0220CDE5 		strb	r2, [sp, #2]
 300 036c 0330CDE5 		strb	r3, [sp, #3]
 301 0370 FEFFFFEB 		bl	debug_message_buffer
 302 0374 DBFFFFEA 		b	.L53
 303              	.L46:
 304 0378 FEFFFFEB 		bl	start_pressure_calibration
 305 037c D9FFFFEA 		b	.L53
 306              	.L45:
 307 0380 FEFFFFEB 		bl	start_mag_calibration
 308 0384 D7FFFFEA 		b	.L53
 309              	.L44:
 310 0388 FEFFFFEB 		bl	start_gyro_calibration
 311 038c D5FFFFEA 		b	.L53
 312              	.L43:
 313 0390 FEFFFFEB 		bl	start_rc_calibration
 314 0394 D3FFFFEA 		b	.L53
 315              	.L42:
 316 0398 48009FE5 		ldr	r0, .L55+16
 317 039c FEFFFFEB 		bl	debug_message_buffer
 318 03a0 FEFFFFEB 		bl	param_write_all
 319 03a4 CFFFFFEA 		b	.L53
 320              	.L41:
 321 03a8 FEFFFFEB 		bl	param_read_all
 322 03ac 38009FE5 		ldr	r0, .L55+20
 323 03b0 FEFFFFEB 		bl	debug_message_buffer
 324 03b4 CBFFFFEA 		b	.L53
 325              	.L40:
 326 03b8 18309FE5 		ldr	r3, .L55
 327 03bc 0320A0E3 		mov	r2, #3
 328 03c0 5C2183E5 		str	r2, [r3, #348]
 329 03c4 C7FFFFEA 		b	.L53
 330              	.L39:
 331 03c8 08309FE5 		ldr	r3, .L55
 332 03cc 0620A0E3 		mov	r2, #6
 333 03d0 5C2183E5 		str	r2, [r3, #348]
 334 03d4 C3FFFFEA 		b	.L53
 335              	.L56:
 336              		.align	2
 337              	.L55:
 338 03d8 00000000 		.word	global_data
 339 03dc 48000000 		.word	.LC2
 340 03e0 1F85EB51 		.word	1374389535
 341 03e4 CDCCCCCC 		.word	-858993459
 342 03e8 24000000 		.word	.LC1
 343 03ec 00000000 		.word	.LC0
 345              		.global	__fixunssfsi
 346              		.section	.rodata.str1.4
 347 0069 000000   		.align	2
 348              	.LC3:
 349 006c 554E4958 		.ascii	"UNIX offset updated\000"
 349      206F6666 
 349      73657420 
 349      75706461 
 349      74656400 
 350              		.global	__floatsisf
 351              		.global	__addsf3
 352              		.global	__nesf2
 353              		.global	__subsf3
 354              		.align	2
 355              	.LC4:
 356 0080 50617261 		.ascii	"Parameter received param id=%i\000"
 356      6D657465 
 356      72207265 
 356      63656976 
 356      65642070 
 357              		.global	__eqsf2
 358 009f 00       		.align	2
 359              	.LC5:
 360 00a0 506F7369 		.ascii	"Position setpoint updated. OLD?\012\000"
 360      74696F6E 
 360      20736574 
 360      706F696E 
 360      74207570 
 361 00c1 000000   		.align	2
 362              	.LC6:
 363 00c4 506F7369 		.ascii	"Position setpoint recieved but not updated. OLD?\012"
 363      74696F6E 
 363      20736574 
 363      706F696E 
 363      74207265 
 364 00f5 00       		.ascii	"\000"
 365 00f6 0000     		.align	2
 366              	.LC7:
 367 00f8 7365745F 		.ascii	"set_cam_shutter. interval %i\000"
 367      63616D5F 
 367      73687574 
 367      7465722E 
 367      20696E74 
 368 0115 000000   		.align	2
 369              	.LC8:
 370 0118 43414D3A 		.ascii	"CAM: Enabling hardware trigger\000"
 370      20456E61 
 370      626C696E 
 370      67206861 
 370      72647761 
 371 0137 00       		.align	2
 372              	.LC9:
 373 0138 43414D3A 		.ascii	"CAM: Disabling hardware trigger\000"
 373      20446973 
 373      61626C69 
 373      6E672068 
 373      61726477 
 374              		.global	__ltsf2
 375              		.align	2
 376              	.LC10:
 377 0158 7669636F 		.ascii	"vicon CRITICAL FAULT yaw was bigger than 20! preven"
 377      6E204352 
 377      49544943 
 377      414C2046 
 377      41554C54 
 378 018b 74656420 		.ascii	"ted crash\000"
 378      63726173 
 378      6800
 379              		.global	__gesf2
 380              		.global	__lesf2
 381 0195 000000   		.align	2
 382              	.LC11:
 383 0198 53657470 		.ascii	"Setpoint accepted and set.\000"
 383      6F696E74 
 383      20616363 
 383      65707465 
 383      6420616E 
 384              		.global	__extendsfdf2
 385              		.global	__gtdf2
 386 01b3 00       		.align	2
 387              	.LC12:
 388 01b4 53696E6B 		.ascii	"Sinking for LANDING. (z-sp lower than 10cm)\000"
 388      696E6720 
 388      666F7220 
 388      4C414E44 
 388      494E472E 
 389              		.align	2
 390              	.LC13:
 391 01e0 53544152 		.ascii	"STARTING wait motors. (z-sp higher than 50cm)\000"
 391      54494E47 
 391      20776169 
 391      74206D6F 
 391      746F7273 
 392 020e 0000     		.align	2
 393              	.LC14:
 394 0210 53657470 		.ascii	"Setpoint refused. Out of range.\000"
 394      6F696E74 
 394      20726566 
 394      75736564 
 394      2E204F75 
 395              		.align	2
 396              	.LC15:
 397 0230 53657470 		.ascii	"Setpoint refused. Param setpoint accept=0.\000"
 397      6F696E74 
 397      20726566 
 397      75736564 
 397      2E205061 
 398 025b 00       		.text
 399              		.align	2
 400              		.global	handle_mavlink_message
 402              	handle_mavlink_message:
 403              		@ Function supports interworking.
 404              		@ args = 0, pretend = 0, frame = 1036
 405              		@ frame_needed = 0, uses_anonymous_args = 0
 406 03f0 F04F2DE9 		stmfd	sp!, {r4, r5, r6, r7, r8, r9, sl, fp, lr}
 407 03f4 0020A0E3 		mov	r2, #0
 408 03f8 41DE4DE2 		sub	sp, sp, #1040
 409 03fc 0030A0E3 		mov	r3, #0
 410 0400 000050E3 		cmp	r0, #0
 411 0404 0C018DE5 		str	r0, [sp, #268]
 412 0408 5C218DE5 		str	r2, [sp, #348]
 413 040c 60318DE5 		str	r3, [sp, #352]
 414 0410 44218DE5 		str	r2, [sp, #324]
 415 0414 48318DE5 		str	r3, [sp, #328]
 416 0418 0270A0E1 		mov	r7, r2
 417 041c 0380A0E1 		mov	r8, r3
 418 0420 01B0A0E1 		mov	fp, r1
 419 0424 3F00000A 		beq	.L59
 420 0428 010050E3 		cmp	r0, #1
 421 042c 8F01000A 		beq	.L229
 422              	.L58:
 423 0430 0490DBE5 		ldrb	r9, [fp, #4]	@ zero_extendqisi2
 424 0434 320059E3 		cmp	r9, #50
 425 0438 0401000A 		beq	.L76
 426              	.L230:
 427 043c 5700008A 		bhi	.L83
 428 0440 0B0059E3 		cmp	r9, #11
 429 0444 A401000A 		beq	.L72
 430 0448 5702008A 		bhi	.L84
 431 044c 030059E3 		cmp	r9, #3
 432 0450 0D06000A 		beq	.L70
 433 0454 0A0059E3 		cmp	r9, #10
 434 0458 6D04000A 		beq	.L71
 435 045c 020059E3 		cmp	r9, #2
 436 0460 F700001A 		bne	.L203
 437 0464 FEFFFFEB 		bl	sys_time_clock_get_unix_offset
 438 0468 010090E1 		orrs	r0, r0, r1
 439 046c F400001A 		bne	.L203
 440 0470 60519DE5 		ldr	r5, [sp, #352]
 441 0474 0520DBE5 		ldrb	r2, [fp, #5]	@ zero_extendqisi2
 442 0478 FF34C5E3 		bic	r3, r5, #-16777216
 443 047c 022C83E1 		orr	r2, r3, r2, asl #24
 444 0480 60218DE5 		str	r2, [sp, #352]
 445 0484 0610DBE5 		ldrb	r1, [fp, #6]	@ zero_extendqisi2
 446 0488 FF38C2E3 		bic	r3, r2, #16711680
 447 048c 011883E1 		orr	r1, r3, r1, asl #16
 448 0490 60118DE5 		str	r1, [sp, #352]
 449 0494 0270A0E1 		mov	r7, r2
 450 0498 0720DBE5 		ldrb	r2, [fp, #7]	@ zero_extendqisi2
 451 049c FF3CC1E3 		bic	r3, r1, #65280
 452 04a0 022483E1 		orr	r2, r3, r2, asl #8
 453 04a4 60218DE5 		str	r2, [sp, #352]
 454 04a8 0180A0E1 		mov	r8, r1
 455 04ac 0810DBE5 		ldrb	r1, [fp, #8]	@ zero_extendqisi2
 456 04b0 FF30C2E3 		bic	r3, r2, #255
 457 04b4 031081E1 		orr	r1, r1, r3
 458 04b8 60118DE5 		str	r1, [sp, #352]
 459 04bc 5CA19DE5 		ldr	sl, [sp, #348]
 460 04c0 0290A0E1 		mov	r9, r2
 461 04c4 0920DBE5 		ldrb	r2, [fp, #9]	@ zero_extendqisi2
 462 04c8 FF34CAE3 		bic	r3, sl, #-16777216
 463 04cc 022C83E1 		orr	r2, r3, r2, asl #24
 464 04d0 5C218DE5 		str	r2, [sp, #348]
 465 04d4 0A10DBE5 		ldrb	r1, [fp, #10]	@ zero_extendqisi2
 466 04d8 FF38C2E3 		bic	r3, r2, #16711680
 467 04dc 011883E1 		orr	r1, r3, r1, asl #16
 468 04e0 5C118DE5 		str	r1, [sp, #348]
 469 04e4 0B20DBE5 		ldrb	r2, [fp, #11]	@ zero_extendqisi2
 470 04e8 FF3CC1E3 		bic	r3, r1, #65280
 471 04ec 022483E1 		orr	r2, r3, r2, asl #8
 472 04f0 5C218DE5 		str	r2, [sp, #348]
 473 04f4 0C10DBE5 		ldrb	r1, [fp, #12]	@ zero_extendqisi2
 474 04f8 FF30C2E3 		bic	r3, r2, #255
 475 04fc 031081E1 		orr	r1, r1, r3
 476 0500 5C118DE5 		str	r1, [sp, #348]
 477 0504 FEFFFFEB 		bl	sys_time_clock_get_time_usec
 478 0508 572F8DE2 		add	r2, sp, #348
 479 050c 0C0092E8 		ldmia	r2, {r2-r3}
 480 0510 000052E0 		subs	r0, r2, r0
 481 0514 0110C3E0 		sbc	r1, r3, r1
 482 0518 FEFFFFEB 		bl	sys_time_clock_set_unix_offset
 483 051c 280F9FE5 		ldr	r0, .L244
 484 0520 FEFFFFEB 		bl	debug_message_buffer
 485 0524 C60000EA 		b	.L203
 486              	.L59:
 487 0528 0430D1E5 		ldrb	r3, [r1, #4]	@ zero_extendqisi2
 488 052c 6F0053E3 		cmp	r3, #111
 489 0530 1C00000A 		beq	.L61
 490 0534 0020D1E5 		ldrb	r2, [r1, #0]	@ zero_extendqisi2
 491 0538 2B6E8DE2 		add	r6, sp, #688
 492 053c 036046E2 		sub	r6, r6, #3
 493 0540 5530A0E3 		mov	r3, #85
 494 0544 052082E2 		add	r2, r2, #5
 495 0548 010086E2 		add	r0, r6, #1
 496 054c AD32CDE5 		strb	r3, [sp, #685]
 497 0550 FEFFFFEB 		bl	memcpy
 498 0554 0020DBE5 		ldrb	r2, [fp, #0]	@ zero_extendqisi2
 499 0558 0401DBE5 		ldrb	r0, [fp, #260]	@ zero_extendqisi2
 500 055c 0511DBE5 		ldrb	r1, [fp, #261]	@ zero_extendqisi2
 501 0560 023086E0 		add	r3, r6, r2
 502 0564 080072E3 		cmn	r2, #8
 503 0568 0710C3E5 		strb	r1, [r3, #7]
 504 056c 0600C3E5 		strb	r0, [r3, #6]
 505 0570 085082E2 		add	r5, r2, #8
 506 0574 ADFFFF0A 		beq	.L58
 507 0578 0C419DE5 		ldr	r4, [sp, #268]
 508              	.L64:
 509 057c 0600D4E7 		ldrb	r0, [r4, r6]	@ zero_extendqisi2
 510 0580 014084E2 		add	r4, r4, #1
 511 0584 FEFFFFEB 		bl	uart1_transmit
 512 0588 040055E1 		cmp	r5, r4
 513 058c FAFFFF1A 		bne	.L64
 514 0590 0490DBE5 		ldrb	r9, [fp, #4]	@ zero_extendqisi2
 515 0594 320059E3 		cmp	r9, #50
 516 0598 A7FFFF1A 		bne	.L230
 517 059c AB0000EA 		b	.L76
 518              	.L83:
 519 05a0 6F0059E3 		cmp	r9, #111
 520 05a4 1B01001A 		bne	.L231
 521              	.L61:
 522 05a8 48019DE5 		ldr	r0, [sp, #328]
 523 05ac 0520DBE5 		ldrb	r2, [fp, #5]	@ zero_extendqisi2
 524 05b0 FF34C0E3 		bic	r3, r0, #-16777216
 525 05b4 022C83E1 		orr	r2, r3, r2, asl #24
 526 05b8 48218DE5 		str	r2, [sp, #328]
 527 05bc 0610DBE5 		ldrb	r1, [fp, #6]	@ zero_extendqisi2
 528 05c0 FF38C2E3 		bic	r3, r2, #16711680
 529 05c4 011883E1 		orr	r1, r3, r1, asl #16
 530 05c8 48118DE5 		str	r1, [sp, #328]
 531 05cc 0720DBE5 		ldrb	r2, [fp, #7]	@ zero_extendqisi2
 532 05d0 FF3CC1E3 		bic	r3, r1, #65280
 533 05d4 022483E1 		orr	r2, r3, r2, asl #8
 534 05d8 48218DE5 		str	r2, [sp, #328]
 535 05dc 48519DE5 		ldr	r5, [sp, #328]
 536 05e0 0810DBE5 		ldrb	r1, [fp, #8]	@ zero_extendqisi2
 537 05e4 FF30C5E3 		bic	r3, r5, #255
 538 05e8 031081E1 		orr	r1, r1, r3
 539 05ec 48118DE5 		str	r1, [sp, #328]
 540 05f0 05208BE2 		add	r2, fp, #5
 541 05f4 1490D2E5 		ldrb	r9, [r2, #20]	@ zero_extendqisi2
 542 05f8 40C19DE5 		ldr	ip, [sp, #320]
 543 05fc 3CE19DE5 		ldr	lr, [sp, #316]
 544 0600 0860D2E5 		ldrb	r6, [r2, #8]	@ zero_extendqisi2
 545 0604 0950DBE5 		ldrb	r5, [fp, #9]	@ zero_extendqisi2
 546 0608 0C70D2E5 		ldrb	r7, [r2, #12]	@ zero_extendqisi2
 547 060c 1080D2E5 		ldrb	r8, [r2, #16]	@ zero_extendqisi2
 548 0610 B4908DE5 		str	r9, [sp, #180]
 549 0614 38319DE5 		ldr	r3, [sp, #312]
 550 0618 FF04CCE3 		bic	r0, ip, #-16777216
 551 061c FFC4CEE3 		bic	ip, lr, #-16777216
 552 0620 18A0D2E5 		ldrb	sl, [r2, #24]	@ zero_extendqisi2
 553 0624 088C8CE1 		orr	r8, ip, r8, asl #24
 554 0628 B4C09DE5 		ldr	ip, [sp, #180]
 555 062c FFE4C3E3 		bic	lr, r3, #-16777216
 556 0630 A4A08DE5 		str	sl, [sp, #164]
 557 0634 34919DE5 		ldr	r9, [sp, #308]
 558 0638 FF14CAE3 		bic	r1, sl, #-16777216
 559 063c 0CEC8EE1 		orr	lr, lr, ip, asl #24
 560 0640 44A19DE5 		ldr	sl, [sp, #324]
 561 0644 38E18DE5 		str	lr, [sp, #312]
 562 0648 A4E09DE5 		ldr	lr, [sp, #164]
 563 064c FF34CAE3 		bic	r3, sl, #-16777216
 564 0650 FF44C9E3 		bic	r4, r9, #-16777216
 565 0654 055C83E1 		orr	r5, r3, r5, asl #24
 566 0658 077C80E1 		orr	r7, r0, r7, asl #24
 567 065c 0E4C84E1 		orr	r4, r4, lr, asl #24
 568 0660 34418DE5 		str	r4, [sp, #308]
 569 0664 44518DE5 		str	r5, [sp, #324]
 570 0668 40718DE5 		str	r7, [sp, #320]
 571 066c 3C818DE5 		str	r8, [sp, #316]
 572 0670 1500D2E5 		ldrb	r0, [r2, #21]	@ zero_extendqisi2
 573 0674 06AC81E1 		orr	sl, r1, r6, asl #24
 574 0678 0A50DBE5 		ldrb	r5, [fp, #10]	@ zero_extendqisi2
 575 067c 0960D2E5 		ldrb	r6, [r2, #9]	@ zero_extendqisi2
 576 0680 0D70D2E5 		ldrb	r7, [r2, #13]	@ zero_extendqisi2
 577 0684 1180D2E5 		ldrb	r8, [r2, #17]	@ zero_extendqisi2
 578 0688 B0008DE5 		str	r0, [sp, #176]
 579 068c 3C419DE5 		ldr	r4, [sp, #316]
 580 0690 38919DE5 		ldr	r9, [sp, #312]
 581 0694 FFC8C4E3 		bic	ip, r4, #16711680
 582 0698 1910D2E5 		ldrb	r1, [r2, #25]	@ zero_extendqisi2
 583 069c 08888CE1 		orr	r8, ip, r8, asl #16
 584 06a0 B0C09DE5 		ldr	ip, [sp, #176]
 585 06a4 FFE8C9E3 		bic	lr, r9, #16711680
 586 06a8 A0108DE5 		str	r1, [sp, #160]
 587 06ac 053D8DE2 		add	r3, sp, #320
 588 06b0 080293E8 		ldmia	r3, {r3, r9}	@ phole ldm
 589 06b4 FF18CAE3 		bic	r1, sl, #16711680
 590 06b8 0CE88EE1 		orr	lr, lr, ip, asl #16
 591 06bc 34A19DE5 		ldr	sl, [sp, #308]
 592 06c0 38E18DE5 		str	lr, [sp, #312]
 593 06c4 A0E09DE5 		ldr	lr, [sp, #160]
 594 06c8 FF08C3E3 		bic	r0, r3, #16711680
 595 06cc FF48CAE3 		bic	r4, sl, #16711680
 596 06d0 FF38C9E3 		bic	r3, r9, #16711680
 597 06d4 055883E1 		orr	r5, r3, r5, asl #16
 598 06d8 077880E1 		orr	r7, r0, r7, asl #16
 599 06dc 0E4884E1 		orr	r4, r4, lr, asl #16
 600 06e0 44518DE5 		str	r5, [sp, #324]
 601 06e4 40718DE5 		str	r7, [sp, #320]
 602 06e8 3C818DE5 		str	r8, [sp, #316]
 603 06ec 34418DE5 		str	r4, [sp, #308]
 604 06f0 1600D2E5 		ldrb	r0, [r2, #22]	@ zero_extendqisi2
 605 06f4 3C419DE5 		ldr	r4, [sp, #316]
 606 06f8 0B50DBE5 		ldrb	r5, [fp, #11]	@ zero_extendqisi2
 607 06fc 0E70D2E5 		ldrb	r7, [r2, #14]	@ zero_extendqisi2
 608 0700 1280D2E5 		ldrb	r8, [r2, #18]	@ zero_extendqisi2
 609 0704 06A881E1 		orr	sl, r1, r6, asl #16
 610 0708 0A60D2E5 		ldrb	r6, [r2, #10]	@ zero_extendqisi2
 611 070c AC008DE5 		str	r0, [sp, #172]
 612 0710 38919DE5 		ldr	r9, [sp, #312]
 613 0714 FFCCC4E3 		bic	ip, r4, #65280
 614 0718 1A10D2E5 		ldrb	r1, [r2, #26]	@ zero_extendqisi2
 615 071c 08848CE1 		orr	r8, ip, r8, asl #8
 616 0720 ACC09DE5 		ldr	ip, [sp, #172]
 617 0724 FFECC9E3 		bic	lr, r9, #65280
 618 0728 053D8DE2 		add	r3, sp, #320
 619 072c 080293E8 		ldmia	r3, {r3, r9}	@ phole ldm
 620 0730 9C108DE5 		str	r1, [sp, #156]
 621 0734 0CE48EE1 		orr	lr, lr, ip, asl #8
 622 0738 FF1CCAE3 		bic	r1, sl, #65280
 623 073c 34A19DE5 		ldr	sl, [sp, #308]
 624 0740 38E18DE5 		str	lr, [sp, #312]
 625 0744 9CE09DE5 		ldr	lr, [sp, #156]
 626 0748 FF0CC3E3 		bic	r0, r3, #65280
 627 074c FF4CCAE3 		bic	r4, sl, #65280
 628 0750 FF3CC9E3 		bic	r3, r9, #65280
 629 0754 055483E1 		orr	r5, r3, r5, asl #8
 630 0758 077480E1 		orr	r7, r0, r7, asl #8
 631 075c 0E4484E1 		orr	r4, r4, lr, asl #8
 632 0760 44518DE5 		str	r5, [sp, #324]
 633 0764 40718DE5 		str	r7, [sp, #320]
 634 0768 3C818DE5 		str	r8, [sp, #316]
 635 076c 34418DE5 		str	r4, [sp, #308]
 636 0770 1300D2E5 		ldrb	r0, [r2, #19]	@ zero_extendqisi2
 637 0774 0B70D2E5 		ldrb	r7, [r2, #11]	@ zero_extendqisi2
 638 0778 0F80D2E5 		ldrb	r8, [r2, #15]	@ zero_extendqisi2
 639 077c 06A481E1 		orr	sl, r1, r6, asl #8
 640 0780 0C60DBE5 		ldrb	r6, [fp, #12]	@ zero_extendqisi2
 641 0784 B8008DE5 		str	r0, [sp, #184]
 642 0788 40319DE5 		ldr	r3, [sp, #320]
 643 078c FF00CAE3 		bic	r0, sl, #255
 644 0790 44A19DE5 		ldr	sl, [sp, #324]
 645 0794 1710D2E5 		ldrb	r1, [r2, #23]	@ zero_extendqisi2
 646 0798 FFC0C3E3 		bic	ip, r3, #255
 647 079c 3C419DE5 		ldr	r4, [sp, #316]
 648 07a0 FF30CAE3 		bic	r3, sl, #255
 649 07a4 A8108DE5 		str	r1, [sp, #168]
 650 07a8 036086E1 		orr	r6, r6, r3
 651 07ac 0C3088E1 		orr	r3, r8, ip
 652 07b0 B8C09DE5 		ldr	ip, [sp, #184]
 653 07b4 FFE0C4E3 		bic	lr, r4, #255
 654 07b8 38519DE5 		ldr	r5, [sp, #312]
 655 07bc 34919DE5 		ldr	r9, [sp, #308]
 656 07c0 1BB0D2E5 		ldrb	fp, [r2, #27]	@ zero_extendqisi2
 657 07c4 001087E1 		orr	r1, r7, r0
 658 07c8 0E008CE1 		orr	r0, ip, lr
 659 07cc A8E09DE5 		ldr	lr, [sp, #168]
 660 07d0 44618DE5 		str	r6, [sp, #324]
 661 07d4 FF40C5E3 		bic	r4, r5, #255
 662 07d8 FF50C9E3 		bic	r5, r9, #255
 663 07dc 04C08EE1 		orr	ip, lr, r4
 664 07e0 05E08BE1 		orr	lr, fp, r5
 665 07e4 514F8DE2 		add	r4, sp, #324
 666 07e8 300094E8 		ldmia	r4, {r4-r5}
 667 07ec B4438DE5 		str	r4, [sp, #948]
 668 07f0 B8538DE5 		str	r5, [sp, #952]
 669 07f4 C0338DE5 		str	r3, [sp, #960]	@ float
 670 07f8 BC138DE5 		str	r1, [sp, #956]	@ float
 671 07fc C4038DE5 		str	r0, [sp, #964]	@ float
 672 0800 C8C38DE5 		str	ip, [sp, #968]	@ float
 673 0804 CCE38DE5 		str	lr, [sp, #972]	@ float
 674 0808 1C10D2E5 		ldrb	r1, [r2, #28]	@ zero_extendqisi2
 675 080c FF34C4E3 		bic	r3, r4, #-16777216
 676 0810 1D00D2E5 		ldrb	r0, [r2, #29]	@ zero_extendqisi2
 677 0814 014C83E1 		orr	r4, r3, r1, asl #24
 678 0818 FF38C4E3 		bic	r3, r4, #16711680
 679 081c 004883E1 		orr	r4, r3, r0, asl #16
 680 0820 1E10D2E5 		ldrb	r1, [r2, #30]	@ zero_extendqisi2
 681 0824 FF3CC4E3 		bic	r3, r4, #65280
 682 0828 1F00D2E5 		ldrb	r0, [r2, #31]	@ zero_extendqisi2
 683 082c 014483E1 		orr	r4, r3, r1, asl #8
 684 0830 FF30C4E3 		bic	r3, r4, #255
 685 0834 032080E1 		orr	r2, r0, r3
 686 0838 ED0F8DE2 		add	r0, sp, #948
 687 083c D0238DE5 		str	r2, [sp, #976]	@ float
 688 0840 FEFFFFEB 		bl	vision_buffer_handle_data
 689              	.L203:
 690 0844 41DE8DE2 		add	sp, sp, #1040
 691 0848 F04FBDE8 		ldmfd	sp!, {r4, r5, r6, r7, r8, r9, sl, fp, lr}
 692 084c 1EFF2FE1 		bx	lr
 693              	.L76:
 694 0850 0500FBE5 		ldrb	r0, [fp, #5]!	@ zero_extendqisi2
 695 0854 0240DBE5 		ldrb	r4, [fp, #2]	@ zero_extendqisi2
 696 0858 0B30A0E1 		mov	r3, fp
 697 085c 0650DBE5 		ldrb	r5, [fp, #6]	@ zero_extendqisi2
 698 0860 0A60DBE5 		ldrb	r6, [fp, #10]	@ zero_extendqisi2
 699 0864 0E70DBE5 		ldrb	r7, [fp, #14]	@ zero_extendqisi2
 700 0868 FF24C8E3 		bic	r2, r8, #-16777216
 701 086c 048C82E1 		orr	r8, r2, r4, asl #24
 702 0870 FF14CAE3 		bic	r1, sl, #-16777216
 703 0874 0340D3E5 		ldrb	r4, [r3, #3]	@ zero_extendqisi2
 704 0878 FFC4C9E3 		bic	ip, r9, #-16777216
 705 087c FFE4CBE3 		bic	lr, fp, #-16777216
 706 0880 05AC81E1 		orr	sl, r1, r5, asl #24
 707 0884 069C8CE1 		orr	r9, ip, r6, asl #24
 708 0888 07BC8EE1 		orr	fp, lr, r7, asl #24
 709 088c 0750D3E5 		ldrb	r5, [r3, #7]	@ zero_extendqisi2
 710 0890 0B60D3E5 		ldrb	r6, [r3, #11]	@ zero_extendqisi2
 711 0894 0F70D3E5 		ldrb	r7, [r3, #15]	@ zero_extendqisi2
 712 0898 FF28C8E3 		bic	r2, r8, #16711680
 713 089c 048882E1 		orr	r8, r2, r4, asl #16
 714 08a0 FF18CAE3 		bic	r1, sl, #16711680
 715 08a4 0440D3E5 		ldrb	r4, [r3, #4]	@ zero_extendqisi2
 716 08a8 FFC8C9E3 		bic	ip, r9, #16711680
 717 08ac FFE8CBE3 		bic	lr, fp, #16711680
 718 08b0 05A881E1 		orr	sl, r1, r5, asl #16
 719 08b4 06988CE1 		orr	r9, ip, r6, asl #16
 720 08b8 07B88EE1 		orr	fp, lr, r7, asl #16
 721 08bc 0850D3E5 		ldrb	r5, [r3, #8]	@ zero_extendqisi2
 722 08c0 0C60D3E5 		ldrb	r6, [r3, #12]	@ zero_extendqisi2
 723 08c4 1070D3E5 		ldrb	r7, [r3, #16]	@ zero_extendqisi2
 724 08c8 FF2CC8E3 		bic	r2, r8, #65280
 725 08cc 048482E1 		orr	r8, r2, r4, asl #8
 726 08d0 FF1CCAE3 		bic	r1, sl, #65280
 727 08d4 FFCCC9E3 		bic	ip, r9, #65280
 728 08d8 FFECCBE3 		bic	lr, fp, #65280
 729 08dc 05A481E1 		orr	sl, r1, r5, asl #8
 730 08e0 06948CE1 		orr	r9, ip, r6, asl #8
 731 08e4 07B48EE1 		orr	fp, lr, r7, asl #8
 732 08e8 1160D3E5 		ldrb	r6, [r3, #17]	@ zero_extendqisi2
 733 08ec 05E0D3E5 		ldrb	lr, [r3, #5]	@ zero_extendqisi2
 734 08f0 0940D3E5 		ldrb	r4, [r3, #9]	@ zero_extendqisi2
 735 08f4 0D50D3E5 		ldrb	r5, [r3, #13]	@ zero_extendqisi2
 736 08f8 FF30C8E3 		bic	r3, r8, #255
 737 08fc 808B9FE5 		ldr	r8, .L244+56
 738 0900 FF20CAE3 		bic	r2, sl, #255
 739 0904 FF10C9E3 		bic	r1, r9, #255
 740 0908 FFC0CBE3 		bic	ip, fp, #255
 741 090c 03708EE1 		orr	r7, lr, r3
 742 0910 024084E1 		orr	r4, r4, r2
 743 0914 015085E1 		orr	r5, r5, r1
 744 0918 0C6086E1 		orr	r6, r6, ip
 745 091c FEFFFFEB 		bl	__floatsisf
 746 0920 541298E5 		ldr	r1, [r8, #596]	@ float
 747 0924 FEFFFFEB 		bl	__eqsf2
 748 0928 000050E3 		cmp	r0, #0
 749 092c C4FFFF1A 		bne	.L203
 750 0930 EC0298E5 		ldr	r0, [r8, #748]	@ float
 751 0934 FE15A0E3 		mov	r1, #1065353216
 752 0938 FEFFFFEB 		bl	__eqsf2
 753 093c 000050E3 		cmp	r0, #0
 754 0940 E203001A 		bne	.L169
 755 0944 0700A0E1 		mov	r0, r7
 756 0948 901098E5 		ldr	r1, [r8, #144]	@ float
 757 094c FEFFFFEB 		bl	__gesf2
 758 0950 000050E3 		cmp	r0, #0
 759 0954 110100BA 		blt	.L172
 760 0958 0400A0E1 		mov	r0, r4
 761 095c 941098E5 		ldr	r1, [r8, #148]	@ float
 762 0960 FEFFFFEB 		bl	__gesf2
 763 0964 000050E3 		cmp	r0, #0
 764 0968 0C0100BA 		blt	.L172
 765 096c 0500A0E1 		mov	r0, r5
 766 0970 981098E5 		ldr	r1, [r8, #152]	@ float
 767 0974 FEFFFFEB 		bl	__gesf2
 768 0978 000050E3 		cmp	r0, #0
 769 097c 070100BA 		blt	.L172
 770 0980 0700A0E1 		mov	r0, r7
 771 0984 9C1098E5 		ldr	r1, [r8, #156]	@ float
 772 0988 FEFFFFEB 		bl	__lesf2
 773 098c 000050E3 		cmp	r0, #0
 774 0990 020100CA 		bgt	.L172
 775 0994 0400A0E1 		mov	r0, r4
 776 0998 A01098E5 		ldr	r1, [r8, #160]	@ float
 777 099c FEFFFFEB 		bl	__lesf2
 778 09a0 000050E3 		cmp	r0, #0
 779 09a4 FD0000CA 		bgt	.L172
 780 09a8 0500A0E1 		mov	r0, r5
 781 09ac A41098E5 		ldr	r1, [r8, #164]	@ float
 782 09b0 FEFFFFEB 		bl	__lesf2
 783 09b4 000050E3 		cmp	r0, #0
 784 09b8 F80000CA 		bgt	.L172
 785 09bc 8C0A9FE5 		ldr	r0, .L244+4
 786 09c0 FEFFFFEB 		bl	debug_message_buffer
 787 09c4 040398E5 		ldr	r0, [r8, #772]	@ float
 788 09c8 0010A0E3 		mov	r1, #0
 789 09cc F47288E5 		str	r7, [r8, #756]	@ float
 790 09d0 F84288E5 		str	r4, [r8, #760]	@ float
 791 09d4 FC5288E5 		str	r5, [r8, #764]	@ float
 792 09d8 FEFFFFEB 		bl	__eqsf2
 793 09dc A09A9FE5 		ldr	r9, .L244+56
 794 09e0 5C3199E5 		ldr	r3, [r9, #348]
 795 09e4 000050E3 		cmp	r0, #0
 796 09e8 043043E2 		sub	r3, r3, #4
 797 09ec 00638805 		streq	r6, [r8, #768]	@ float
 798 09f0 010053E3 		cmp	r3, #1
 799 09f4 1D06009A 		bls	.L232
 800              	.L188:
 801 09f8 840A9FE5 		ldr	r0, .L244+56
 802 09fc 5C3190E5 		ldr	r3, [r0, #348]
 803 0a00 053043E2 		sub	r3, r3, #5
 804 0a04 010053E3 		cmp	r3, #1
 805 0a08 442A9F95 		ldrls	r2, .L244+8
 806 0a0c 0030A091 		movls	r3, r0
 807 0a10 FC228395 		strls	r2, [r3, #764]	@ float
 808 0a14 8AFFFFEA 		b	.L203
 809              	.L231:
 810 0a18 5701008A 		bhi	.L85
 811 0a1c 640059E3 		cmp	r9, #100
 812 0a20 AD03000A 		beq	.L78
 813 0a24 660059E3 		cmp	r9, #102
 814 0a28 5803000A 		beq	.L79
 815 0a2c 420059E3 		cmp	r9, #66
 816 0a30 83FFFF1A 		bne	.L203
 817 0a34 0730DBE5 		ldrb	r3, [fp, #7]	@ zero_extendqisi2
 818 0a38 013043E2 		sub	r3, r3, #1
 819 0a3c 0A00DBE5 		ldrb	r0, [fp, #10]	@ zero_extendqisi2
 820 0a40 080053E3 		cmp	r3, #8
 821 0a44 03F19F97 		ldrls	pc, [pc, r3, asl #2]
 822 0a48 7DFFFFEA 		b	.L203
 823              		.p2align 2
 824              	.L103:
 825 0a4c B0170000 		.word	.L95
 826 0a50 D4170000 		.word	.L96
 827 0a54 F8170000 		.word	.L97
 828 0a58 40180000 		.word	.L98
 829 0a5c 44080000 		.word	.L203
 830 0a60 1C180000 		.word	.L99
 831 0a64 88180000 		.word	.L100
 832 0a68 64180000 		.word	.L101
 833 0a6c AC180000 		.word	.L102
 834              	.L229:
 835 0a70 0430D1E5 		ldrb	r3, [r1, #4]	@ zero_extendqisi2
 836 0a74 6F0053E3 		cmp	r3, #111
 837 0a78 CAFEFF0A 		beq	.L61
 838 0a7c 0020D1E5 		ldrb	r2, [r1, #0]	@ zero_extendqisi2
 839 0a80 2B6E8DE2 		add	r6, sp, #688
 840 0a84 036046E2 		sub	r6, r6, #3
 841 0a88 5530A0E3 		mov	r3, #85
 842 0a8c 052082E2 		add	r2, r2, #5
 843 0a90 010086E2 		add	r0, r6, #1
 844 0a94 AD32CDE5 		strb	r3, [sp, #685]
 845 0a98 FEFFFFEB 		bl	memcpy
 846 0a9c 0020DBE5 		ldrb	r2, [fp, #0]	@ zero_extendqisi2
 847 0aa0 0401DBE5 		ldrb	r0, [fp, #260]	@ zero_extendqisi2
 848 0aa4 0511DBE5 		ldrb	r1, [fp, #261]	@ zero_extendqisi2
 849 0aa8 023086E0 		add	r3, r6, r2
 850 0aac 080072E3 		cmn	r2, #8
 851 0ab0 0710C3E5 		strb	r1, [r3, #7]
 852 0ab4 0600C3E5 		strb	r0, [r3, #6]
 853 0ab8 085082E2 		add	r5, r2, #8
 854 0abc 5BFEFF0A 		beq	.L58
 855 0ac0 0040A0E3 		mov	r4, #0
 856              	.L67:
 857 0ac4 0600D4E7 		ldrb	r0, [r4, r6]	@ zero_extendqisi2
 858 0ac8 014084E2 		add	r4, r4, #1
 859 0acc FEFFFFEB 		bl	uart0_transmit
 860 0ad0 040055E1 		cmp	r5, r4
 861 0ad4 FAFFFF1A 		bne	.L67
 862 0ad8 54FEFFEA 		b	.L58
 863              	.L72:
 864 0adc A0399FE5 		ldr	r3, .L244+56
 865 0ae0 540293E5 		ldr	r0, [r3, #596]	@ float
 866 0ae4 FEFFFFEB 		bl	__fixunssfsi
 867 0ae8 0530DBE5 		ldrb	r3, [fp, #5]	@ zero_extendqisi2
 868 0aec FF0000E2 		and	r0, r0, #255
 869 0af0 030050E1 		cmp	r0, r3
 870 0af4 0600DBE5 		ldrb	r0, [fp, #6]	@ zero_extendqisi2
 871 0af8 51FFFF1A 		bne	.L203
 872 0afc FEFFFFEB 		bl	sys_set_mode
 873 0b00 7C599FE5 		ldr	r5, .L244+56
 874 0b04 1A3EA0E3 		mov	r3, #416
 875 0b08 023083E2 		add	r3, r3, #2
 876 0b0c 1A2EA0E3 		mov	r2, #416
 877 0b10 B34095E1 		ldrh	r4, [r5, r3]
 878 0b14 B25095E1 		ldrh	r5, [r5, r2]
 879 0b18 FEFFFFEB 		bl	communication_get_uart_drop_rate
 880 0b1c 4CC99FE5 		ldr	ip, .L244+36
 881 0b20 5C799FE5 		ldr	r7, .L244+56
 882 0b24 0E80DCE5 		ldrb	r8, [ip, #14]	@ zero_extendqisi2
 883 0b28 6421D7E5 		ldrb	r2, [r7, #356]	@ zero_extendqisi2
 884 0b2c 58A99FE5 		ldr	sl, .L244+64
 885 0b30 00818DE5 		str	r8, [sp, #256]
 886 0b34 50E99FE5 		ldr	lr, .L244+64
 887 0b38 00A0DAE5 		ldrb	sl, [sl, #0]	@ zero_extendqisi2
 888 0b3c 01E0DEE5 		ldrb	lr, [lr, #1]	@ zero_extendqisi2
 889 0b40 6CA18DE5 		str	sl, [sp, #364]
 890 0b44 0228A0E1 		mov	r2, r2, asl #16
 891 0b48 00A19DE5 		ldr	sl, [sp, #256]
 892 0b4c 221CA0E1 		mov	r1, r2, lsr #24
 893 0b50 0008A0E1 		mov	r0, r0, asl #16
 894 0b54 68E18DE5 		str	lr, [sp, #360]
 895 0b58 08118DE5 		str	r1, [sp, #264]
 896 0b5c 50E1D7E5 		ldrb	lr, [r7, #336]	@ zero_extendqisi2
 897 0b60 203CA0E1 		mov	r3, r0, lsr #24
 898 0b64 01108AE2 		add	r1, sl, #1
 899 0b68 5461D7E5 		ldrb	r6, [r7, #340]	@ zero_extendqisi2
 900 0b6c 04318DE5 		str	r3, [sp, #260]
 901 0b70 5C71D7E5 		ldrb	r7, [r7, #348]	@ zero_extendqisi2
 902 0b74 2008A0E1 		mov	r0, r0, lsr #16
 903 0b78 0E10CCE5 		strb	r1, [ip, #14]
 904 0b7c 08C19DE5 		ldr	ip, [sp, #264]
 905 0b80 68119DE5 		ldr	r1, [sp, #360]
 906 0b84 0448A0E1 		mov	r4, r4, asl #16
 907 0b88 0558A0E1 		mov	r5, r5, asl #16
 908 0b8c A9E1CDE5 		strb	lr, [sp, #425]
 909 0b90 B301CDE5 		strb	r0, [sp, #435]
 910 0b94 04E19DE5 		ldr	lr, [sp, #260]
 911 0b98 6C019DE5 		ldr	r0, [sp, #364]
 912 0b9c 248CA0E1 		mov	r8, r4, lsr #24
 913 0ba0 25BCA0E1 		mov	fp, r5, lsr #24
 914 0ba4 2448A0E1 		mov	r4, r4, lsr #16
 915 0ba8 2558A0E1 		mov	r5, r5, lsr #16
 916 0bac 2228A0E1 		mov	r2, r2, lsr #16
 917 0bb0 2230A0E3 		mov	r3, #34
 918 0bb4 B0C1CDE5 		strb	ip, [sp, #432]
 919 0bb8 A711CDE5 		strb	r1, [sp, #423]
 920 0bbc A831CDE5 		strb	r3, [sp, #424]
 921 0bc0 AA61CDE5 		strb	r6, [sp, #426]
 922 0bc4 AB71CDE5 		strb	r7, [sp, #427]
 923 0bc8 AC81CDE5 		strb	r8, [sp, #428]
 924 0bcc AD41CDE5 		strb	r4, [sp, #429]
 925 0bd0 AEB1CDE5 		strb	fp, [sp, #430]
 926 0bd4 AF51CDE5 		strb	r5, [sp, #431]
 927 0bd8 B121CDE5 		strb	r2, [sp, #433]
 928 0bdc B2E1CDE5 		strb	lr, [sp, #434]
 929 0be0 A491CDE5 		strb	r9, [sp, #420]
 930 0be4 A601CDE5 		strb	r0, [sp, #422]
 931 0be8 01C8A0E3 		mov	ip, #65536
 932 0bec A5A1CDE5 		strb	sl, [sp, #421]
 933 0bf0 01C04CE2 		sub	ip, ip, #1
 934 0bf4 0010A0E3 		mov	r1, #0
 935              	.L87:
 936 0bf8 692F81E2 		add	r2, r1, #420
 937 0bfc 0D30D2E7 		ldrb	r3, [r2, sp]	@ zero_extendqisi2
 938 0c00 0C3023E0 		eor	r3, r3, ip
 939 0c04 FF3003E2 		and	r3, r3, #255
 940 0c08 033223E0 		eor	r3, r3, r3, asl #4
 941 0c0c FF3003E2 		and	r3, r3, #255
 942 0c10 0324A0E1 		mov	r2, r3, asl #8
 943 0c14 2C2482E1 		orr	r2, r2, ip, lsr #8
 944 0c18 232222E0 		eor	r2, r2, r3, lsr #4
 945 0c1c 832122E0 		eor	r2, r2, r3, asl #3
 946 0c20 011081E2 		add	r1, r1, #1
 947 0c24 0228A0E1 		mov	r2, r2, asl #16
 948 0c28 100051E3 		cmp	r1, #16
 949 0c2c 22C8A0E1 		mov	ip, r2, lsr #16
 950 0c30 F0FFFF1A 		bne	.L87
 951 0c34 2C34A0E1 		mov	r3, ip, lsr #8
 952 0c38 691F8DE2 		add	r1, sp, #420
 953 0c3c 0000A0E3 		mov	r0, #0
 954 0c40 A8C2CDE5 		strb	ip, [sp, #680]
 955 0c44 A932CDE5 		strb	r3, [sp, #681]
 956 0c48 34589FE5 		ldr	r5, .L244+56
 957 0c4c 53FDFFEB 		bl	mavlink_send_uart
 958 0c50 1A3EA0E3 		mov	r3, #416
 959 0c54 023083E2 		add	r3, r3, #2
 960 0c58 1A2EA0E3 		mov	r2, #416
 961 0c5c B34095E1 		ldrh	r4, [r5, r3]
 962 0c60 B25095E1 		ldrh	r5, [r5, r2]
 963 0c64 FEFFFFEB 		bl	communication_get_uart_drop_rate
 964 0c68 04C89FE5 		ldr	ip, .L244+40
 965 0c6c 10789FE5 		ldr	r7, .L244+56
 966 0c70 0E80DCE5 		ldrb	r8, [ip, #14]	@ zero_extendqisi2
 967 0c74 6421D7E5 		ldrb	r2, [r7, #356]	@ zero_extendqisi2
 968 0c78 0C989FE5 		ldr	r9, .L244+64
 969 0c7c F4808DE5 		str	r8, [sp, #244]
 970 0c80 0190D9E5 		ldrb	r9, [r9, #1]	@ zero_extendqisi2
 971 0c84 00A89FE5 		ldr	sl, .L244+64
 972 0c88 70918DE5 		str	r9, [sp, #368]
 973 0c8c 0228A0E1 		mov	r2, r2, asl #16
 974 0c90 F4909DE5 		ldr	r9, [sp, #244]
 975 0c94 00A0DAE5 		ldrb	sl, [sl, #0]	@ zero_extendqisi2
 976 0c98 221CA0E1 		mov	r1, r2, lsr #24
 977 0c9c 0008A0E1 		mov	r0, r0, asl #16
 978 0ca0 50E1D7E5 		ldrb	lr, [r7, #336]	@ zero_extendqisi2
 979 0ca4 FC108DE5 		str	r1, [sp, #252]
 980 0ca8 203CA0E1 		mov	r3, r0, lsr #24
 981 0cac 011089E2 		add	r1, r9, #1
 982 0cb0 74A18DE5 		str	sl, [sp, #372]
 983 0cb4 5461D7E5 		ldrb	r6, [r7, #340]	@ zero_extendqisi2
 984 0cb8 F8308DE5 		str	r3, [sp, #248]
 985 0cbc 5C71D7E5 		ldrb	r7, [r7, #348]	@ zero_extendqisi2
 986 0cc0 2008A0E1 		mov	r0, r0, lsr #16
 987 0cc4 0E10CCE5 		strb	r1, [ip, #14]
 988 0cc8 F8C09DE5 		ldr	ip, [sp, #248]
 989 0ccc 0448A0E1 		mov	r4, r4, asl #16
 990 0cd0 0558A0E1 		mov	r5, r5, asl #16
 991 0cd4 2230A0E3 		mov	r3, #34
 992 0cd8 A9E1CDE5 		strb	lr, [sp, #425]
 993 0cdc FCA09DE5 		ldr	sl, [sp, #252]
 994 0ce0 B301CDE5 		strb	r0, [sp, #435]
 995 0ce4 170E8DE2 		add	r0, sp, #368
 996 0ce8 014090E8 		ldmia	r0, {r0, lr}	@ phole ldm
 997 0cec 248CA0E1 		mov	r8, r4, lsr #24
 998 0cf0 25BCA0E1 		mov	fp, r5, lsr #24
 999 0cf4 A831CDE5 		strb	r3, [sp, #424]
 1000 0cf8 2448A0E1 		mov	r4, r4, lsr #16
 1001 0cfc 2558A0E1 		mov	r5, r5, lsr #16
 1002 0d00 2228A0E1 		mov	r2, r2, lsr #16
 1003 0d04 173043E2 		sub	r3, r3, #23
 1004 0d08 B2C1CDE5 		strb	ip, [sp, #434]
 1005 0d0c AA61CDE5 		strb	r6, [sp, #426]
 1006 0d10 AB71CDE5 		strb	r7, [sp, #427]
 1007 0d14 AC81CDE5 		strb	r8, [sp, #428]
 1008 0d18 AD41CDE5 		strb	r4, [sp, #429]
 1009 0d1c AEB1CDE5 		strb	fp, [sp, #430]
 1010 0d20 AF51CDE5 		strb	r5, [sp, #431]
 1011 0d24 B0A1CDE5 		strb	sl, [sp, #432]
 1012 0d28 B121CDE5 		strb	r2, [sp, #433]
 1013 0d2c A431CDE5 		strb	r3, [sp, #420]
 1014 0d30 A6E1CDE5 		strb	lr, [sp, #422]
 1015 0d34 A701CDE5 		strb	r0, [sp, #423]
 1016 0d38 01C8A0E3 		mov	ip, #65536
 1017 0d3c A591CDE5 		strb	r9, [sp, #421]
 1018 0d40 01C04CE2 		sub	ip, ip, #1
 1019 0d44 0010A0E3 		mov	r1, #0
 1020              	.L89:
 1021 0d48 692F81E2 		add	r2, r1, #420
 1022 0d4c 0D30D2E7 		ldrb	r3, [r2, sp]	@ zero_extendqisi2
 1023 0d50 0C3023E0 		eor	r3, r3, ip
 1024 0d54 FF3003E2 		and	r3, r3, #255
 1025 0d58 033223E0 		eor	r3, r3, r3, asl #4
 1026 0d5c FF3003E2 		and	r3, r3, #255
 1027 0d60 0324A0E1 		mov	r2, r3, asl #8
 1028 0d64 2C2482E1 		orr	r2, r2, ip, lsr #8
 1029 0d68 232222E0 		eor	r2, r2, r3, lsr #4
 1030 0d6c 832122E0 		eor	r2, r2, r3, asl #3
 1031 0d70 011081E2 		add	r1, r1, #1
 1032 0d74 0228A0E1 		mov	r2, r2, asl #16
 1033 0d78 100051E3 		cmp	r1, #16
 1034 0d7c 22C8A0E1 		mov	ip, r2, lsr #16
 1035 0d80 F0FFFF1A 		bne	.L89
 1036              	.L226:
 1037 0d84 2C34A0E1 		mov	r3, ip, lsr #8
 1038 0d88 691F8DE2 		add	r1, sp, #420
 1039 0d8c 0100A0E3 		mov	r0, #1
 1040 0d90 A932CDE5 		strb	r3, [sp, #681]
 1041 0d94 A8C2CDE5 		strb	ip, [sp, #680]
 1042 0d98 00FDFFEB 		bl	mavlink_send_uart
 1043 0d9c A8FEFFEA 		b	.L203
 1044              	.L172:
 1045 0da0 B0069FE5 		ldr	r0, .L244+12
 1046 0da4 FEFFFFEB 		bl	debug_message_buffer
 1047 0da8 A5FEFFEA 		b	.L203
 1048              	.L84:
 1049 0dac 150059E3 		cmp	r9, #21
 1050 0db0 D0369F05 		ldreq	r3, .L244+60
 1051 0db4 0020A003 		moveq	r2, #0
 1052 0db8 00208305 		streq	r2, [r3, #0]
 1053 0dbc A0FEFF0A 		beq	.L203
 1054 0dc0 170059E3 		cmp	r9, #23
 1055 0dc4 B101000A 		beq	.L75
 1056 0dc8 140059E3 		cmp	r9, #20
 1057 0dcc 9CFEFF1A 		bne	.L203
 1058 0dd0 0530DBE5 		ldrb	r3, [fp, #5]	@ zero_extendqisi2
 1059 0dd4 06C0DBE5 		ldrb	ip, [fp, #6]	@ zero_extendqisi2
 1060 0dd8 FB0F8DE2 		add	r0, sp, #1004
 1061 0ddc 07108BE2 		add	r1, fp, #7
 1062 0de0 0F20A0E3 		mov	r2, #15
 1063 0de4 020080E2 		add	r0, r0, #2
 1064 0de8 EC33CDE5 		strb	r3, [sp, #1004]
 1065 0dec EDC3CDE5 		strb	ip, [sp, #1005]
 1066 0df0 FEFFFFEB 		bl	memcpy
 1067 0df4 05308BE2 		add	r3, fp, #5
 1068 0df8 1210D3E5 		ldrb	r1, [r3, #18]	@ zero_extendqisi2
 1069 0dfc 1120D3E5 		ldrb	r2, [r3, #17]	@ zero_extendqisi2
 1070 0e00 7C369FE5 		ldr	r3, .L244+56
 1071 0e04 024481E1 		orr	r4, r1, r2, asl #8
 1072 0e08 035C8DE2 		add	r5, sp, #768
 1073 0e0c 540293E5 		ldr	r0, [r3, #596]	@ float
 1074 0e10 BE4FC5E1 		strh	r4, [r5, #254]	@ movhi
 1075 0e14 FEFFFFEB 		bl	__fixunssfsi
 1076 0e18 EC33DDE5 		ldrb	r3, [sp, #1004]	@ zero_extendqisi2
 1077 0e1c FF0000E2 		and	r0, r0, #255
 1078 0e20 000053E1 		cmp	r3, r0
 1079 0e24 86FEFF1A 		bne	.L203
 1080 0e28 54769FE5 		ldr	r7, .L244+56
 1081 0e2c 580297E5 		ldr	r0, [r7, #600]	@ float
 1082 0e30 FEFFFFEB 		bl	__fixunssfsi
 1083 0e34 ED33DDE5 		ldrb	r3, [sp, #1005]	@ zero_extendqisi2
 1084 0e38 FF0000E2 		and	r0, r0, #255
 1085 0e3c 000053E1 		cmp	r3, r0
 1086 0e40 7FFEFF1A 		bne	.L203
 1087 0e44 FB8F8DE2 		add	r8, sp, #1004
 1088 0e48 028088E2 		add	r8, r8, #2
 1089 0e4c D0A0D8E1 		ldrsb	sl, [r8, #0]
 1090 0e50 00005AE3 		cmp	sl, #0
 1091 0e54 A204001A 		bne	.L114
 1092 0e58 0488A0E1 		mov	r8, r4, asl #16
 1093 0e5c 4828A0E1 		mov	r2, r8, asr #16
 1094 0e60 640052E3 		cmp	r2, #100
 1095 0e64 76FEFFCA 		bgt	.L203
 1096 0e68 023262E0 		rsb	r3, r2, r2, asl #4
 1097 0e6c 18469FE5 		ldr	r4, .L244+64
 1098 0e70 FA1F87E2 		add	r1, r7, #1000
 1099 0e74 699F8DE2 		add	r9, sp, #420
 1100 0e78 02C187E0 		add	ip, r7, r2, asl #2
 1101 0e7c 011083E0 		add	r1, r3, r1
 1102 0e80 0F20A0E3 		mov	r2, #15
 1103 0e84 1630A0E3 		mov	r3, #22
 1104 0e88 050089E2 		add	r0, r9, #5
 1105 0e8c 54529CE5 		ldr	r5, [ip, #596]	@ float
 1106 0e90 0160D4E5 		ldrb	r6, [r4, #1]	@ zero_extendqisi2
 1107 0e94 0070D4E5 		ldrb	r7, [r4, #0]	@ zero_extendqisi2
 1108 0e98 A831CDE5 		strb	r3, [sp, #424]
 1109 0e9c FEFFFFEB 		bl	memcpy
 1110 0ea0 0CC19DE5 		ldr	ip, [sp, #268]
 1111 0ea4 C4259FE5 		ldr	r2, .L244+36
 1112 0ea8 FF300CE2 		and	r3, ip, #255
 1113 0eac 033183E0 		add	r3, r3, r3, asl #2
 1114 0eb0 032182E0 		add	r2, r2, r3, asl #2
 1115 0eb4 2808A0E1 		mov	r0, r8, lsr #16
 1116 0eb8 0E80D2E5 		ldrb	r8, [r2, #14]	@ zero_extendqisi2
 1117 0ebc 013088E2 		add	r3, r8, #1
 1118 0ec0 0E30C2E5 		strb	r3, [r2, #14]
 1119 0ec4 0510A0E1 		mov	r1, r5
 1120 0ec8 0008A0E1 		mov	r0, r0, asl #16
 1121 0ecc 6530A0E3 		mov	r3, #101
 1122 0ed0 41CCA0E1 		mov	ip, r1, asr #24
 1123 0ed4 205CA0E1 		mov	r5, r0, lsr #24
 1124 0ed8 41E8A0E1 		mov	lr, r1, asr #16
 1125 0edc 4144A0E1 		mov	r4, r1, asr #8
 1126 0ee0 2008A0E1 		mov	r0, r0, lsr #16
 1127 0ee4 BD31CDE5 		strb	r3, [sp, #445]
 1128 0ee8 4E3043E2 		sub	r3, r3, #78
 1129 0eec B8C1CDE5 		strb	ip, [sp, #440]
 1130 0ef0 B9E1CDE5 		strb	lr, [sp, #441]
 1131 0ef4 01C8A0E3 		mov	ip, #65536
 1132 0ef8 BA41CDE5 		strb	r4, [sp, #442]
 1133 0efc BE51CDE5 		strb	r5, [sp, #446]
 1134 0f00 BF01CDE5 		strb	r0, [sp, #447]
 1135 0f04 A431CDE5 		strb	r3, [sp, #420]
 1136 0f08 A671CDE5 		strb	r7, [sp, #422]
 1137 0f0c A761CDE5 		strb	r6, [sp, #423]
 1138 0f10 BCA1CDE5 		strb	sl, [sp, #444]
 1139 0f14 A581CDE5 		strb	r8, [sp, #421]
 1140 0f18 BB11CDE5 		strb	r1, [sp, #443]
 1141 0f1c 01C04CE2 		sub	ip, ip, #1
 1142 0f20 0A10A0E1 		mov	r1, sl
 1143              	.L117:
 1144 0f24 69EF81E2 		add	lr, r1, #420
 1145 0f28 0D30DEE7 		ldrb	r3, [lr, sp]	@ zero_extendqisi2
 1146 0f2c 0C3023E0 		eor	r3, r3, ip
 1147 0f30 FF3003E2 		and	r3, r3, #255
 1148 0f34 033223E0 		eor	r3, r3, r3, asl #4
 1149 0f38 FF3003E2 		and	r3, r3, #255
 1150 0f3c 0324A0E1 		mov	r2, r3, asl #8
 1151 0f40 2C2482E1 		orr	r2, r2, ip, lsr #8
 1152 0f44 232222E0 		eor	r2, r2, r3, lsr #4
 1153 0f48 832122E0 		eor	r2, r2, r3, asl #3
 1154 0f4c 011081E2 		add	r1, r1, #1
 1155 0f50 0228A0E1 		mov	r2, r2, asl #16
 1156 0f54 1C0051E3 		cmp	r1, #28
 1157 0f58 22C8A0E1 		mov	ip, r2, lsr #16
 1158 0f5c F0FFFF1A 		bne	.L117
 1159              	.L227:
 1160 0f60 2C34A0E1 		mov	r3, ip, lsr #8
 1161 0f64 0C019DE5 		ldr	r0, [sp, #268]
 1162 0f68 691F8DE2 		add	r1, sp, #420
 1163 0f6c A932CDE5 		strb	r3, [sp, #681]
 1164 0f70 A8C2CDE5 		strb	ip, [sp, #680]
 1165 0f74 89FCFFEB 		bl	mavlink_send_uart
 1166 0f78 31FEFFEA 		b	.L203
 1167              	.L85:
 1168 0f7c 780059E3 		cmp	r9, #120
 1169 0f80 6202000A 		beq	.L81
 1170 0f84 9A0059E3 		cmp	r9, #154
 1171 0f88 AD01000A 		beq	.L82
 1172 0f8c 700059E3 		cmp	r9, #112
 1173 0f90 2BFEFF1A 		bne	.L203
 1174 0f94 05308BE2 		add	r3, fp, #5
 1175 0f98 20519DE5 		ldr	r5, [sp, #288]
 1176 0f9c 1C00D3E5 		ldrb	r0, [r3, #28]	@ zero_extendqisi2
 1177 0fa0 30919DE5 		ldr	r9, [sp, #304]
 1178 0fa4 FF24C5E3 		bic	r2, r5, #-16777216
 1179 0fa8 2CA19DE5 		ldr	sl, [sp, #300]
 1180 0fac 28E19DE5 		ldr	lr, [sp, #296]
 1181 0fb0 000C82E1 		orr	r0, r2, r0, asl #24
 1182 0fb4 FF24C9E3 		bic	r2, r9, #-16777216
 1183 0fb8 24919DE5 		ldr	r9, [sp, #292]
 1184 0fbc 0840D3E5 		ldrb	r4, [r3, #8]	@ zero_extendqisi2
 1185 0fc0 0C50D3E5 		ldrb	r5, [r3, #12]	@ zero_extendqisi2
 1186 0fc4 1060D3E5 		ldrb	r6, [r3, #16]	@ zero_extendqisi2
 1187 0fc8 1470D3E5 		ldrb	r7, [r3, #20]	@ zero_extendqisi2
 1188 0fcc 1880D3E5 		ldrb	r8, [r3, #24]	@ zero_extendqisi2
 1189 0fd0 20018DE5 		str	r0, [sp, #288]
 1190 0fd4 FFC4CEE3 		bic	ip, lr, #-16777216
 1191 0fd8 FF04CAE3 		bic	r0, sl, #-16777216
 1192 0fdc FFE4C9E3 		bic	lr, r9, #-16777216
 1193 0fe0 20A19DE5 		ldr	sl, [sp, #288]
 1194 0fe4 1D90D3E5 		ldrb	r9, [r3, #29]	@ zero_extendqisi2
 1195 0fe8 055C82E1 		orr	r5, r2, r5, asl #24
 1196 0fec 066C80E1 		orr	r6, r0, r6, asl #24
 1197 0ff0 077C8CE1 		orr	r7, ip, r7, asl #24
 1198 0ff4 088C8EE1 		orr	r8, lr, r8, asl #24
 1199 0ff8 30518DE5 		str	r5, [sp, #304]
 1200 0ffc 2C618DE5 		str	r6, [sp, #300]
 1201 1000 28718DE5 		str	r7, [sp, #296]
 1202 1004 24818DE5 		str	r8, [sp, #292]
 1203 1008 FF28CAE3 		bic	r2, sl, #16711680
 1204 100c 099882E1 		orr	r9, r2, r9, asl #16
 1205 1010 FF14CBE3 		bic	r1, fp, #-16777216
 1206 1014 0D50D3E5 		ldrb	r5, [r3, #13]	@ zero_extendqisi2
 1207 1018 1160D3E5 		ldrb	r6, [r3, #17]	@ zero_extendqisi2
 1208 101c 1570D3E5 		ldrb	r7, [r3, #21]	@ zero_extendqisi2
 1209 1020 1980D3E5 		ldrb	r8, [r3, #25]	@ zero_extendqisi2
 1210 1024 30C19DE5 		ldr	ip, [sp, #304]
 1211 1028 04BC81E1 		orr	fp, r1, r4, asl #24
 1212 102c 0940D3E5 		ldrb	r4, [r3, #9]	@ zero_extendqisi2
 1213 1030 20918DE5 		str	r9, [sp, #288]
 1214 1034 4A9F8DE2 		add	r9, sp, #296
 1215 1038 004299E8 		ldmia	r9, {r9, lr}	@ phole ldm
 1216 103c 24A19DE5 		ldr	sl, [sp, #292]
 1217 1040 FF28CCE3 		bic	r2, ip, #16711680
 1218 1044 FFC8C9E3 		bic	ip, r9, #16711680
 1219 1048 FF08CEE3 		bic	r0, lr, #16711680
 1220 104c 07788CE1 		orr	r7, ip, r7, asl #16
 1221 1050 FFE8CAE3 		bic	lr, sl, #16711680
 1222 1054 20C19DE5 		ldr	ip, [sp, #288]
 1223 1058 1E90D3E5 		ldrb	r9, [r3, #30]	@ zero_extendqisi2
 1224 105c 055882E1 		orr	r5, r2, r5, asl #16
 1225 1060 066880E1 		orr	r6, r0, r6, asl #16
 1226 1064 08888EE1 		orr	r8, lr, r8, asl #16
 1227 1068 30518DE5 		str	r5, [sp, #304]
 1228 106c 2C618DE5 		str	r6, [sp, #300]
 1229 1070 28718DE5 		str	r7, [sp, #296]
 1230 1074 24818DE5 		str	r8, [sp, #292]
 1231 1078 FF2CCCE3 		bic	r2, ip, #65280
 1232 107c 099482E1 		orr	r9, r2, r9, asl #8
 1233 1080 FF18CBE3 		bic	r1, fp, #16711680
 1234 1084 04B881E1 		orr	fp, r1, r4, asl #16
 1235 1088 0E50D3E5 		ldrb	r5, [r3, #14]	@ zero_extendqisi2
 1236 108c 0A40D3E5 		ldrb	r4, [r3, #10]	@ zero_extendqisi2
 1237 1090 1260D3E5 		ldrb	r6, [r3, #18]	@ zero_extendqisi2
 1238 1094 1670D3E5 		ldrb	r7, [r3, #22]	@ zero_extendqisi2
 1239 1098 1A80D3E5 		ldrb	r8, [r3, #26]	@ zero_extendqisi2
 1240 109c 20918DE5 		str	r9, [sp, #288]
 1241 10a0 4B9F8DE2 		add	r9, sp, #300
 1242 10a4 004299E8 		ldmia	r9, {r9, lr}	@ phole ldm
 1243 10a8 FF1CCEE3 		bic	r1, lr, #65280
 1244 10ac FF0CC9E3 		bic	r0, r9, #65280
 1245 10b0 499F8DE2 		add	r9, sp, #292
 1246 10b4 004299E8 		ldmia	r9, {r9, lr}	@ phole ldm
 1247 10b8 FFCCCEE3 		bic	ip, lr, #65280
 1248 10bc 066480E1 		orr	r6, r0, r6, asl #8
 1249 10c0 FFECC9E3 		bic	lr, r9, #65280
 1250 10c4 1FA0D3E5 		ldrb	sl, [r3, #31]	@ zero_extendqisi2
 1251 10c8 07748CE1 		orr	r7, ip, r7, asl #8
 1252 10cc 2C618DE5 		str	r6, [sp, #300]
 1253 10d0 08848EE1 		orr	r8, lr, r8, asl #8
 1254 10d4 20C19DE5 		ldr	ip, [sp, #288]
 1255 10d8 24818DE5 		str	r8, [sp, #292]
 1256 10dc 055481E1 		orr	r5, r1, r5, asl #8
 1257 10e0 FF2CCBE3 		bic	r2, fp, #65280
 1258 10e4 2C819DE5 		ldr	r8, [sp, #300]
 1259 10e8 30518DE5 		str	r5, [sp, #304]
 1260 10ec 28718DE5 		str	r7, [sp, #296]
 1261 10f0 04B482E1 		orr	fp, r2, r4, asl #8
 1262 10f4 FF20CCE3 		bic	r2, ip, #255
 1263 10f8 02908AE1 		orr	r9, sl, r2
 1264 10fc FF10C8E3 		bic	r1, r8, #255
 1265 1100 30019DE5 		ldr	r0, [sp, #304]
 1266 1104 498F8DE2 		add	r8, sp, #292
 1267 1108 000598E8 		ldmia	r8, {r8, sl}	@ phole ldm
 1268 110c 0BE0D3E5 		ldrb	lr, [r3, #11]	@ zero_extendqisi2
 1269 1110 0F40D3E5 		ldrb	r4, [r3, #15]	@ zero_extendqisi2
 1270 1114 1350D3E5 		ldrb	r5, [r3, #19]	@ zero_extendqisi2
 1271 1118 1760D3E5 		ldrb	r6, [r3, #23]	@ zero_extendqisi2
 1272 111c 1B70D3E5 		ldrb	r7, [r3, #27]	@ zero_extendqisi2
 1273 1120 FF20C0E3 		bic	r2, r0, #255
 1274 1124 FFC0C8E3 		bic	ip, r8, #255
 1275 1128 FF00CAE3 		bic	r0, sl, #255
 1276 112c FF30CBE3 		bic	r3, fp, #255
 1277 1130 4CA39FE5 		ldr	sl, .L244+56
 1278 1134 03808EE1 		orr	r8, lr, r3
 1279 1138 024084E1 		orr	r4, r4, r2
 1280 113c 015085E1 		orr	r5, r5, r1
 1281 1140 006086E1 		orr	r6, r6, r0
 1282 1144 0C7087E1 		orr	r7, r7, ip
 1283 1148 4114A0E3 		mov	r1, #1090519040
 1284 114c 0900A0E1 		mov	r0, r9
 1285 1150 0A1681E2 		add	r1, r1, #10485760
 1286 1154 F4698AE5 		str	r6, [sl, #2548]	@ float
 1287 1158 F8798AE5 		str	r7, [sl, #2552]	@ float
 1288 115c FC998AE5 		str	r9, [sl, #2556]	@ float
 1289 1160 DC898AE5 		str	r8, [sl, #2524]	@ float
 1290 1164 E0498AE5 		str	r4, [sl, #2528]	@ float
 1291 1168 E4598AE5 		str	r5, [sl, #2532]	@ float
 1292 116c 64908AE5 		str	r9, [sl, #100]	@ float
 1293 1170 FEFFFFEB 		bl	__gtsf2
 1294 1174 000050E3 		cmp	r0, #0
 1295 1178 050000CA 		bgt	.L158
 1296 117c C114A0E3 		mov	r1, #-1056964608
 1297 1180 0900A0E1 		mov	r0, r9
 1298 1184 0A1681E2 		add	r1, r1, #10485760
 1299 1188 FEFFFFEB 		bl	__ltsf2
 1300 118c 000050E3 		cmp	r0, #0
 1301 1190 040000AA 		bge	.L160
 1302              	.L158:
 1303 1194 E8C29FE5 		ldr	ip, .L244+56
 1304 1198 8C309CE5 		ldr	r3, [ip, #140]	@ float
 1305 119c B8029FE5 		ldr	r0, .L244+16
 1306 11a0 64308CE5 		str	r3, [ip, #100]	@ float
 1307 11a4 FEFFFFEB 		bl	debug_message_buffer
 1308              	.L160:
 1309 11a8 D4E29FE5 		ldr	lr, .L244+56
 1310 11ac 0130A0E3 		mov	r3, #1
 1311 11b0 143A8EE5 		str	r3, [lr, #2580]
 1312 11b4 FEFFFFEB 		bl	sys_time_clock_get_time_usec
 1313 11b8 04E0A0E1 		mov	lr, r4
 1314 11bc 14918DE5 		str	r9, [sp, #276]	@ float
 1315 11c0 489CA0E1 		mov	r9, r8, asr #24
 1316 11c4 05B0A0E1 		mov	fp, r5
 1317 11c8 78908DE5 		str	r9, [sp, #120]
 1318 11cc 4E9CA0E1 		mov	r9, lr, asr #24
 1319 11d0 1C618DE5 		str	r6, [sp, #284]	@ float
 1320 11d4 212CA0E1 		mov	r2, r1, lsr #24
 1321 11d8 6C908DE5 		str	r9, [sp, #108]
 1322 11dc 4B9CA0E1 		mov	r9, fp, asr #24
 1323 11e0 48A8A0E1 		mov	sl, r8, asr #16
 1324 11e4 94208DE5 		str	r2, [sp, #148]
 1325 11e8 60908DE5 		str	r9, [sp, #96]
 1326 11ec 4824A0E1 		mov	r2, r8, asr #8
 1327 11f0 1C919DE5 		ldr	r9, [sp, #284]
 1328 11f4 74A08DE5 		str	sl, [sp, #116]
 1329 11f8 70208DE5 		str	r2, [sp, #112]
 1330 11fc 4EA8A0E1 		mov	sl, lr, asr #16
 1331 1200 4E24A0E1 		mov	r2, lr, asr #8
 1332 1204 18718DE5 		str	r7, [sp, #280]	@ float
 1333 1208 68A08DE5 		str	sl, [sp, #104]
 1334 120c 64208DE5 		str	r2, [sp, #100]
 1335 1210 4BA8A0E1 		mov	sl, fp, asr #16
 1336 1214 4B24A0E1 		mov	r2, fp, asr #8
 1337 1218 499CA0E1 		mov	r9, r9, asr #24
 1338 121c 5CA08DE5 		str	sl, [sp, #92]
 1339 1220 58208DE5 		str	r2, [sp, #88]
 1340 1224 54908DE5 		str	r9, [sp, #84]
 1341 1228 1CA19DE5 		ldr	sl, [sp, #284]
 1342 122c 1C219DE5 		ldr	r2, [sp, #284]
 1343 1230 18919DE5 		ldr	r9, [sp, #280]
 1344 1234 4AA8A0E1 		mov	sl, sl, asr #16
 1345 1238 4224A0E1 		mov	r2, r2, asr #8
 1346 123c 499CA0E1 		mov	r9, r9, asr #24
 1347 1240 50A08DE5 		str	sl, [sp, #80]
 1348 1244 4C208DE5 		str	r2, [sp, #76]
 1349 1248 48908DE5 		str	r9, [sp, #72]
 1350 124c 18A19DE5 		ldr	sl, [sp, #280]
 1351 1250 18219DE5 		ldr	r2, [sp, #280]
 1352 1254 14919DE5 		ldr	r9, [sp, #276]
 1353 1258 0030A0E3 		mov	r3, #0
 1354 125c 2148A0E1 		mov	r4, r1, lsr #16
 1355 1260 2154A0E1 		mov	r5, r1, lsr #8
 1356 1264 4AA8A0E1 		mov	sl, sl, asr #16
 1357 1268 4224A0E1 		mov	r2, r2, asr #8
 1358 126c 499CA0E1 		mov	r9, r9, asr #24
 1359 1270 98308DE5 		str	r3, [sp, #152]
 1360 1274 8C408DE5 		str	r4, [sp, #140]
 1361 1278 90308DE5 		str	r3, [sp, #144]
 1362 127c 84508DE5 		str	r5, [sp, #132]
 1363 1280 88308DE5 		str	r3, [sp, #136]
 1364 1284 7C108DE5 		str	r1, [sp, #124]
 1365 1288 80308DE5 		str	r3, [sp, #128]
 1366 128c 44A08DE5 		str	sl, [sp, #68]
 1367 1290 40208DE5 		str	r2, [sp, #64]
 1368 1294 3C908DE5 		str	r9, [sp, #60]
 1369 1298 E4219FE5 		ldr	r2, .L244+56
 1370 129c 14A19DE5 		ldr	sl, [sp, #276]
 1371 12a0 180A82E5 		str	r0, [r2, #2584]
 1372 12a4 1C1A82E5 		str	r1, [r2, #2588]
 1373 12a8 4AA8A0E1 		mov	sl, sl, asr #16
 1374 12ac 7020A0E3 		mov	r2, #112
 1375 12b0 9490DDE5 		ldrb	r9, [sp, #148]	@ zero_extendqisi2
 1376 12b4 207CA0E1 		mov	r7, r0, lsr #24
 1377 12b8 2058A0E1 		mov	r5, r0, lsr #16
 1378 12bc 2034A0E1 		mov	r3, r0, lsr #8
 1379 12c0 38A08DE5 		str	sl, [sp, #56]
 1380 12c4 A821CDE5 		strb	r2, [sp, #424]
 1381 12c8 8CA0DDE5 		ldrb	sl, [sp, #140]	@ zero_extendqisi2
 1382 12cc 8420DDE5 		ldrb	r2, [sp, #132]	@ zero_extendqisi2
 1383 12d0 017487E1 		orr	r7, r7, r1, asl #8
 1384 12d4 015885E1 		orr	r5, r5, r1, asl #16
 1385 12d8 013C83E1 		orr	r3, r3, r1, asl #24
 1386 12dc 64409DE5 		ldr	r4, [sp, #100]
 1387 12e0 A991CDE5 		strb	r9, [sp, #425]
 1388 12e4 AAA1CDE5 		strb	sl, [sp, #426]
 1389 12e8 7C90DDE5 		ldrb	r9, [sp, #124]	@ zero_extendqisi2
 1390 12ec 78A09DE5 		ldr	sl, [sp, #120]
 1391 12f0 AB21CDE5 		strb	r2, [sp, #427]
 1392 12f4 AD71CDE5 		strb	r7, [sp, #429]
 1393 12f8 6C209DE5 		ldr	r2, [sp, #108]
 1394 12fc AE51CDE5 		strb	r5, [sp, #430]
 1395 1300 AF31CDE5 		strb	r3, [sp, #431]
 1396 1304 60509DE5 		ldr	r5, [sp, #96]
 1397 1308 68309DE5 		ldr	r3, [sp, #104]
 1398 130c B001CDE5 		strb	r0, [sp, #432]
 1399 1310 5C709DE5 		ldr	r7, [sp, #92]
 1400 1314 74009DE5 		ldr	r0, [sp, #116]
 1401 1318 2168A0E1 		mov	r6, r1, lsr #16
 1402 131c 70109DE5 		ldr	r1, [sp, #112]
 1403 1320 AC91CDE5 		strb	r9, [sp, #428]
 1404 1324 B1A1CDE5 		strb	sl, [sp, #433]
 1405 1328 B201CDE5 		strb	r0, [sp, #434]
 1406 132c B311CDE5 		strb	r1, [sp, #435]
 1407 1330 B481CDE5 		strb	r8, [sp, #436]
 1408 1334 B521CDE5 		strb	r2, [sp, #437]
 1409 1338 B631CDE5 		strb	r3, [sp, #438]
 1410 133c B741CDE5 		strb	r4, [sp, #439]
 1411 1340 B8E1CDE5 		strb	lr, [sp, #440]
 1412 1344 B951CDE5 		strb	r5, [sp, #441]
 1413 1348 BA71CDE5 		strb	r7, [sp, #442]
 1414 134c 58809DE5 		ldr	r8, [sp, #88]
 1415 1350 54909DE5 		ldr	r9, [sp, #84]
 1416 1354 48008DE2 		add	r0, sp, #72
 1417 1358 011090E8 		ldmia	r0, {r0, ip}	@ phole ldm
 1418 135c 44109DE5 		ldr	r1, [sp, #68]
 1419 1360 40209DE5 		ldr	r2, [sp, #64]
 1420 1364 18319DE5 		ldr	r3, [sp, #280]
 1421 1368 50A09DE5 		ldr	sl, [sp, #80]
 1422 136c 1CE19DE5 		ldr	lr, [sp, #284]
 1423 1370 3C409DE5 		ldr	r4, [sp, #60]
 1424 1374 38709DE5 		ldr	r7, [sp, #56]
 1425 1378 BB81CDE5 		strb	r8, [sp, #443]
 1426 137c BD91CDE5 		strb	r9, [sp, #445]
 1427 1380 BFC1CDE5 		strb	ip, [sp, #447]
 1428 1384 C101CDE5 		strb	r0, [sp, #449]
 1429 1388 C321CDE5 		strb	r2, [sp, #451]
 1430 138c C431CDE5 		strb	r3, [sp, #452]
 1431 1390 BCB1CDE5 		strb	fp, [sp, #444]
 1432 1394 BEA1CDE5 		strb	sl, [sp, #446]
 1433 1398 C0E1CDE5 		strb	lr, [sp, #448]
 1434 139c C211CDE5 		strb	r1, [sp, #450]
 1435 13a0 C541CDE5 		strb	r4, [sp, #453]
 1436 13a4 C671CDE5 		strb	r7, [sp, #454]
 1437 13a8 C0809FE5 		ldr	r8, .L244+36
 1438 13ac D8509FE5 		ldr	r5, .L244+64
 1439 13b0 0E10D8E5 		ldrb	r1, [r8, #14]	@ zero_extendqisi2
 1440 13b4 01C0D5E5 		ldrb	ip, [r5, #1]	@ zero_extendqisi2
 1441 13b8 14919DE5 		ldr	r9, [sp, #276]
 1442 13bc 0000D5E5 		ldrb	r0, [r5, #0]	@ zero_extendqisi2
 1443 13c0 013081E2 		add	r3, r1, #1
 1444 13c4 0E30C8E5 		strb	r3, [r8, #14]
 1445 13c8 4924A0E1 		mov	r2, r9, asr #8
 1446 13cc A7C1CDE5 		strb	ip, [sp, #423]
 1447 13d0 2030A0E3 		mov	r3, #32
 1448 13d4 01C8A0E3 		mov	ip, #65536
 1449 13d8 C721CDE5 		strb	r2, [sp, #455]
 1450 13dc C891CDE5 		strb	r9, [sp, #456]
 1451 13e0 A431CDE5 		strb	r3, [sp, #420]
 1452 13e4 A601CDE5 		strb	r0, [sp, #422]
 1453 13e8 01C04CE2 		sub	ip, ip, #1
 1454 13ec A511CDE5 		strb	r1, [sp, #421]
 1455 13f0 0010A0E3 		mov	r1, #0
 1456              	.L162:
 1457 13f4 69AF81E2 		add	sl, r1, #420
 1458 13f8 0D30DAE7 		ldrb	r3, [sl, sp]	@ zero_extendqisi2
 1459 13fc 0C3023E0 		eor	r3, r3, ip
 1460 1400 FF3003E2 		and	r3, r3, #255
 1461 1404 033223E0 		eor	r3, r3, r3, asl #4
 1462 1408 FF3003E2 		and	r3, r3, #255
 1463 140c 0324A0E1 		mov	r2, r3, asl #8
 1464 1410 2C2482E1 		orr	r2, r2, ip, lsr #8
 1465 1414 232222E0 		eor	r2, r2, r3, lsr #4
 1466 1418 832122E0 		eor	r2, r2, r3, asl #3
 1467 141c 011081E2 		add	r1, r1, #1
 1468 1420 0228A0E1 		mov	r2, r2, asl #16
 1469 1424 250051E3 		cmp	r1, #37
 1470 1428 22C8A0E1 		mov	ip, r2, lsr #16
 1471 142c F0FFFF1A 		bne	.L162
 1472 1430 2C34A0E1 		mov	r3, ip, lsr #8
 1473 1434 691F8DE2 		add	r1, sp, #420
 1474 1438 0000A0E3 		mov	r0, #0
 1475 143c A932CDE5 		strb	r3, [sp, #681]
 1476 1440 A8C2CDE5 		strb	ip, [sp, #680]
 1477 1444 55FBFFEB 		bl	mavlink_send_uart
 1478 1448 FDFCFFEA 		b	.L203
 1479              	.L245:
 1480              		.align	2
 1481              	.L244:
 1482 144c 6C000000 		.word	.LC3
 1483 1450 98010000 		.word	.LC11
 1484 1454 333333BF 		.word	-1087163597
 1485 1458 10020000 		.word	.LC14
 1486 145c 58010000 		.word	.LC10
 1487 1460 18010000 		.word	.LC8
 1488 1464 30020000 		.word	.LC15
 1489 1468 F8000000 		.word	.LC7
 1490 146c A0000000 		.word	.LC5
 1491 1470 54040000 		.word	m_mavlink_status.2036
 1492 1474 68040000 		.word	m_mavlink_status.2036+20
 1493 1478 80000000 		.word	.LC4
 1494 147c C4000000 		.word	.LC6
 1495 1480 38010000 		.word	.LC9
 1496 1484 00000000 		.word	global_data
 1497 1488 A4040000 		.word	m_parameter_i
 1498 148c 00000000 		.word	mavlink_system
 1499              	.L75:
 1500 1490 0530DBE5 		ldrb	r3, [fp, #5]	@ zero_extendqisi2
 1501 1494 06C0DBE5 		ldrb	ip, [fp, #6]	@ zero_extendqisi2
 1502 1498 F50F8DE2 		add	r0, sp, #980
 1503 149c 07108BE2 		add	r1, fp, #7
 1504 14a0 0F20A0E3 		mov	r2, #15
 1505 14a4 020080E2 		add	r0, r0, #2
 1506 14a8 D433CDE5 		strb	r3, [sp, #980]
 1507 14ac D5C3CDE5 		strb	ip, [sp, #981]
 1508 14b0 FEFFFFEB 		bl	memcpy
 1509 14b4 05208BE2 		add	r2, fp, #5
 1510 14b8 1110D2E5 		ldrb	r1, [r2, #17]	@ zero_extendqisi2
 1511 14bc FF34C4E3 		bic	r3, r4, #-16777216
 1512 14c0 1200D2E5 		ldrb	r0, [r2, #18]	@ zero_extendqisi2
 1513 14c4 014C83E1 		orr	r4, r3, r1, asl #24
 1514 14c8 FF38C4E3 		bic	r3, r4, #16711680
 1515 14cc 1310D2E5 		ldrb	r1, [r2, #19]	@ zero_extendqisi2
 1516 14d0 004883E1 		orr	r4, r3, r0, asl #16
 1517 14d4 FF3CC4E3 		bic	r3, r4, #65280
 1518 14d8 1400D2E5 		ldrb	r0, [r2, #20]	@ zero_extendqisi2
 1519 14dc 014483E1 		orr	r4, r3, r1, asl #8
 1520 14e0 64101FE5 		ldr	r1, .L244+56
 1521 14e4 FF30C4E3 		bic	r3, r4, #255
 1522 14e8 032080E1 		orr	r2, r0, r3
 1523 14ec 540291E5 		ldr	r0, [r1, #596]	@ float
 1524 14f0 E8238DE5 		str	r2, [sp, #1000]	@ float
 1525 14f4 FEFFFFEB 		bl	__fixunssfsi
 1526 14f8 D433DDE5 		ldrb	r3, [sp, #980]	@ zero_extendqisi2
 1527 14fc FF0000E2 		and	r0, r0, #255
 1528 1500 000053E1 		cmp	r3, r0
 1529 1504 CEFCFF1A 		bne	.L203
 1530 1508 8C201FE5 		ldr	r2, .L244+56
 1531 150c 580292E5 		ldr	r0, [r2, #600]	@ float
 1532 1510 FEFFFFEB 		bl	__fixunssfsi
 1533 1514 D533DDE5 		ldrb	r3, [sp, #981]	@ zero_extendqisi2
 1534 1518 FF0000E2 		and	r0, r0, #255
 1535 151c 000053E1 		cmp	r3, r0
 1536 1520 C7FCFF1A 		bne	.L203
 1537 1524 A8301FE5 		ldr	r3, .L244+56
 1538 1528 0040A0E3 		mov	r4, #0
 1539 152c FA5F83E2 		add	r5, r3, #1000
 1540 1530 9C318DE5 		str	r3, [sp, #412]
 1541 1534 64418DE5 		str	r4, [sp, #356]
 1542 1538 A0518DE5 		str	r5, [sp, #416]
 1543              	.L129:
 1544 153c 64519DE5 		ldr	r5, [sp, #356]
 1545 1540 C4701FE5 		ldr	r7, .L244+56
 1546 1544 053265E0 		rsb	r3, r5, r5, asl #4
 1547 1548 FA3F83E2 		add	r3, r3, #1000
 1548 154c F51F8DE2 		add	r1, sp, #980
 1549 1550 070083E0 		add	r0, r3, r7
 1550 1554 021081E2 		add	r1, r1, #2
 1551 1558 01C0A0E3 		mov	ip, #1
 1552              	.L130:
 1553 155c 0020D0E5 		ldrb	r2, [r0, #0]	@ zero_extendqisi2
 1554 1560 0030D1E5 		ldrb	r3, [r1, #0]	@ zero_extendqisi2
 1555 1564 F57F8DE2 		add	r7, sp, #980
 1556 1568 020053E1 		cmp	r3, r2
 1557 156c 027087E2 		add	r7, r7, #2
 1558 1570 00C0A013 		movne	ip, #0
 1559 1574 000052E3 		cmp	r2, #0
 1560 1578 0FE087E2 		add	lr, r7, #15
 1561 157c 010080E2 		add	r0, r0, #1
 1562 1580 011081E2 		add	r1, r1, #1
 1563 1584 0100000A 		beq	.L133
 1564 1588 01005EE1 		cmp	lr, r1
 1565 158c F2FFFF1A 		bne	.L130
 1566              	.L133:
 1567 1590 00005CE3 		cmp	ip, #0
 1568 1594 1200000A 		beq	.L135
 1569 1598 E8839DE5 		ldr	r8, [sp, #1000]	@ float
 1570 159c 9C919DE5 		ldr	r9, [sp, #412]
 1571 15a0 0810A0E1 		mov	r1, r8
 1572 15a4 540299E5 		ldr	r0, [r9, #596]	@ float
 1573 15a8 FEFFFFEB 		bl	__nesf2
 1574 15ac 000050E3 		cmp	r0, #0
 1575 15b0 0B00000A 		beq	.L135
 1576 15b4 0800A0E1 		mov	r0, r8
 1577 15b8 0810A0E1 		mov	r1, r8
 1578 15bc FEFFFFEB 		bl	__nesf2
 1579 15c0 000050E3 		cmp	r0, #0
 1580 15c4 0600001A 		bne	.L135
 1581 15c8 0810A0E1 		mov	r1, r8
 1582 15cc 0800A0E1 		mov	r0, r8
 1583 15d0 FEFFFFEB 		bl	__subsf3
 1584 15d4 0010A0E1 		mov	r1, r0
 1585 15d8 FEFFFFEB 		bl	__nesf2
 1586 15dc 000050E3 		cmp	r0, #0
 1587 15e0 4402000A 		beq	.L233
 1588              	.L135:
 1589 15e4 64C19DE5 		ldr	ip, [sp, #356]
 1590 15e8 9CE19DE5 		ldr	lr, [sp, #412]
 1591 15ec A0019DE5 		ldr	r0, [sp, #416]
 1592 15f0 01C08CE2 		add	ip, ip, #1
 1593 15f4 04E08EE2 		add	lr, lr, #4
 1594 15f8 0F0080E2 		add	r0, r0, #15
 1595 15fc 65005CE3 		cmp	ip, #101
 1596 1600 64C18DE5 		str	ip, [sp, #356]
 1597 1604 9CE18DE5 		str	lr, [sp, #412]
 1598 1608 A0018DE5 		str	r0, [sp, #416]
 1599 160c CAFFFF1A 		bne	.L129
 1600 1610 8BFCFFEA 		b	.L203
 1601              	.L71:
 1602 1614 0700DBE5 		ldrb	r0, [fp, #7]	@ zero_extendqisi2
 1603 1618 FEFFFFEB 		bl	execute_action
 1604 161c 0C319DE5 		ldr	r3, [sp, #268]
 1605 1620 010053E3 		cmp	r3, #1
 1606 1624 AA02000A 		beq	.L234
 1607 1628 0C419DE5 		ldr	r4, [sp, #268]
 1608 162c 000054E3 		cmp	r4, #0
 1609 1630 83FCFF1A 		bne	.L203
 1610 1634 0B10A0E1 		mov	r1, fp
 1611 1638 0100A0E3 		mov	r0, #1
 1612 163c D7FAFFEB 		bl	mavlink_send_uart
 1613 1640 7FFCFFEA 		b	.L203
 1614              	.L82:
 1615 1644 05008BE2 		add	r0, fp, #5
 1616 1648 0E20D0E5 		ldrb	r2, [r0, #14]	@ zero_extendqisi2
 1617 164c FF34C7E3 		bic	r3, r7, #-16777216
 1618 1650 027C83E1 		orr	r7, r3, r2, asl #24
 1619 1654 0F10D0E5 		ldrb	r1, [r0, #15]	@ zero_extendqisi2
 1620 1658 FF38C7E3 		bic	r3, r7, #16711680
 1621 165c 017883E1 		orr	r7, r3, r1, asl #16
 1622 1660 1020D0E5 		ldrb	r2, [r0, #16]	@ zero_extendqisi2
 1623 1664 FF3CC7E3 		bic	r3, r7, #65280
 1624 1668 EC411FE5 		ldr	r4, .L244+56
 1625 166c 027483E1 		orr	r7, r3, r2, asl #8
 1626 1670 11C0D0E5 		ldrb	ip, [r0, #17]	@ zero_extendqisi2
 1627 1674 FF30C7E3 		bic	r3, r7, #255
 1628 1678 EC0294E5 		ldr	r0, [r4, #748]	@ float
 1629 167c FE15A0E3 		mov	r1, #1065353216
 1630 1680 03708CE1 		orr	r7, ip, r3
 1631 1684 FEFFFFEB 		bl	__eqsf2
 1632 1688 000050E3 		cmp	r0, #0
 1633 168c 0750A0E1 		mov	r5, r7
 1634 1690 6BFCFF1A 		bne	.L203
 1635 1694 040394E5 		ldr	r0, [r4, #772]	@ float
 1636 1698 FE15A0E3 		mov	r1, #1065353216
 1637 169c FEFFFFEB 		bl	__eqsf2
 1638 16a0 000050E3 		cmp	r0, #0
 1639 16a4 66FCFF1A 		bne	.L203
 1640 16a8 641094E5 		ldr	r1, [r4, #100]	@ float
 1641 16ac 0700A0E1 		mov	r0, r7
 1642 16b0 FEFFFFEB 		bl	__addsf3
 1643 16b4 000384E5 		str	r0, [r4, #768]	@ float
 1644 16b8 7C0394E5 		ldr	r0, [r4, #892]	@ float
 1645 16bc FEFFFFEB 		bl	__fixunssfsi
 1646 16c0 58221FE5 		ldr	r2, .L244+36
 1647 16c4 FF3000E2 		and	r3, r0, #255
 1648 16c8 033183E0 		add	r3, r3, r3, asl #2
 1649 16cc 032182E0 		add	r2, r2, r3, asl #2
 1650 16d0 0E40D2E5 		ldrb	r4, [r2, #14]	@ zero_extendqisi2
 1651 16d4 50121FE5 		ldr	r1, .L244+64
 1652 16d8 0030E0E3 		mvn	r3, #0
 1653 16dc 0150D1E5 		ldrb	r5, [r1, #1]	@ zero_extendqisi2
 1654 16e0 0060D1E5 		ldrb	r6, [r1, #0]	@ zero_extendqisi2
 1655 16e4 0080A0E1 		mov	r8, r0
 1656 16e8 010084E2 		add	r0, r4, #1
 1657 16ec 0E00C2E5 		strb	r0, [r2, #14]
 1658 16f0 47C8A0E1 		mov	ip, r7, asr #16
 1659 16f4 47E4A0E1 		mov	lr, r7, asr #8
 1660 16f8 A831CDE5 		strb	r3, [sp, #424]
 1661 16fc 5C20A0E3 		mov	r2, #92
 1662 1700 063083E2 		add	r3, r3, #6
 1663 1704 471CA0E1 		mov	r1, r7, asr #24
 1664 1708 ABC1CDE5 		strb	ip, [sp, #427]
 1665 170c A921CDE5 		strb	r2, [sp, #425]
 1666 1710 01C8A0E3 		mov	ip, #65536
 1667 1714 ACE1CDE5 		strb	lr, [sp, #428]
 1668 1718 AD71CDE5 		strb	r7, [sp, #429]
 1669 171c A431CDE5 		strb	r3, [sp, #420]
 1670 1720 A661CDE5 		strb	r6, [sp, #422]
 1671 1724 A751CDE5 		strb	r5, [sp, #423]
 1672 1728 A541CDE5 		strb	r4, [sp, #421]
 1673 172c AA11CDE5 		strb	r1, [sp, #426]
 1674 1730 01C04CE2 		sub	ip, ip, #1
 1675 1734 0010A0E3 		mov	r1, #0
 1676              	.L154:
 1677 1738 69EF81E2 		add	lr, r1, #420
 1678 173c 0D30DEE7 		ldrb	r3, [lr, sp]	@ zero_extendqisi2
 1679 1740 0C3023E0 		eor	r3, r3, ip
 1680 1744 FF3003E2 		and	r3, r3, #255
 1681 1748 033223E0 		eor	r3, r3, r3, asl #4
 1682 174c FF3003E2 		and	r3, r3, #255
 1683 1750 0324A0E1 		mov	r2, r3, asl #8
 1684 1754 2C2482E1 		orr	r2, r2, ip, lsr #8
 1685 1758 232222E0 		eor	r2, r2, r3, lsr #4
 1686 175c 832122E0 		eor	r2, r2, r3, asl #3
 1687 1760 011081E2 		add	r1, r1, #1
 1688 1764 0228A0E1 		mov	r2, r2, asl #16
 1689 1768 0A0051E3 		cmp	r1, #10
 1690 176c 22C8A0E1 		mov	ip, r2, lsr #16
 1691 1770 F0FFFF1A 		bne	.L154
 1692 1774 2C34A0E1 		mov	r3, ip, lsr #8
 1693 1778 0800A0E1 		mov	r0, r8
 1694 177c 691F8DE2 		add	r1, sp, #420
 1695 1780 A932CDE5 		strb	r3, [sp, #681]
 1696 1784 A8C2CDE5 		strb	ip, [sp, #680]
 1697 1788 84FAFFEB 		bl	mavlink_send_uart
 1698 178c 2CFCFFEA 		b	.L203
 1699              	.L79:
 1700 1790 0540DBE5 		ldrb	r4, [fp, #5]	@ zero_extendqisi2
 1701 1794 0400A0E1 		mov	r0, r4
 1702 1798 FEFFFFEB 		bl	shutter_control
 1703 179c 000054E3 		cmp	r4, #0
 1704 17a0 4802000A 		beq	.L156
 1705 17a4 4C031FE5 		ldr	r0, .L244+20
 1706 17a8 FEFFFFEB 		bl	debug_message_buffer
 1707 17ac 24FCFFEA 		b	.L203
 1708              	.L95:
 1709 17b0 004CA0E1 		mov	r4, r0, asl #24
 1710 17b4 444CA0E1 		mov	r4, r4, asr #24
 1711 17b8 0400A0E1 		mov	r0, r4
 1712 17bc FEFFFFEB 		bl	__floatsisf
 1713 17c0 000054E3 		cmp	r4, #0
 1714 17c4 A50200BA 		blt	.L235
 1715              	.L104:
 1716 17c8 4C331FE5 		ldr	r3, .L244+56
 1717 17cc 840383E5 		str	r0, [r3, #900]	@ float
 1718 17d0 1BFCFFEA 		b	.L203
 1719              	.L96:
 1720 17d4 004CA0E1 		mov	r4, r0, asl #24
 1721 17d8 444CA0E1 		mov	r4, r4, asr #24
 1722 17dc 0400A0E1 		mov	r0, r4
 1723 17e0 FEFFFFEB 		bl	__floatsisf
 1724 17e4 000054E3 		cmp	r4, #0
 1725 17e8 940200BA 		blt	.L236
 1726              	.L105:
 1727 17ec 70331FE5 		ldr	r3, .L244+56
 1728 17f0 800383E5 		str	r0, [r3, #896]	@ float
 1729 17f4 12FCFFEA 		b	.L203
 1730              	.L97:
 1731 17f8 004CA0E1 		mov	r4, r0, asl #24
 1732 17fc 444CA0E1 		mov	r4, r4, asr #24
 1733 1800 0400A0E1 		mov	r0, r4
 1734 1804 FEFFFFEB 		bl	__floatsisf
 1735 1808 000054E3 		cmp	r4, #0
 1736 180c B10200BA 		blt	.L237
 1737              	.L106:
 1738 1810 94331FE5 		ldr	r3, .L244+56
 1739 1814 880383E5 		str	r0, [r3, #904]	@ float
 1740 1818 09FCFFEA 		b	.L203
 1741              	.L99:
 1742 181c 004CA0E1 		mov	r4, r0, asl #24
 1743 1820 444CA0E1 		mov	r4, r4, asr #24
 1744 1824 0400A0E1 		mov	r0, r4
 1745 1828 FEFFFFEB 		bl	__floatsisf
 1746 182c 000054E3 		cmp	r4, #0
 1747 1830 860200BA 		blt	.L238
 1748              	.L108:
 1749 1834 B8331FE5 		ldr	r3, .L244+56
 1750 1838 A00383E5 		str	r0, [r3, #928]	@ float
 1751 183c 00FCFFEA 		b	.L203
 1752              	.L98:
 1753 1840 004CA0E1 		mov	r4, r0, asl #24
 1754 1844 444CA0E1 		mov	r4, r4, asr #24
 1755 1848 0400A0E1 		mov	r0, r4
 1756 184c FEFFFFEB 		bl	__floatsisf
 1757 1850 000054E3 		cmp	r4, #0
 1758 1854 A70200BA 		blt	.L239
 1759              	.L107:
 1760 1858 DC331FE5 		ldr	r3, .L244+56
 1761 185c 8C0383E5 		str	r0, [r3, #908]	@ float
 1762 1860 F7FBFFEA 		b	.L203
 1763              	.L101:
 1764 1864 004CA0E1 		mov	r4, r0, asl #24
 1765 1868 444CA0E1 		mov	r4, r4, asr #24
 1766 186c 0400A0E1 		mov	r0, r4
 1767 1870 FEFFFFEB 		bl	__floatsisf
 1768 1874 000054E3 		cmp	r4, #0
 1769 1878 9A0200BA 		blt	.L240
 1770              	.L110:
 1771 187c 00341FE5 		ldr	r3, .L244+56
 1772 1880 9C0383E5 		str	r0, [r3, #924]	@ float
 1773 1884 EEFBFFEA 		b	.L203
 1774              	.L100:
 1775 1888 004CA0E1 		mov	r4, r0, asl #24
 1776 188c 444CA0E1 		mov	r4, r4, asr #24
 1777 1890 0400A0E1 		mov	r0, r4
 1778 1894 FEFFFFEB 		bl	__floatsisf
 1779 1898 000054E3 		cmp	r4, #0
 1780 189c 990200BA 		blt	.L241
 1781              	.L109:
 1782 18a0 24341FE5 		ldr	r3, .L244+56
 1783 18a4 940383E5 		str	r0, [r3, #916]	@ float
 1784 18a8 E5FBFFEA 		b	.L203
 1785              	.L102:
 1786 18ac 004CA0E1 		mov	r4, r0, asl #24
 1787 18b0 444CA0E1 		mov	r4, r4, asr #24
 1788 18b4 0400A0E1 		mov	r0, r4
 1789 18b8 FEFFFFEB 		bl	__floatsisf
 1790 18bc 000054E3 		cmp	r4, #0
 1791 18c0 5A0200BA 		blt	.L242
 1792              	.L111:
 1793 18c4 48341FE5 		ldr	r3, .L244+56
 1794 18c8 A40383E5 		str	r0, [r3, #932]	@ float
 1795 18cc DCFBFFEA 		b	.L203
 1796              	.L169:
 1797 18d0 74041FE5 		ldr	r0, .L244+24
 1798 18d4 FEFFFFEB 		bl	debug_message_buffer
 1799 18d8 D9FBFFEA 		b	.L203
 1800              	.L78:
 1801 18dc 05308BE2 		add	r3, fp, #5
 1802 18e0 0300D3E5 		ldrb	r0, [r3, #3]	@ zero_extendqisi2
 1803 18e4 0440D3E5 		ldrb	r4, [r3, #4]	@ zero_extendqisi2
 1804 18e8 0620D3E5 		ldrb	r2, [r3, #6]	@ zero_extendqisi2
 1805 18ec 0510D3E5 		ldrb	r1, [r3, #5]	@ zero_extendqisi2
 1806 18f0 004484E1 		orr	r4, r4, r0, asl #8
 1807 18f4 011482E1 		orr	r1, r2, r1, asl #8
 1808 18f8 0400A0E1 		mov	r0, r4
 1809 18fc FEFFFFEB 		bl	shutter_set
 1810 1900 0410A0E1 		mov	r1, r4
 1811 1904 A4041FE5 		ldr	r0, .L244+28
 1812 1908 FEFFFFEB 		bl	debug_message_buffer_sprintf
 1813 190c CCFBFFEA 		b	.L203
 1814              	.L81:
 1815 1910 05308BE2 		add	r3, fp, #5
 1816 1914 50819DE5 		ldr	r8, [sp, #336]
 1817 1918 58119DE5 		ldr	r1, [sp, #344]
 1818 191c 54719DE5 		ldr	r7, [sp, #340]
 1819 1920 4C919DE5 		ldr	r9, [sp, #332]
 1820 1924 04E0D3E5 		ldrb	lr, [r3, #4]	@ zero_extendqisi2
 1821 1928 0840D3E5 		ldrb	r4, [r3, #8]	@ zero_extendqisi2
 1822 192c 0C50D3E5 		ldrb	r5, [r3, #12]	@ zero_extendqisi2
 1823 1930 1060D3E5 		ldrb	r6, [r3, #16]	@ zero_extendqisi2
 1824 1934 FF24C1E3 		bic	r2, r1, #-16777216
 1825 1938 FF04C8E3 		bic	r0, r8, #-16777216
 1826 193c FF14C7E3 		bic	r1, r7, #-16777216
 1827 1940 FFC4C9E3 		bic	ip, r9, #-16777216
 1828 1944 0EEC82E1 		orr	lr, r2, lr, asl #24
 1829 1948 044C81E1 		orr	r4, r1, r4, asl #24
 1830 194c 055C80E1 		orr	r5, r0, r5, asl #24
 1831 1950 066C8CE1 		orr	r6, ip, r6, asl #24
 1832 1954 50518DE5 		str	r5, [sp, #336]
 1833 1958 58E18DE5 		str	lr, [sp, #344]
 1834 195c 54418DE5 		str	r4, [sp, #340]
 1835 1960 4C618DE5 		str	r6, [sp, #332]
 1836 1964 50719DE5 		ldr	r7, [sp, #336]
 1837 1968 58A19DE5 		ldr	sl, [sp, #344]
 1838 196c 54C19DE5 		ldr	ip, [sp, #340]
 1839 1970 4C819DE5 		ldr	r8, [sp, #332]
 1840 1974 05E0D3E5 		ldrb	lr, [r3, #5]	@ zero_extendqisi2
 1841 1978 0940D3E5 		ldrb	r4, [r3, #9]	@ zero_extendqisi2
 1842 197c 0D50D3E5 		ldrb	r5, [r3, #13]	@ zero_extendqisi2
 1843 1980 1160D3E5 		ldrb	r6, [r3, #17]	@ zero_extendqisi2
 1844 1984 FF28CAE3 		bic	r2, sl, #16711680
 1845 1988 FF18CCE3 		bic	r1, ip, #16711680
 1846 198c FF08C7E3 		bic	r0, r7, #16711680
 1847 1990 FFC8C8E3 		bic	ip, r8, #16711680
 1848 1994 0EE882E1 		orr	lr, r2, lr, asl #16
 1849 1998 044881E1 		orr	r4, r1, r4, asl #16
 1850 199c 055880E1 		orr	r5, r0, r5, asl #16
 1851 19a0 06688CE1 		orr	r6, ip, r6, asl #16
 1852 19a4 50518DE5 		str	r5, [sp, #336]
 1853 19a8 58E18DE5 		str	lr, [sp, #344]
 1854 19ac 54418DE5 		str	r4, [sp, #340]
 1855 19b0 4C618DE5 		str	r6, [sp, #332]
 1856 19b4 537F8DE2 		add	r7, sp, #332
 1857 19b8 801097E8 		ldmia	r7, {r7, ip}	@ phole ldm
 1858 19bc 0E50D3E5 		ldrb	r5, [r3, #14]	@ zero_extendqisi2
 1859 19c0 1260D3E5 		ldrb	r6, [r3, #18]	@ zero_extendqisi2
 1860 19c4 FF0CCCE3 		bic	r0, ip, #65280
 1861 19c8 FFCCC7E3 		bic	ip, r7, #65280
 1862 19cc 055480E1 		orr	r5, r0, r5, asl #8
 1863 19d0 06648CE1 		orr	r6, ip, r6, asl #8
 1864 19d4 06E0D3E5 		ldrb	lr, [r3, #6]	@ zero_extendqisi2
 1865 19d8 0A40D3E5 		ldrb	r4, [r3, #10]	@ zero_extendqisi2
 1866 19dc 58919DE5 		ldr	r9, [sp, #344]
 1867 19e0 54A19DE5 		ldr	sl, [sp, #340]
 1868 19e4 50518DE5 		str	r5, [sp, #336]
 1869 19e8 4C618DE5 		str	r6, [sp, #332]
 1870 19ec 1380D3E5 		ldrb	r8, [r3, #19]	@ zero_extendqisi2
 1871 19f0 EC808DE5 		str	r8, [sp, #236]
 1872 19f4 FF1CCAE3 		bic	r1, sl, #65280
 1873 19f8 044481E1 		orr	r4, r1, r4, asl #8
 1874 19fc 0B70D3E5 		ldrb	r7, [r3, #11]	@ zero_extendqisi2
 1875 1a00 FF2CC9E3 		bic	r2, r9, #65280
 1876 1a04 FFC0C4E3 		bic	ip, r4, #255
 1877 1a08 02B0D3E5 		ldrb	fp, [r3, #2]	@ zero_extendqisi2
 1878 1a0c 0350D3E5 		ldrb	r5, [r3, #3]	@ zero_extendqisi2
 1879 1a10 0760D3E5 		ldrb	r6, [r3, #7]	@ zero_extendqisi2
 1880 1a14 0F80D3E5 		ldrb	r8, [r3, #15]	@ zero_extendqisi2
 1881 1a18 50919DE5 		ldr	r9, [sp, #336]
 1882 1a1c 4CA19DE5 		ldr	sl, [sp, #332]
 1883 1a20 A4351FE5 		ldr	r3, .L244+56
 1884 1a24 0EE482E1 		orr	lr, r2, lr, asl #8
 1885 1a28 0C7087E1 		orr	r7, r7, ip
 1886 1a2c ECC09DE5 		ldr	ip, [sp, #236]
 1887 1a30 FF20CEE3 		bic	r2, lr, #255
 1888 1a34 FF40CAE3 		bic	r4, sl, #255
 1889 1a38 FFE0C9E3 		bic	lr, r9, #255
 1890 1a3c EC0293E5 		ldr	r0, [r3, #748]	@ float
 1891 1a40 FE15A0E3 		mov	r1, #1065353216
 1892 1a44 026086E1 		orr	r6, r6, r2
 1893 1a48 0E8088E1 		orr	r8, r8, lr
 1894 1a4c 04908CE1 		orr	r9, ip, r4
 1895 1a50 FEFFFFEB 		bl	__eqsf2
 1896 1a54 000050E3 		cmp	r0, #0
 1897 1a58 0BA485E1 		orr	sl, r5, fp, asl #8
 1898 1a5c 9601001A 		bne	.L144
 1899 1a60 FC051FE5 		ldr	r0, .L244+32
 1900 1a64 FEFFFFEB 		bl	debug_message_buffer
 1901              	.L147:
 1902 1a68 0A48A0E1 		mov	r4, sl, asl #16
 1903 1a6c E8551FE5 		ldr	r5, .L244+64
 1904 1a70 2438A0E1 		mov	r3, r4, lsr #16
 1905 1a74 FF3003E2 		and	r3, r3, #255
 1906 1a78 46ECA0E1 		mov	lr, r6, asr #24
 1907 1a7c 0120D5E5 		ldrb	r2, [r5, #1]	@ zero_extendqisi2
 1908 1a80 0010D5E5 		ldrb	r1, [r5, #0]	@ zero_extendqisi2
 1909 1a84 09B0A0E1 		mov	fp, r9
 1910 1a88 84318DE5 		str	r3, [sp, #388]
 1911 1a8c E8E08DE5 		str	lr, [sp, #232]
 1912 1a90 479CA0E1 		mov	r9, r7, asr #24
 1913 1a94 47A8A0E1 		mov	sl, r7, asr #16
 1914 1a98 47C4A0E1 		mov	ip, r7, asr #8
 1915 1a9c 48ECA0E1 		mov	lr, r8, asr #24
 1916 1aa0 4608A0E1 		mov	r0, r6, asr #16
 1917 1aa4 4634A0E1 		mov	r3, r6, asr #8
 1918 1aa8 E4008DE5 		str	r0, [sp, #228]
 1919 1aac E0308DE5 		str	r3, [sp, #224]
 1920 1ab0 DC908DE5 		str	r9, [sp, #220]
 1921 1ab4 D8A08DE5 		str	sl, [sp, #216]
 1922 1ab8 D4C08DE5 		str	ip, [sp, #212]
 1923 1abc D0E08DE5 		str	lr, [sp, #208]
 1924 1ac0 4B9CA0E1 		mov	r9, fp, asr #24
 1925 1ac4 4BA8A0E1 		mov	sl, fp, asr #16
 1926 1ac8 4BC4A0E1 		mov	ip, fp, asr #8
 1927 1acc 79E0A0E3 		mov	lr, #121
 1928 1ad0 C4908DE5 		str	r9, [sp, #196]
 1929 1ad4 C0A08DE5 		str	sl, [sp, #192]
 1930 1ad8 84919DE5 		ldr	r9, [sp, #388]
 1931 1adc E8A09DE5 		ldr	sl, [sp, #232]
 1932 1ae0 BCC08DE5 		str	ip, [sp, #188]
 1933 1ae4 A8E1CDE5 		strb	lr, [sp, #424]
 1934 1ae8 E4C09DE5 		ldr	ip, [sp, #228]
 1935 1aec E0E09DE5 		ldr	lr, [sp, #224]
 1936 1af0 AA91CDE5 		strb	r9, [sp, #426]
 1937 1af4 ABA1CDE5 		strb	sl, [sp, #427]
 1938 1af8 DC909DE5 		ldr	r9, [sp, #220]
 1939 1afc D8A09DE5 		ldr	sl, [sp, #216]
 1940 1b00 ACC1CDE5 		strb	ip, [sp, #428]
 1941 1b04 ADE1CDE5 		strb	lr, [sp, #429]
 1942 1b08 D4C09DE5 		ldr	ip, [sp, #212]
 1943 1b0c D0E09DE5 		ldr	lr, [sp, #208]
 1944 1b10 244CA0E1 		mov	r4, r4, lsr #24
 1945 1b14 4808A0E1 		mov	r0, r8, asr #16
 1946 1b18 4834A0E1 		mov	r3, r8, asr #8
 1947 1b1c CC008DE5 		str	r0, [sp, #204]
 1948 1b20 C8308DE5 		str	r3, [sp, #200]
 1949 1b24 A941CDE5 		strb	r4, [sp, #425]
 1950 1b28 AF91CDE5 		strb	r9, [sp, #431]
 1951 1b2c B0A1CDE5 		strb	sl, [sp, #432]
 1952 1b30 B1C1CDE5 		strb	ip, [sp, #433]
 1953 1b34 B271CDE5 		strb	r7, [sp, #434]
 1954 1b38 AE61CDE5 		strb	r6, [sp, #430]
 1955 1b3c B3E1CDE5 		strb	lr, [sp, #435]
 1956 1b40 CC909DE5 		ldr	r9, [sp, #204]
 1957 1b44 C8A09DE5 		ldr	sl, [sp, #200]
 1958 1b48 C4C09DE5 		ldr	ip, [sp, #196]
 1959 1b4c C0E09DE5 		ldr	lr, [sp, #192]
 1960 1b50 B491CDE5 		strb	r9, [sp, #436]
 1961 1b54 BC909DE5 		ldr	r9, [sp, #188]
 1962 1b58 0030A0E3 		mov	r3, #0
 1963 1b5c B5A1CDE5 		strb	sl, [sp, #437]
 1964 1b60 690F8DE2 		add	r0, sp, #420
 1965 1b64 12A0A0E3 		mov	sl, #18
 1966 1b68 B7C1CDE5 		strb	ip, [sp, #439]
 1967 1b6c B8E1CDE5 		strb	lr, [sp, #440]
 1968 1b70 B681CDE5 		strb	r8, [sp, #438]
 1969 1b74 B991CDE5 		strb	r9, [sp, #441]
 1970 1b78 00A08DE5 		str	sl, [sp, #0]
 1971 1b7c BAB1CDE5 		strb	fp, [sp, #442]
 1972 1b80 2FF9FFEB 		bl	mavlink_finalize_message_chan
 1973 1b84 0000A0E3 		mov	r0, #0
 1974 1b88 691F8DE2 		add	r1, sp, #420
 1975 1b8c 83F9FFEB 		bl	mavlink_send_uart
 1976 1b90 24271FE5 		ldr	r2, .L244+40
 1977 1b94 0E10D2E5 		ldrb	r1, [r2, #14]	@ zero_extendqisi2
 1978 1b98 013081E2 		add	r3, r1, #1
 1979 1b9c 01C0D5E5 		ldrb	ip, [r5, #1]	@ zero_extendqisi2
 1980 1ba0 0000D5E5 		ldrb	r0, [r5, #0]	@ zero_extendqisi2
 1981 1ba4 0E30C2E5 		strb	r3, [r2, #14]
 1982 1ba8 84219DE5 		ldr	r2, [sp, #388]
 1983 1bac E8309DE5 		ldr	r3, [sp, #232]
 1984 1bb0 E0509DE5 		ldr	r5, [sp, #224]
 1985 1bb4 A941CDE5 		strb	r4, [sp, #425]
 1986 1bb8 E4409DE5 		ldr	r4, [sp, #228]
 1987 1bbc DC909DE5 		ldr	r9, [sp, #220]
 1988 1bc0 79E0A0E3 		mov	lr, #121
 1989 1bc4 A8E1CDE5 		strb	lr, [sp, #424]
 1990 1bc8 AA21CDE5 		strb	r2, [sp, #426]
 1991 1bcc AB31CDE5 		strb	r3, [sp, #427]
 1992 1bd0 AC41CDE5 		strb	r4, [sp, #428]
 1993 1bd4 AD51CDE5 		strb	r5, [sp, #429]
 1994 1bd8 D8A09DE5 		ldr	sl, [sp, #216]
 1995 1bdc D4E09DE5 		ldr	lr, [sp, #212]
 1996 1be0 B271CDE5 		strb	r7, [sp, #434]
 1997 1be4 D0209DE5 		ldr	r2, [sp, #208]
 1998 1be8 CC309DE5 		ldr	r3, [sp, #204]
 1999 1bec C8409DE5 		ldr	r4, [sp, #200]
 2000 1bf0 B681CDE5 		strb	r8, [sp, #438]
 2001 1bf4 C4509DE5 		ldr	r5, [sp, #196]
 2002 1bf8 C0709DE5 		ldr	r7, [sp, #192]
 2003 1bfc BC809DE5 		ldr	r8, [sp, #188]
 2004 1c00 AF91CDE5 		strb	r9, [sp, #431]
 2005 1c04 1290A0E3 		mov	r9, #18
 2006 1c08 AE61CDE5 		strb	r6, [sp, #430]
 2007 1c0c B0A1CDE5 		strb	sl, [sp, #432]
 2008 1c10 B1E1CDE5 		strb	lr, [sp, #433]
 2009 1c14 B321CDE5 		strb	r2, [sp, #435]
 2010 1c18 B431CDE5 		strb	r3, [sp, #436]
 2011 1c1c B541CDE5 		strb	r4, [sp, #437]
 2012 1c20 B751CDE5 		strb	r5, [sp, #439]
 2013 1c24 B871CDE5 		strb	r7, [sp, #440]
 2014 1c28 B981CDE5 		strb	r8, [sp, #441]
 2015 1c2c A7C1CDE5 		strb	ip, [sp, #423]
 2016 1c30 BAB1CDE5 		strb	fp, [sp, #442]
 2017 1c34 01C8A0E3 		mov	ip, #65536
 2018 1c38 A491CDE5 		strb	r9, [sp, #420]
 2019 1c3c A601CDE5 		strb	r0, [sp, #422]
 2020 1c40 A511CDE5 		strb	r1, [sp, #421]
 2021 1c44 01C04CE2 		sub	ip, ip, #1
 2022 1c48 0010A0E3 		mov	r1, #0
 2023              	.L148:
 2024 1c4c 69AF81E2 		add	sl, r1, #420
 2025 1c50 0D30DAE7 		ldrb	r3, [sl, sp]	@ zero_extendqisi2
 2026 1c54 0C3023E0 		eor	r3, r3, ip
 2027 1c58 FF3003E2 		and	r3, r3, #255
 2028 1c5c 033223E0 		eor	r3, r3, r3, asl #4
 2029 1c60 FF3003E2 		and	r3, r3, #255
 2030 1c64 0324A0E1 		mov	r2, r3, asl #8
 2031 1c68 2C2482E1 		orr	r2, r2, ip, lsr #8
 2032 1c6c 232222E0 		eor	r2, r2, r3, lsr #4
 2033 1c70 832122E0 		eor	r2, r2, r3, asl #3
 2034 1c74 011081E2 		add	r1, r1, #1
 2035 1c78 0228A0E1 		mov	r2, r2, asl #16
 2036 1c7c 170051E3 		cmp	r1, #23
 2037 1c80 22C8A0E1 		mov	ip, r2, lsr #16
 2038 1c84 F0FFFF1A 		bne	.L148
 2039 1c88 3DFCFFEA 		b	.L226
 2040              	.L70:
 2041 1c8c 05008BE2 		add	r0, fp, #5
 2042 1c90 0620D0E5 		ldrb	r2, [r0, #6]	@ zero_extendqisi2
 2043 1c94 FF34C8E3 		bic	r3, r8, #-16777216
 2044 1c98 0710D0E5 		ldrb	r1, [r0, #7]	@ zero_extendqisi2
 2045 1c9c 028C83E1 		orr	r8, r3, r2, asl #24
 2046 1ca0 FF38C8E3 		bic	r3, r8, #16711680
 2047 1ca4 0820D0E5 		ldrb	r2, [r0, #8]	@ zero_extendqisi2
 2048 1ca8 018883E1 		orr	r8, r3, r1, asl #16
 2049 1cac FF3CC8E3 		bic	r3, r8, #65280
 2050 1cb0 0910D0E5 		ldrb	r1, [r0, #9]	@ zero_extendqisi2
 2051 1cb4 10E19DE5 		ldr	lr, [sp, #272]
 2052 1cb8 028483E1 		orr	r8, r3, r2, asl #8
 2053 1cbc 05C0DBE5 		ldrb	ip, [fp, #5]	@ zero_extendqisi2
 2054 1cc0 FF30C8E3 		bic	r3, r8, #255
 2055 1cc4 038081E1 		orr	r8, r1, r3
 2056 1cc8 FF34CEE3 		bic	r3, lr, #-16777216
 2057 1ccc 0A10D0E5 		ldrb	r1, [r0, #10]	@ zero_extendqisi2
 2058 1cd0 0CCC83E1 		orr	ip, r3, ip, asl #24
 2059 1cd4 10C18DE5 		str	ip, [sp, #272]
 2060 1cd8 FF24C7E3 		bic	r2, r7, #-16777216
 2061 1cdc 017C82E1 		orr	r7, r2, r1, asl #24
 2062 1ce0 10219DE5 		ldr	r2, [sp, #272]
 2063 1ce4 06C0DBE5 		ldrb	ip, [fp, #6]	@ zero_extendqisi2
 2064 1ce8 09E0DBE5 		ldrb	lr, [fp, #9]	@ zero_extendqisi2
 2065 1cec 0A40DBE5 		ldrb	r4, [fp, #10]	@ zero_extendqisi2
 2066 1cf0 FF38C2E3 		bic	r3, r2, #16711680
 2067 1cf4 0CC883E1 		orr	ip, r3, ip, asl #16
 2068 1cf8 0B10D0E5 		ldrb	r1, [r0, #11]	@ zero_extendqisi2
 2069 1cfc 10C18DE5 		str	ip, [sp, #272]
 2070 1d00 0544CDE5 		strb	r4, [sp, #1029]
 2071 1d04 04E4CDE5 		strb	lr, [sp, #1028]
 2072 1d08 10419DE5 		ldr	r4, [sp, #272]
 2073 1d0c FF28C7E3 		bic	r2, r7, #16711680
 2074 1d10 017882E1 		orr	r7, r2, r1, asl #16
 2075 1d14 0710DBE5 		ldrb	r1, [fp, #7]	@ zero_extendqisi2
 2076 1d18 FF3CC4E3 		bic	r3, r4, #65280
 2077 1d1c 011483E1 		orr	r1, r3, r1, asl #8
 2078 1d20 0CC0D0E5 		ldrb	ip, [r0, #12]	@ zero_extendqisi2
 2079 1d24 10118DE5 		str	r1, [sp, #272]
 2080 1d28 FF2CC7E3 		bic	r2, r7, #65280
 2081 1d2c 10A19DE5 		ldr	sl, [sp, #272]
 2082 1d30 015B8DE2 		add	r5, sp, #1024
 2083 1d34 0DE0D0E5 		ldrb	lr, [r0, #13]	@ zero_extendqisi2
 2084 1d38 0810DBE5 		ldrb	r1, [fp, #8]	@ zero_extendqisi2
 2085 1d3c B450D5E1 		ldrh	r5, [r5, #4]
 2086 1d40 0C7482E1 		orr	r7, r2, ip, asl #8
 2087 1d44 FF30CAE3 		bic	r3, sl, #255
 2088 1d48 FF20C7E3 		bic	r2, r7, #255
 2089 1d4c 031081E1 		orr	r1, r1, r3
 2090 1d50 02708EE1 		orr	r7, lr, r2
 2091 1d54 000055E3 		cmp	r5, #0
 2092 1d58 34508DE5 		str	r5, [sp, #52]
 2093 1d5c 10118DE5 		str	r1, [sp, #272]
 2094 1d60 08748DE5 		str	r7, [sp, #1032]
 2095 1d64 0C848DE5 		str	r8, [sp, #1036]
 2096 1d68 00148DE5 		str	r1, [sp, #1024]
 2097 1d6c B4FAFF1A 		bne	.L203
 2098 1d70 FEFFFFEB 		bl	sys_time_clock_get_unix_time
 2099 1d74 0CC19DE5 		ldr	ip, [sp, #268]
 2100 1d78 34209DE5 		ldr	r2, [sp, #52]
 2101 1d7c FF300CE2 		and	r3, ip, #255
 2102 1d80 28208DE5 		str	r2, [sp, #40]
 2103 1d84 1C291FE5 		ldr	r2, .L244+36
 2104 1d88 033183E0 		add	r3, r3, r3, asl #2
 2105 1d8c 34409DE5 		ldr	r4, [sp, #52]
 2106 1d90 033182E0 		add	r3, r2, r3, asl #2
 2107 1d94 90318DE5 		str	r3, [sp, #400]
 2108 1d98 21ECA0E1 		mov	lr, r1, lsr #24
 2109 1d9c 2138A0E1 		mov	r3, r1, lsr #16
 2110 1da0 24E08DE5 		str	lr, [sp, #36]
 2111 1da4 1C308DE5 		str	r3, [sp, #28]
 2112 1da8 20408DE5 		str	r4, [sp, #32]
 2113 1dac 90519DE5 		ldr	r5, [sp, #400]
 2114 1db0 0E50D5E5 		ldrb	r5, [r5, #14]	@ zero_extendqisi2
 2115 1db4 2174A0E1 		mov	r7, r1, lsr #8
 2116 1db8 08508DE5 		str	r5, [sp, #8]
 2117 1dbc 14708DE5 		str	r7, [sp, #20]
 2118 1dc0 18408DE5 		str	r4, [sp, #24]
 2119 1dc4 03A0DBE5 		ldrb	sl, [fp, #3]	@ zero_extendqisi2
 2120 1dc8 44291FE5 		ldr	r2, .L244+64
 2121 1dcc 2CA08DE5 		str	sl, [sp, #44]
 2122 1dd0 0C108DE5 		str	r1, [sp, #12]
 2123 1dd4 10408DE5 		str	r4, [sp, #16]
 2124 1dd8 0130D2E5 		ldrb	r3, [r2, #1]	@ zero_extendqisi2
 2125 1ddc 88318DE5 		str	r3, [sp, #392]
 2126 1de0 02B0DBE5 		ldrb	fp, [fp, #2]	@ zero_extendqisi2
 2127 1de4 30B08DE5 		str	fp, [sp, #48]
 2128 1de8 08A09DE5 		ldr	sl, [sp, #8]
 2129 1dec 0020D2E5 		ldrb	r2, [r2, #0]	@ zero_extendqisi2
 2130 1df0 8C218DE5 		str	r2, [sp, #396]
 2131 1df4 01208AE2 		add	r2, sl, #1
 2132 1df8 10A19DE5 		ldr	sl, [sp, #272]
 2133 1dfc 10E19DE5 		ldr	lr, [sp, #272]
 2134 1e00 2AB4A0E1 		mov	fp, sl, lsr #8
 2135 1e04 90A19DE5 		ldr	sl, [sp, #400]
 2136 1e08 2ECCA0E1 		mov	ip, lr, lsr #24
 2137 1e0c 0E20CAE5 		strb	r2, [sl, #14]
 2138 1e10 A9C1CDE5 		strb	ip, [sp, #425]
 2139 1e14 10C19DE5 		ldr	ip, [sp, #272]
 2140 1e18 2EE8A0E1 		mov	lr, lr, lsr #16
 2141 1e1c A891CDE5 		strb	r9, [sp, #424]
 2142 1e20 AAE1CDE5 		strb	lr, [sp, #426]
 2143 1e24 ABB1CDE5 		strb	fp, [sp, #427]
 2144 1e28 ACC1CDE5 		strb	ip, [sp, #428]
 2145 1e2c 2C208DE2 		add	r2, sp, #44
 2146 1e30 044092E8 		ldmia	r2, {r2, lr}	@ phole ldm
 2147 1e34 207CA0E1 		mov	r7, r0, lsr #24
 2148 1e38 2058A0E1 		mov	r5, r0, lsr #16
 2149 1e3c 2034A0E1 		mov	r3, r0, lsr #8
 2150 1e40 013C83E1 		orr	r3, r3, r1, asl #24
 2151 1e44 017487E1 		orr	r7, r7, r1, asl #8
 2152 1e48 015885E1 		orr	r5, r5, r1, asl #16
 2153 1e4c 2490DDE5 		ldrb	r9, [sp, #36]	@ zero_extendqisi2
 2154 1e50 14C0DDE5 		ldrb	ip, [sp, #20]	@ zero_extendqisi2
 2155 1e54 218CA0E1 		mov	r8, r1, lsr #24
 2156 1e58 2168A0E1 		mov	r6, r1, lsr #16
 2157 1e5c ADE1CDE5 		strb	lr, [sp, #429]
 2158 1e60 AE21CDE5 		strb	r2, [sp, #430]
 2159 1e64 1CA0DDE5 		ldrb	sl, [sp, #28]	@ zero_extendqisi2
 2160 1e68 0CE0DDE5 		ldrb	lr, [sp, #12]	@ zero_extendqisi2
 2161 1e6c B601CDE5 		strb	r0, [sp, #438]
 2162 1e70 88119DE5 		ldr	r1, [sp, #392]
 2163 1e74 8C019DE5 		ldr	r0, [sp, #396]
 2164 1e78 08209DE5 		ldr	r2, [sp, #8]
 2165 1e7c B531CDE5 		strb	r3, [sp, #437]
 2166 1e80 0E30A0E3 		mov	r3, #14
 2167 1e84 AF91CDE5 		strb	r9, [sp, #431]
 2168 1e88 B1C1CDE5 		strb	ip, [sp, #433]
 2169 1e8c B0A1CDE5 		strb	sl, [sp, #432]
 2170 1e90 01C8A0E3 		mov	ip, #65536
 2171 1e94 B2E1CDE5 		strb	lr, [sp, #434]
 2172 1e98 B371CDE5 		strb	r7, [sp, #435]
 2173 1e9c B451CDE5 		strb	r5, [sp, #436]
 2174 1ea0 A431CDE5 		strb	r3, [sp, #420]
 2175 1ea4 A601CDE5 		strb	r0, [sp, #422]
 2176 1ea8 A711CDE5 		strb	r1, [sp, #423]
 2177 1eac A521CDE5 		strb	r2, [sp, #421]
 2178 1eb0 34909DE5 		ldr	r9, [sp, #52]
 2179 1eb4 01C04CE2 		sub	ip, ip, #1
 2180              	.L165:
 2181 1eb8 694F89E2 		add	r4, r9, #420
 2182 1ebc 0D30D4E7 		ldrb	r3, [r4, sp]	@ zero_extendqisi2
 2183 1ec0 0C3023E0 		eor	r3, r3, ip
 2184 1ec4 FF3003E2 		and	r3, r3, #255
 2185 1ec8 033223E0 		eor	r3, r3, r3, asl #4
 2186 1ecc FF3003E2 		and	r3, r3, #255
 2187 1ed0 0324A0E1 		mov	r2, r3, asl #8
 2188 1ed4 2C2482E1 		orr	r2, r2, ip, lsr #8
 2189 1ed8 232222E0 		eor	r2, r2, r3, lsr #4
 2190 1edc 832122E0 		eor	r2, r2, r3, asl #3
 2191 1ee0 019089E2 		add	r9, r9, #1
 2192 1ee4 0228A0E1 		mov	r2, r2, asl #16
 2193 1ee8 130059E3 		cmp	r9, #19
 2194 1eec 22C8A0E1 		mov	ip, r2, lsr #16
 2195 1ef0 F0FFFF1A 		bne	.L165
 2196 1ef4 19FCFFEA 		b	.L227
 2197              	.L233:
 2198 1ef8 789A1FE5 		ldr	r9, .L244+60
 2199 1efc 69AF8DE2 		add	sl, sp, #420
 2200 1f00 004099E5 		ldr	r4, [r9, #0]
 2201 1f04 05A08AE2 		add	sl, sl, #5
 2202 1f08 847A1FE5 		ldr	r7, .L244+64
 2203 1f0c 04A08DE5 		str	sl, [sp, #4]
 2204 1f10 9CC19DE5 		ldr	ip, [sp, #412]
 2205 1f14 0448A0E1 		mov	r4, r4, asl #16
 2206 1f18 0150D7E5 		ldrb	r5, [r7, #1]	@ zero_extendqisi2
 2207 1f1c 54828CE5 		str	r8, [ip, #596]	@ float
 2208 1f20 16E0A0E3 		mov	lr, #22
 2209 1f24 A0119DE5 		ldr	r1, [sp, #416]
 2210 1f28 0F20A0E3 		mov	r2, #15
 2211 1f2c 0A00A0E1 		mov	r0, sl
 2212 1f30 2448A0E1 		mov	r4, r4, lsr #16
 2213 1f34 0060D7E5 		ldrb	r6, [r7, #0]	@ zero_extendqisi2
 2214 1f38 A8E1CDE5 		strb	lr, [sp, #424]
 2215 1f3c 0448A0E1 		mov	r4, r4, asl #16
 2216 1f40 FEFFFFEB 		bl	memcpy
 2217 1f44 08C0A0E1 		mov	ip, r8
 2218 1f48 0520A0E1 		mov	r2, r5
 2219 1f4c 0080A0E3 		mov	r8, #0
 2220 1f50 4C58A0E1 		mov	r5, ip, asr #16
 2221 1f54 24BCA0E1 		mov	fp, r4, lsr #24
 2222 1f58 2448A0E1 		mov	r4, r4, lsr #16
 2223 1f5c 4CECA0E1 		mov	lr, ip, asr #24
 2224 1f60 0830A0E1 		mov	r3, r8
 2225 1f64 0610A0E1 		mov	r1, r6
 2226 1f68 B951CDE5 		strb	r5, [sp, #441]
 2227 1f6c 4C64A0E1 		mov	r6, ip, asr #8
 2228 1f70 BF41CDE5 		strb	r4, [sp, #447]
 2229 1f74 1750A0E3 		mov	r5, #23
 2230 1f78 6540A0E3 		mov	r4, #101
 2231 1f7c 690F8DE2 		add	r0, sp, #420
 2232 1f80 B8E1CDE5 		strb	lr, [sp, #440]
 2233 1f84 BBC1CDE5 		strb	ip, [sp, #443]
 2234 1f88 BA61CDE5 		strb	r6, [sp, #442]
 2235 1f8c BEB1CDE5 		strb	fp, [sp, #446]
 2236 1f90 BD41CDE5 		strb	r4, [sp, #445]
 2237 1f94 00508DE5 		str	r5, [sp, #0]
 2238 1f98 BC81CDE5 		strb	r8, [sp, #444]
 2239 1f9c 28F8FFEB 		bl	mavlink_finalize_message_chan
 2240 1fa0 0800A0E1 		mov	r0, r8
 2241 1fa4 691F8DE2 		add	r1, sp, #420
 2242 1fa8 7CF8FFEB 		bl	mavlink_send_uart
 2243 1fac 406B1FE5 		ldr	r6, .L244+40
 2244 1fb0 01A0D7E5 		ldrb	sl, [r7, #1]	@ zero_extendqisi2
 2245 1fb4 9CC19DE5 		ldr	ip, [sp, #412]
 2246 1fb8 0070D7E5 		ldrb	r7, [r7, #0]	@ zero_extendqisi2
 2247 1fbc 004099E5 		ldr	r4, [r9, #0]
 2248 1fc0 A0119DE5 		ldr	r1, [sp, #416]
 2249 1fc4 0F20A0E3 		mov	r2, #15
 2250 1fc8 04009DE5 		ldr	r0, [sp, #4]
 2251 1fcc 1690A0E3 		mov	r9, #22
 2252 1fd0 54529CE5 		ldr	r5, [ip, #596]	@ float
 2253 1fd4 80718DE5 		str	r7, [sp, #384]
 2254 1fd8 A891CDE5 		strb	r9, [sp, #424]
 2255 1fdc FEFFFFEB 		bl	memcpy
 2256 1fe0 0EE0D6E5 		ldrb	lr, [r6, #14]	@ zero_extendqisi2
 2257 1fe4 0530A0E1 		mov	r3, r5
 2258 1fe8 0448A0E1 		mov	r4, r4, asl #16
 2259 1fec 01C08EE2 		add	ip, lr, #1
 2260 1ff0 0EC0C6E5 		strb	ip, [r6, #14]
 2261 1ff4 432CA0E1 		mov	r2, r3, asr #24
 2262 1ff8 2448A0E1 		mov	r4, r4, lsr #16
 2263 1ffc 0448A0E1 		mov	r4, r4, asl #16
 2264 2000 4318A0E1 		mov	r1, r3, asr #16
 2265 2004 4304A0E1 		mov	r0, r3, asr #8
 2266 2008 B821CDE5 		strb	r2, [sp, #440]
 2267 200c 80219DE5 		ldr	r2, [sp, #384]
 2268 2010 245CA0E1 		mov	r5, r4, lsr #24
 2269 2014 B911CDE5 		strb	r1, [sp, #441]
 2270 2018 2448A0E1 		mov	r4, r4, lsr #16
 2271 201c BA01CDE5 		strb	r0, [sp, #442]
 2272 2020 1710A0E3 		mov	r1, #23
 2273 2024 6500A0E3 		mov	r0, #101
 2274 2028 0178A0E3 		mov	r7, #65536
 2275 202c BB31CDE5 		strb	r3, [sp, #443]
 2276 2030 BD01CDE5 		strb	r0, [sp, #445]
 2277 2034 BE51CDE5 		strb	r5, [sp, #446]
 2278 2038 BF41CDE5 		strb	r4, [sp, #447]
 2279 203c A411CDE5 		strb	r1, [sp, #420]
 2280 2040 A621CDE5 		strb	r2, [sp, #422]
 2281 2044 A7A1CDE5 		strb	sl, [sp, #423]
 2282 2048 BC81CDE5 		strb	r8, [sp, #444]
 2283 204c A5E1CDE5 		strb	lr, [sp, #421]
 2284 2050 08B0A0E1 		mov	fp, r8
 2285 2054 017047E2 		sub	r7, r7, #1
 2286              	.L142:
 2287 2058 69AF8BE2 		add	sl, fp, #420
 2288 205c 0D30DAE7 		ldrb	r3, [sl, sp]	@ zero_extendqisi2
 2289 2060 073023E0 		eor	r3, r3, r7
 2290 2064 FF3003E2 		and	r3, r3, #255
 2291 2068 033223E0 		eor	r3, r3, r3, asl #4
 2292 206c FF3003E2 		and	r3, r3, #255
 2293 2070 0324A0E1 		mov	r2, r3, asl #8
 2294 2074 272482E1 		orr	r2, r2, r7, lsr #8
 2295 2078 232222E0 		eor	r2, r2, r3, lsr #4
 2296 207c 832122E0 		eor	r2, r2, r3, asl #3
 2297 2080 01B08BE2 		add	fp, fp, #1
 2298 2084 0228A0E1 		mov	r2, r2, asl #16
 2299 2088 1C005BE3 		cmp	fp, #28
 2300 208c 2278A0E1 		mov	r7, r2, lsr #16
 2301 2090 F0FFFF1A 		bne	.L142
 2302 2094 2734A0E1 		mov	r3, r7, lsr #8
 2303 2098 691F8DE2 		add	r1, sp, #420
 2304 209c 0100A0E3 		mov	r0, #1
 2305 20a0 A932CDE5 		strb	r3, [sp, #681]
 2306 20a4 A872CDE5 		strb	r7, [sp, #680]
 2307 20a8 3CF8FFEB 		bl	mavlink_send_uart
 2308 20ac 64119DE5 		ldr	r1, [sp, #356]
 2309 20b0 400C1FE5 		ldr	r0, .L244+44
 2310 20b4 FEFFFFEB 		bl	debug_message_buffer_sprintf
 2311 20b8 49FDFFEA 		b	.L135
 2312              	.L144:
 2313 20bc 480C1FE5 		ldr	r0, .L244+48
 2314 20c0 FEFFFFEB 		bl	debug_message_buffer
 2315 20c4 67FEFFEA 		b	.L147
 2316              	.L156:
 2317 20c8 500C1FE5 		ldr	r0, .L244+52
 2318 20cc FEFFFFEB 		bl	debug_message_buffer
 2319 20d0 DBF9FFEA 		b	.L203
 2320              	.L234:
 2321 20d4 0B10A0E1 		mov	r1, fp
 2322 20d8 0000A0E3 		mov	r0, #0
 2323 20dc 2FF8FFEB 		bl	mavlink_send_uart
 2324 20e0 D7F9FFEA 		b	.L203
 2325              	.L114:
 2326 20e4 681C1FE5 		ldr	r1, .L244+56
 2327 20e8 FA2F81E2 		add	r2, r1, #1000
 2328 20ec 98118DE5 		str	r1, [sp, #408]
 2329 20f0 94218DE5 		str	r2, [sp, #404]
 2330 20f4 00B0A0E3 		mov	fp, #0
 2331              	.L126:
 2332 20f8 0B326BE0 		rsb	r3, fp, fp, asl #4
 2333 20fc 804C1FE5 		ldr	r4, .L244+56
 2334 2100 FA3F83E2 		add	r3, r3, #1000
 2335 2104 FB1F8DE2 		add	r1, sp, #1004
 2336 2108 040083E0 		add	r0, r3, r4
 2337 210c 021081E2 		add	r1, r1, #2
 2338 2110 01C0A0E3 		mov	ip, #1
 2339              	.L119:
 2340 2114 FB2F8DE2 		add	r2, sp, #1004
 2341 2118 022082E2 		add	r2, r2, #2
 2342 211c 0030D1E5 		ldrb	r3, [r1, #0]	@ zero_extendqisi2
 2343 2120 0FE082E2 		add	lr, r2, #15
 2344 2124 0020D0E5 		ldrb	r2, [r0, #0]	@ zero_extendqisi2
 2345 2128 020053E1 		cmp	r3, r2
 2346 212c 00C0A013 		movne	ip, #0
 2347 2130 000052E3 		cmp	r2, #0
 2348 2134 010080E2 		add	r0, r0, #1
 2349 2138 011081E2 		add	r1, r1, #1
 2350 213c 0100000A 		beq	.L122
 2351 2140 01005EE1 		cmp	lr, r1
 2352 2144 F2FFFF1A 		bne	.L119
 2353              	.L122:
 2354 2148 00005CE3 		cmp	ip, #0
 2355 214c 0900001A 		bne	.L243
 2356              	.L124:
 2357 2150 65CF8DE2 		add	ip, sp, #404
 2358 2154 00509CE8 		ldmia	ip, {ip, lr}	@ phole ldm
 2359 2158 01B08BE2 		add	fp, fp, #1
 2360 215c 0FC08CE2 		add	ip, ip, #15
 2361 2160 04E08EE2 		add	lr, lr, #4
 2362 2164 65005BE3 		cmp	fp, #101
 2363 2168 94C18DE5 		str	ip, [sp, #404]
 2364 216c 98E18DE5 		str	lr, [sp, #408]
 2365 2170 E0FFFF1A 		bne	.L126
 2366 2174 B2F9FFEA 		b	.L203
 2367              	.L243:
 2368 2178 F83C1FE5 		ldr	r3, .L244+60
 2369 217c F82C1FE5 		ldr	r2, .L244+64
 2370 2180 004093E5 		ldr	r4, [r3, #0]
 2371 2184 98319DE5 		ldr	r3, [sp, #408]
 2372 2188 697F8DE2 		add	r7, sp, #420
 2373 218c 546293E5 		ldr	r6, [r3, #596]	@ float
 2374 2190 0150D2E5 		ldrb	r5, [r2, #1]	@ zero_extendqisi2
 2375 2194 0080D2E5 		ldrb	r8, [r2, #0]	@ zero_extendqisi2
 2376 2198 94119DE5 		ldr	r1, [sp, #404]
 2377 219c 1630A0E3 		mov	r3, #22
 2378 21a0 0F20A0E3 		mov	r2, #15
 2379 21a4 050087E2 		add	r0, r7, #5
 2380 21a8 0448A0E1 		mov	r4, r4, asl #16
 2381 21ac 78518DE5 		str	r5, [sp, #376]
 2382 21b0 A831CDE5 		strb	r3, [sp, #424]
 2383 21b4 2448A0E1 		mov	r4, r4, lsr #16
 2384 21b8 FEFFFFEB 		bl	memcpy
 2385 21bc 0C919DE5 		ldr	r9, [sp, #268]
 2386 21c0 46CCA0E1 		mov	ip, r6, asr #24
 2387 21c4 46E8A0E1 		mov	lr, r6, asr #16
 2388 21c8 B8C1CDE5 		strb	ip, [sp, #440]
 2389 21cc 0448A0E1 		mov	r4, r4, asl #16
 2390 21d0 00C0A0E3 		mov	ip, #0
 2391 21d4 0650A0E1 		mov	r5, r6
 2392 21d8 24ACA0E1 		mov	sl, r4, lsr #24
 2393 21dc 0810A0E1 		mov	r1, r8
 2394 21e0 B9E1CDE5 		strb	lr, [sp, #441]
 2395 21e4 BCC1CDE5 		strb	ip, [sp, #444]
 2396 21e8 65E0A0E3 		mov	lr, #101
 2397 21ec 17C08CE2 		add	ip, ip, #23
 2398 21f0 FF3009E2 		and	r3, r9, #255
 2399 21f4 78219DE5 		ldr	r2, [sp, #376]
 2400 21f8 4664A0E1 		mov	r6, r6, asr #8
 2401 21fc 2448A0E1 		mov	r4, r4, lsr #16
 2402 2200 0700A0E1 		mov	r0, r7
 2403 2204 BA61CDE5 		strb	r6, [sp, #442]
 2404 2208 BB51CDE5 		strb	r5, [sp, #443]
 2405 220c BDE1CDE5 		strb	lr, [sp, #445]
 2406 2210 BEA1CDE5 		strb	sl, [sp, #446]
 2407 2214 BF41CDE5 		strb	r4, [sp, #447]
 2408 2218 00C08DE5 		str	ip, [sp, #0]
 2409 221c 88F7FFEB 		bl	mavlink_finalize_message_chan
 2410 2220 0C019DE5 		ldr	r0, [sp, #268]
 2411 2224 0710A0E1 		mov	r1, r7
 2412 2228 DCF7FFEB 		bl	mavlink_send_uart
 2413 222c C7FFFFEA 		b	.L124
 2414              	.L242:
 2415 2230 4314A0E3 		mov	r1, #1124073472
 2416 2234 021581E2 		add	r1, r1, #8388608
 2417 2238 FEFFFFEB 		bl	__addsf3
 2418 223c A0FDFFEA 		b	.L111
 2419              	.L236:
 2420 2240 4314A0E3 		mov	r1, #1124073472
 2421 2244 021581E2 		add	r1, r1, #8388608
 2422 2248 FEFFFFEB 		bl	__addsf3
 2423 224c 66FDFFEA 		b	.L105
 2424              	.L238:
 2425 2250 4314A0E3 		mov	r1, #1124073472
 2426 2254 021581E2 		add	r1, r1, #8388608
 2427 2258 FEFFFFEB 		bl	__addsf3
 2428 225c 74FDFFEA 		b	.L108
 2429              	.L235:
 2430 2260 4314A0E3 		mov	r1, #1124073472
 2431 2264 021581E2 		add	r1, r1, #8388608
 2432 2268 FEFFFFEB 		bl	__addsf3
 2433 226c 55FDFFEA 		b	.L104
 2434              	.L232:
 2435 2270 0500A0E1 		mov	r0, r5
 2436 2274 FEFFFFEB 		bl	__extendsfdf2
 2437 2278 E8208FE2 		adr	r2, .L246
 2438 227c 0C0092E8 		ldmia	r2, {r2-r3}
 2439 2280 FEFFFFEB 		bl	__gtdf2
 2440 2284 000050E3 		cmp	r0, #0
 2441 2288 270000DA 		ble	.L190
 2442 228c 3431D9E5 		ldrb	r3, [r9, #308]	@ zero_extendqisi2
 2443 2290 082053E2 		subs	r2, r3, #8
 2444 2294 0120A013 		movne	r2, #1
 2445 2298 040053E3 		cmp	r3, #4
 2446 229c 08005313 		cmpne	r3, #8
 2447 22a0 1C00000A 		beq	.L193
 2448 22a4 050053E3 		cmp	r3, #5
 2449 22a8 1A00000A 		beq	.L193
 2450 22ac 060053E3 		cmp	r3, #6
 2451 22b0 1800000A 		beq	.L193
 2452 22b4 070053E3 		cmp	r3, #7
 2453 22b8 1600000A 		beq	.L193
 2454 22bc AC209FE5 		ldr	r2, .L246+8
 2455 22c0 0430A0E3 		mov	r3, #4
 2456 22c4 3431C9E5 		strb	r3, [r9, #308]
 2457 22c8 FC2289E5 		str	r2, [r9, #764]	@ float
 2458 22cc A0009FE5 		ldr	r0, .L246+12
 2459 22d0 FEFFFFEB 		bl	debug_message_buffer
 2460 22d4 C7F9FFEA 		b	.L188
 2461              	.L237:
 2462 22d8 4314A0E3 		mov	r1, #1124073472
 2463 22dc 021581E2 		add	r1, r1, #8388608
 2464 22e0 FEFFFFEB 		bl	__addsf3
 2465 22e4 49FDFFEA 		b	.L106
 2466              	.L240:
 2467 22e8 4314A0E3 		mov	r1, #1124073472
 2468 22ec 021581E2 		add	r1, r1, #8388608
 2469 22f0 FEFFFFEB 		bl	__addsf3
 2470 22f4 60FDFFEA 		b	.L110
 2471              	.L239:
 2472 22f8 4314A0E3 		mov	r1, #1124073472
 2473 22fc 021581E2 		add	r1, r1, #8388608
 2474 2300 FEFFFFEB 		bl	__addsf3
 2475 2304 53FDFFEA 		b	.L107
 2476              	.L241:
 2477 2308 4314A0E3 		mov	r1, #1124073472
 2478 230c 021581E2 		add	r1, r1, #8388608
 2479 2310 FEFFFFEB 		bl	__addsf3
 2480 2314 61FDFFEA 		b	.L109
 2481              	.L193:
 2482 2318 000052E3 		cmp	r2, #0
 2483 231c 4C309F15 		ldrne	r3, .L246+8
 2484 2320 50A09F15 		ldrne	sl, .L246+16
 2485 2324 FC328A15 		strne	r3, [sl, #764]	@ float
 2486 2328 B2F9FFEA 		b	.L188
 2487              	.L190:
 2488 232c 44C09FE5 		ldr	ip, .L246+16
 2489 2330 3431DCE5 		ldrb	r3, [ip, #308]	@ zero_extendqisi2
 2490 2334 080053E3 		cmp	r3, #8
 2491 2338 AEF9FF1A 		bne	.L188
 2492 233c 0500A0E1 		mov	r0, r5
 2493 2340 BF14A0E3 		mov	r1, #-1090519040
 2494 2344 FEFFFFEB 		bl	__ltsf2
 2495 2348 000050E3 		cmp	r0, #0
 2496 234c A9F9FFAA 		bge	.L188
 2497 2350 20E09FE5 		ldr	lr, .L246+16
 2498 2354 0030A0E3 		mov	r3, #0
 2499 2358 3431CEE5 		strb	r3, [lr, #308]
 2500 235c 18009FE5 		ldr	r0, .L246+20
 2501 2360 FEFFFFEB 		bl	debug_message_buffer
 2502 2364 A3F9FFEA 		b	.L188
 2503              	.L247:
 2504              		.align	2
 2505              	.L246:
 2506 2368 9999B9BF 		.word	-1078355559
 2507 236c 9A999999 		.word	-1717986918
 2508 2370 CDCC4CBE 		.word	-1102263091
 2509 2374 B4010000 		.word	.LC12
 2510 2378 00000000 		.word	global_data
 2511 237c E0010000 		.word	.LC13
 2513              		.global	__divsf3
 2514              		.align	2
 2515              		.global	communication_receive
 2517              	communication_receive:
 2518              		@ Function supports interworking.
 2519              		@ args = 0, pretend = 0, frame = 740
 2520              		@ frame_needed = 0, uses_anonymous_args = 0
 2521 2380 F04F2DE9 		stmfd	sp!, {r4, r5, r6, r7, r8, r9, sl, fp, lr}
 2522 2384 0000A0E3 		mov	r0, #0
 2523 2388 B9DF4DE2 		sub	sp, sp, #740
 2524 238c 98008DE5 		str	r0, [sp, #152]
 2525 2390 28BE9FE5 		ldr	fp, .L356
 2526 2394 287E9FE5 		ldr	r7, .L356+4
 2527 2398 0060A0E1 		mov	r6, r0
 2528              	.L346:
 2529 239c FEFFFFEB 		bl	uart0_char_available
 2530 23a0 000050E3 		cmp	r0, #0
 2531 23a4 0A00000A 		beq	.L348
 2532              	.L250:
 2533 23a8 FEFFFFEB 		bl	uart0_get_char
 2534 23ac 6141DBE5 		ldrb	r4, [fp, #353]	@ zero_extendqisi2
 2535 23b0 000054E3 		cmp	r4, #0
 2536 23b4 0030A0E1 		mov	r3, r0
 2537 23b8 2A00000A 		beq	.L349
 2538 23bc 020054E3 		cmp	r4, #2
 2539 23c0 F5FFFF1A 		bne	.L346
 2540 23c4 FEFFFFEB 		bl	uart1_transmit
 2541 23c8 FEFFFFEB 		bl	uart0_char_available
 2542 23cc 000050E3 		cmp	r0, #0
 2543 23d0 F4FFFF1A 		bne	.L250
 2544              	.L348:
 2545 23d4 68319BE5 		ldr	r3, [fp, #360]
 2546 23d8 6C219BE5 		ldr	r2, [fp, #364]
 2547 23dc 98A09DE5 		ldr	sl, [sp, #152]
 2548 23e0 063083E0 		add	r3, r3, r6
 2549 23e4 0A2082E0 		add	r2, r2, sl
 2550 23e8 9C008DE5 		str	r0, [sp, #156]
 2551 23ec 68318BE5 		str	r3, [fp, #360]
 2552 23f0 6C218BE5 		str	r2, [fp, #364]
 2553              	.L347:
 2554 23f4 FEFFFFEB 		bl	uart1_char_available
 2555 23f8 000050E3 		cmp	r0, #0
 2556 23fc 0E00000A 		beq	.L350
 2557              	.L282:
 2558 2400 FEFFFFEB 		bl	uart1_get_char
 2559 2404 6241DBE5 		ldrb	r4, [fp, #354]	@ zero_extendqisi2
 2560 2408 000054E3 		cmp	r4, #0
 2561 240c 0050A0E1 		mov	r5, r0
 2562 2410 5000000A 		beq	.L351
 2563 2414 010054E3 		cmp	r4, #1
 2564 2418 8900000A 		beq	.L352
 2565 241c 020054E3 		cmp	r4, #2
 2566 2420 F3FFFF1A 		bne	.L347
 2567 2424 FEFFFFEB 		bl	uart0_transmit
 2568 2428 1700A0E3 		mov	r0, #23
 2569 242c FEFFFFEB 		bl	led_toggle
 2570 2430 FEFFFFEB 		bl	uart1_char_available
 2571 2434 000050E3 		cmp	r0, #0
 2572 2438 F0FFFF1A 		bne	.L282
 2573              	.L350:
 2574 243c 5A2F8BE2 		add	r2, fp, #360
 2575 2440 0C0092E8 		ldmia	r2, {r2, r3}	@ phole ldm
 2576 2444 9CA09DE5 		ldr	sl, [sp, #156]
 2577 2448 98C09DE5 		ldr	ip, [sp, #152]
 2578 244c 0A2082E0 		add	r2, r2, sl
 2579 2450 0C3083E0 		add	r3, r3, ip
 2580 2454 6C318BE5 		str	r3, [fp, #364]
 2581 2458 68218BE5 		str	r2, [fp, #360]
 2582 245c B9DF8DE2 		add	sp, sp, #740
 2583 2460 F04FBDE8 		ldmfd	sp!, {r4, r5, r6, r7, r8, r9, sl, fp, lr}
 2584 2464 1EFF2FE1 		bx	lr
 2585              	.L349:
 2586 2468 585D9FE5 		ldr	r5, .L356+8
 2587 246c 0500A0E1 		mov	r0, r5
 2588 2470 FF6003E2 		and	r6, r3, #255
 2589 2474 E1F6FFEB 		bl	mavlink_parse_state_initialize
 2590 2478 083095E5 		ldr	r3, [r5, #8]
 2591 247c 0240C5E5 		strb	r4, [r5, #2]
 2592 2480 090053E3 		cmp	r3, #9
 2593 2484 03F19F97 		ldrls	pc, [pc, r3, asl #2]
 2594 2488 230000EA 		b	.L253
 2595              		.p2align 2
 2596              	.L263:
 2597 248c 042E0000 		.word	.L254
 2598 2490 042E0000 		.word	.L254
 2599 2494 342E0000 		.word	.L255
 2600 2498 A02E0000 		.word	.L256
 2601 249c 042F0000 		.word	.L257
 2602 24a0 682F0000 		.word	.L258
 2603 24a4 D42F0000 		.word	.L259
 2604 24a8 54300000 		.word	.L260
 2605 24ac B4240000 		.word	.L261
 2606 24b0 E8300000 		.word	.L262
 2607              	.L261:
 2608 24b4 080D9FE5 		ldr	r0, .L356+4
 2609 24b8 0431D0E5 		ldrb	r3, [r0, #260]	@ zero_extendqisi2
 2610 24bc 060053E1 		cmp	r3, r6
 2611 24c0 0930A003 		moveq	r3, #9
 2612 24c4 08308505 		streq	r3, [r5, #8]
 2613 24c8 1300000A 		beq	.L253
 2614 24cc 0430D5E5 		ldrb	r3, [r5, #4]	@ zero_extendqisi2
 2615 24d0 013083E2 		add	r3, r3, #1
 2616 24d4 0430C5E5 		strb	r3, [r5, #4]
 2617 24d8 0020A0E3 		mov	r2, #0
 2618 24dc 0130A0E3 		mov	r3, #1
 2619 24e0 550056E3 		cmp	r6, #85
 2620 24e4 0220C5E5 		strb	r2, [r5, #2]
 2621 24e8 083085E5 		str	r3, [r5, #8]
 2622 24ec 0A00001A 		bne	.L253
 2623 24f0 88309DE5 		ldr	r3, [sp, #136]
 2624 24f4 2338E0E1 		mvn	r3, r3, lsr #16
 2625 24f8 0338E0E1 		mvn	r3, r3, asl #16
 2626 24fc 88308DE5 		str	r3, [sp, #136]
 2627 2500 2314A0E1 		mov	r1, r3, lsr #8
 2628 2504 BC3C9FE5 		ldr	r3, .L356+8
 2629 2508 022082E2 		add	r2, r2, #2
 2630 250c 082083E5 		str	r2, [r3, #8]
 2631 2510 0511C0E5 		strb	r1, [r0, #261]
 2632 2514 88C09DE5 		ldr	ip, [sp, #136]
 2633 2518 04C1C0E5 		strb	ip, [r0, #260]
 2634              	.L253:
 2635 251c 0230D5E5 		ldrb	r3, [r5, #2]	@ zero_extendqisi2
 2636 2520 010053E3 		cmp	r3, #1
 2637 2524 9C1C9FE5 		ldr	r1, .L356+8
 2638 2528 4401000A 		beq	.L353
 2639              	.L264:
 2640 252c 0230D5E5 		ldrb	r3, [r5, #2]	@ zero_extendqisi2
 2641 2530 0000A0E3 		mov	r0, #0
 2642 2534 0460D5E5 		ldrb	r6, [r5, #4]	@ zero_extendqisi2
 2643 2538 0400C5E5 		strb	r0, [r5, #4]
 2644 253c B051D5E1 		ldrh	r5, [r5, #16]
 2645 2540 000053E3 		cmp	r3, #0
 2646 2544 98508DE5 		str	r5, [sp, #152]
 2647 2548 93FFFF0A 		beq	.L346
 2648 254c A0108DE2 		add	r1, sp, #160
 2649 2550 FEFFFFEB 		bl	handle_mavlink_message
 2650 2554 90FFFFEA 		b	.L346
 2651              	.L351:
 2652 2558 6C6C9FE5 		ldr	r6, .L356+12
 2653 255c 0600A0E1 		mov	r0, r6
 2654 2560 A6F6FFEB 		bl	mavlink_parse_state_initialize
 2655 2564 083096E5 		ldr	r3, [r6, #8]
 2656 2568 0240C6E5 		strb	r4, [r6, #2]
 2657 256c FFE005E2 		and	lr, r5, #255
 2658 2570 584C9FE5 		ldr	r4, .L356+16
 2659 2574 090053E3 		cmp	r3, #9
 2660 2578 03F19F97 		ldrls	pc, [pc, r3, asl #2]
 2661 257c 210000EA 		b	.L285
 2662              		.p2align 2
 2663              	.L295:
 2664 2580 B02A0000 		.word	.L286
 2665 2584 B02A0000 		.word	.L286
 2666 2588 E42A0000 		.word	.L287
 2667 258c 582B0000 		.word	.L288
 2668 2590 C42B0000 		.word	.L289
 2669 2594 302C0000 		.word	.L290
 2670 2598 9C2C0000 		.word	.L291
 2671 259c 202D0000 		.word	.L292
 2672 25a0 A8250000 		.word	.L293
 2673 25a4 AC2D0000 		.word	.L294
 2674              	.L293:
 2675 25a8 0431D4E5 		ldrb	r3, [r4, #260]	@ zero_extendqisi2
 2676 25ac 0E0053E1 		cmp	r3, lr
 2677 25b0 0930A003 		moveq	r3, #9
 2678 25b4 08308605 		streq	r3, [r6, #8]
 2679 25b8 1200000A 		beq	.L285
 2680 25bc 0430D6E5 		ldrb	r3, [r6, #4]	@ zero_extendqisi2
 2681 25c0 013083E2 		add	r3, r3, #1
 2682 25c4 0430C6E5 		strb	r3, [r6, #4]
 2683 25c8 0020A0E3 		mov	r2, #0
 2684 25cc 0130A0E3 		mov	r3, #1
 2685 25d0 55005EE3 		cmp	lr, #85
 2686 25d4 0220C6E5 		strb	r2, [r6, #2]
 2687 25d8 083086E5 		str	r3, [r6, #8]
 2688 25dc 0900001A 		bne	.L285
 2689 25e0 70309DE5 		ldr	r3, [sp, #112]
 2690 25e4 2338E0E1 		mvn	r3, r3, lsr #16
 2691 25e8 0338E0E1 		mvn	r3, r3, asl #16
 2692 25ec 70308DE5 		str	r3, [sp, #112]
 2693 25f0 2324A0E1 		mov	r2, r3, lsr #8
 2694 25f4 0230A0E3 		mov	r3, #2
 2695 25f8 083086E5 		str	r3, [r6, #8]
 2696 25fc 0521C4E5 		strb	r2, [r4, #261]
 2697 2600 70A09DE5 		ldr	sl, [sp, #112]
 2698 2604 04A1C4E5 		strb	sl, [r4, #260]
 2699              	.L285:
 2700 2608 0220D6E5 		ldrb	r2, [r6, #2]	@ zero_extendqisi2
 2701 260c 010052E3 		cmp	r2, #1
 2702 2610 1201000A 		beq	.L354
 2703              	.L296:
 2704 2614 0400D6E5 		ldrb	r0, [r6, #4]	@ zero_extendqisi2
 2705 2618 0030A0E3 		mov	r3, #0
 2706 261c 9C008DE5 		str	r0, [sp, #156]
 2707 2620 0430C6E5 		strb	r3, [r6, #4]
 2708 2624 B061D6E1 		ldrh	r6, [r6, #16]
 2709 2628 000052E3 		cmp	r2, #0
 2710 262c 98608DE5 		str	r6, [sp, #152]
 2711 2630 6FFFFF0A 		beq	.L347
 2712 2634 0100A0E3 		mov	r0, #1
 2713 2638 A0108DE2 		add	r1, sp, #160
 2714 263c FEFFFFEB 		bl	handle_mavlink_message
 2715 2640 6BFFFFEA 		b	.L347
 2716              	.L352:
 2717 2644 743B9FE5 		ldr	r3, .L356
 2718 2648 6021D3E5 		ldrb	r2, [r3, #352]	@ zero_extendqisi2
 2719 264c 0A0052E3 		cmp	r2, #10
 2720 2650 0A01000A 		beq	.L355
 2721              	.L313:
 2722 2654 FF0005E2 		and	r0, r5, #255
 2723 2658 FEFFFFEB 		bl	parse_nmea
 2724 265c FF0010E3 		tst	r0, #255
 2725 2660 63FFFF0A 		beq	.L347
 2726 2664 684B9FE5 		ldr	r4, .L356+20
 2727 2668 FEFFFFEB 		bl	parse_gps_msg
 2728 266c 003094E5 		ldr	r3, [r4, #0]
 2729 2670 000053E3 		cmp	r3, #0
 2730 2674 2D31CB05 		streqb	r3, [fp, #301]
 2731 2678 5DFFFF0A 		beq	.L347
 2732 267c 0130A0E3 		mov	r3, #1
 2733 2680 2D31CBE5 		strb	r3, [fp, #301]
 2734 2684 7C039BE5 		ldr	r0, [fp, #892]	@ float
 2735 2688 FEFFFFEB 		bl	__fixunssfsi
 2736 268c 90008DE5 		str	r0, [sp, #144]
 2737 2690 FEFFFFEB 		bl	sys_time_clock_get_unix_time
 2738 2694 0090A0E1 		mov	r9, r0
 2739 2698 000094E5 		ldr	r0, [r4, #0]
 2740 269c 01A0A0E1 		mov	sl, r1
 2741 26a0 FEFFFFEB 		bl	__floatsisf
 2742 26a4 4B14A0E3 		mov	r1, #1258291200
 2743 26a8 621981E2 		add	r1, r1, #1605632
 2744 26ac 5A1D81E2 		add	r1, r1, #5760
 2745 26b0 FEFFFFEB 		bl	__divsf3
 2746 26b4 1C3B9FE5 		ldr	r3, .L356+24
 2747 26b8 0070A0E1 		mov	r7, r0
 2748 26bc 000093E5 		ldr	r0, [r3, #0]
 2749 26c0 FEFFFFEB 		bl	__floatsisf
 2750 26c4 4B14A0E3 		mov	r1, #1258291200
 2751 26c8 621981E2 		add	r1, r1, #1605632
 2752 26cc 5A1D81E2 		add	r1, r1, #5760
 2753 26d0 FEFFFFEB 		bl	__divsf3
 2754 26d4 003B9FE5 		ldr	r3, .L356+28
 2755 26d8 0050A0E1 		mov	r5, r0
 2756 26dc 000093E5 		ldr	r0, [r3, #0]
 2757 26e0 FEFFFFEB 		bl	__floatsisf
 2758 26e4 4214A0E3 		mov	r1, #1107296256
 2759 26e8 321781E2 		add	r1, r1, #13107200
 2760 26ec FEFFFFEB 		bl	__divsf3
 2761 26f0 E83A9FE5 		ldr	r3, .L356+32
 2762 26f4 0060A0E1 		mov	r6, r0
 2763 26f8 B000D3E1 		ldrh	r0, [r3, #0]
 2764 26fc FEFFFFEB 		bl	__floatsisf
 2765 2700 4214A0E3 		mov	r1, #1107296256
 2766 2704 321781E2 		add	r1, r1, #13107200
 2767 2708 FEFFFFEB 		bl	__divsf3
 2768 270c D03A9FE5 		ldr	r3, .L356+36
 2769 2710 0040A0E1 		mov	r4, r0
 2770 2714 F000D3E1 		ldrsh	r0, [r3, #0]
 2771 2718 FEFFFFEB 		bl	__floatsisf
 2772 271c 4114A0E3 		mov	r1, #1090519040
 2773 2720 021681E2 		add	r1, r1, #2097152
 2774 2724 FEFFFFEB 		bl	__divsf3
 2775 2728 0020A0E3 		mov	r2, #0
 2776 272c 2A38A0E1 		mov	r3, sl, lsr #16
 2777 2730 2A1CA0E1 		mov	r1, sl, lsr #24
 2778 2734 3C208DE5 		str	r2, [sp, #60]
 2779 2738 30308DE5 		str	r3, [sp, #48]
 2780 273c 34208DE5 		str	r2, [sp, #52]
 2781 2740 0030A0E3 		mov	r3, #0
 2782 2744 2A24A0E1 		mov	r2, sl, lsr #8
 2783 2748 38108DE5 		str	r1, [sp, #56]
 2784 274c 28208DE5 		str	r2, [sp, #40]
 2785 2750 2C308DE5 		str	r3, [sp, #44]
 2786 2754 8C3A9FE5 		ldr	r3, .L356+40
 2787 2758 90109DE5 		ldr	r1, [sp, #144]
 2788 275c 0030D3E5 		ldrb	r3, [r3, #0]	@ zero_extendqisi2
 2789 2760 FFC001E2 		and	ip, r1, #255
 2790 2764 40308DE5 		str	r3, [sp, #64]
 2791 2768 583A9FE5 		ldr	r3, .L356+8
 2792 276c 0CC18CE0 		add	ip, ip, ip, asl #2
 2793 2770 50708DE5 		str	r7, [sp, #80]	@ float
 2794 2774 0CC183E0 		add	ip, r3, ip, asl #2
 2795 2778 94C08DE5 		str	ip, [sp, #148]
 2796 277c 50C09DE5 		ldr	ip, [sp, #80]
 2797 2780 4CCCA0E1 		mov	ip, ip, asr #24
 2798 2784 24C08DE5 		str	ip, [sp, #36]
 2799 2788 50C09DE5 		ldr	ip, [sp, #80]
 2800 278c 4CC8A0E1 		mov	ip, ip, asr #16
 2801 2790 20C08DE5 		str	ip, [sp, #32]
 2802 2794 50C09DE5 		ldr	ip, [sp, #80]
 2803 2798 4C508DE5 		str	r5, [sp, #76]	@ float
 2804 279c 4CC4A0E1 		mov	ip, ip, asr #8
 2805 27a0 1CC08DE5 		str	ip, [sp, #28]
 2806 27a4 4CC09DE5 		ldr	ip, [sp, #76]
 2807 27a8 4CCCA0E1 		mov	ip, ip, asr #24
 2808 27ac 18C08DE5 		str	ip, [sp, #24]
 2809 27b0 4CC09DE5 		ldr	ip, [sp, #76]
 2810 27b4 4CC8A0E1 		mov	ip, ip, asr #16
 2811 27b8 14C08DE5 		str	ip, [sp, #20]
 2812 27bc 4CC09DE5 		ldr	ip, [sp, #76]
 2813 27c0 48608DE5 		str	r6, [sp, #72]	@ float
 2814 27c4 4CC4A0E1 		mov	ip, ip, asr #8
 2815 27c8 10C08DE5 		str	ip, [sp, #16]
 2816 27cc 48C09DE5 		ldr	ip, [sp, #72]
 2817 27d0 4CCCA0E1 		mov	ip, ip, asr #24
 2818 27d4 0CC08DE5 		str	ip, [sp, #12]
 2819 27d8 48C09DE5 		ldr	ip, [sp, #72]
 2820 27dc 4CC8A0E1 		mov	ip, ip, asr #16
 2821 27e0 08C08DE5 		str	ip, [sp, #8]
 2822 27e4 48C09DE5 		ldr	ip, [sp, #72]
 2823 27e8 44408DE5 		str	r4, [sp, #68]	@ float
 2824 27ec 4CC4A0E1 		mov	ip, ip, asr #8
 2825 27f0 04C08DE5 		str	ip, [sp, #4]
 2826 27f4 44C09DE5 		ldr	ip, [sp, #68]
 2827 27f8 4CCCA0E1 		mov	ip, ip, asr #24
 2828 27fc 00C08DE5 		str	ip, [sp, #0]
 2829 2800 20C0A0E3 		mov	ip, #32
 2830 2804 ACC1CDE5 		strb	ip, [sp, #428]
 2831 2808 38C0DDE5 		ldrb	ip, [sp, #56]	@ zero_extendqisi2
 2832 280c 2918A0E1 		mov	r1, r9, lsr #16
 2833 2810 ADC1CDE5 		strb	ip, [sp, #429]
 2834 2814 30C0DDE5 		ldrb	ip, [sp, #48]	@ zero_extendqisi2
 2835 2818 0A1881E1 		orr	r1, r1, sl, asl #16
 2836 281c AEC1CDE5 		strb	ip, [sp, #430]
 2837 2820 B211CDE5 		strb	r1, [sp, #434]
 2838 2824 28C0DDE5 		ldrb	ip, [sp, #40]	@ zero_extendqisi2
 2839 2828 40109DE5 		ldr	r1, [sp, #64]
 2840 282c 2934A0E1 		mov	r3, r9, lsr #8
 2841 2830 0A3C83E1 		orr	r3, r3, sl, asl #24
 2842 2834 295CA0E1 		mov	r5, r9, lsr #24
 2843 2838 0A5485E1 		orr	r5, r5, sl, asl #8
 2844 283c 24209DE5 		ldr	r2, [sp, #36]
 2845 2840 AFC1CDE5 		strb	ip, [sp, #431]
 2846 2844 B0A1CDE5 		strb	sl, [sp, #432]
 2847 2848 50C09DE5 		ldr	ip, [sp, #80]
 2848 284c 1CA09DE5 		ldr	sl, [sp, #28]
 2849 2850 B331CDE5 		strb	r3, [sp, #435]
 2850 2854 B511CDE5 		strb	r1, [sp, #437]
 2851 2858 20309DE5 		ldr	r3, [sp, #32]
 2852 285c 18109DE5 		ldr	r1, [sp, #24]
 2853 2860 B621CDE5 		strb	r2, [sp, #438]
 2854 2864 B731CDE5 		strb	r3, [sp, #439]
 2855 2868 14209DE5 		ldr	r2, [sp, #20]
 2856 286c 10309DE5 		ldr	r3, [sp, #16]
 2857 2870 B8A1CDE5 		strb	sl, [sp, #440]
 2858 2874 B9C1CDE5 		strb	ip, [sp, #441]
 2859 2878 4CA09DE5 		ldr	sl, [sp, #76]
 2860 287c 0CC09DE5 		ldr	ip, [sp, #12]
 2861 2880 BA11CDE5 		strb	r1, [sp, #442]
 2862 2884 08109DE5 		ldr	r1, [sp, #8]
 2863 2888 B151CDE5 		strb	r5, [sp, #433]
 2864 288c BB21CDE5 		strb	r2, [sp, #443]
 2865 2890 BC31CDE5 		strb	r3, [sp, #444]
 2866 2894 BDA1CDE5 		strb	sl, [sp, #445]
 2867 2898 BEC1CDE5 		strb	ip, [sp, #446]
 2868 289c B491CDE5 		strb	r9, [sp, #436]
 2869 28a0 BF11CDE5 		strb	r1, [sp, #447]
 2870 28a4 04209DE5 		ldr	r2, [sp, #4]
 2871 28a8 48309DE5 		ldr	r3, [sp, #72]
 2872 28ac 00C09DE5 		ldr	ip, [sp, #0]
 2873 28b0 00E0A0E3 		mov	lr, #0
 2874 28b4 30A99FE5 		ldr	sl, .L356+44
 2875 28b8 C021CDE5 		strb	r2, [sp, #448]
 2876 28bc C131CDE5 		strb	r3, [sp, #449]
 2877 28c0 CAC1CDE5 		strb	ip, [sp, #458]
 2878 28c4 94109DE5 		ldr	r1, [sp, #148]
 2879 28c8 C2E1CDE5 		strb	lr, [sp, #450]
 2880 28cc C3E1CDE5 		strb	lr, [sp, #451]
 2881 28d0 C4E1CDE5 		strb	lr, [sp, #452]
 2882 28d4 C5E1CDE5 		strb	lr, [sp, #453]
 2883 28d8 C6E1CDE5 		strb	lr, [sp, #454]
 2884 28dc C7E1CDE5 		strb	lr, [sp, #455]
 2885 28e0 C8E1CDE5 		strb	lr, [sp, #456]
 2886 28e4 C9E1CDE5 		strb	lr, [sp, #457]
 2887 28e8 0180DAE5 		ldrb	r8, [sl, #1]	@ zero_extendqisi2
 2888 28ec 0070DAE5 		ldrb	r7, [sl, #0]	@ zero_extendqisi2
 2889 28f0 44A09DE5 		ldr	sl, [sp, #68]
 2890 28f4 0E60D1E5 		ldrb	r6, [r1, #14]	@ zero_extendqisi2
 2891 28f8 0020A0E1 		mov	r2, r0
 2892 28fc 4A18A0E1 		mov	r1, sl, asr #16
 2893 2900 4A04A0E1 		mov	r0, sl, asr #8
 2894 2904 94A09DE5 		ldr	sl, [sp, #148]
 2895 2908 013086E2 		add	r3, r6, #1
 2896 290c 0E30CAE5 		strb	r3, [sl, #14]
 2897 2910 CC01CDE5 		strb	r0, [sp, #460]
 2898 2914 44009DE5 		ldr	r0, [sp, #68]
 2899 2918 42CCA0E1 		mov	ip, r2, asr #24
 2900 291c 4248A0E1 		mov	r4, r2, asr #16
 2901 2920 4254A0E1 		mov	r5, r2, asr #8
 2902 2924 2530A0E3 		mov	r3, #37
 2903 2928 CEC1CDE5 		strb	ip, [sp, #462]
 2904 292c CD01CDE5 		strb	r0, [sp, #461]
 2905 2930 01C8A0E3 		mov	ip, #65536
 2906 2934 CF41CDE5 		strb	r4, [sp, #463]
 2907 2938 D051CDE5 		strb	r5, [sp, #464]
 2908 293c D121CDE5 		strb	r2, [sp, #465]
 2909 2940 A831CDE5 		strb	r3, [sp, #424]
 2910 2944 AA71CDE5 		strb	r7, [sp, #426]
 2911 2948 AB81CDE5 		strb	r8, [sp, #427]
 2912 294c A961CDE5 		strb	r6, [sp, #425]
 2913 2950 CB11CDE5 		strb	r1, [sp, #459]
 2914 2954 01C04CE2 		sub	ip, ip, #1
 2915 2958 6A1F8DE2 		add	r1, sp, #424
 2916              	.L321:
 2917 295c 0130DEE7 		ldrb	r3, [lr, r1]	@ zero_extendqisi2
 2918 2960 0C3023E0 		eor	r3, r3, ip
 2919 2964 FF3003E2 		and	r3, r3, #255
 2920 2968 033223E0 		eor	r3, r3, r3, asl #4
 2921 296c FF3003E2 		and	r3, r3, #255
 2922 2970 0324A0E1 		mov	r2, r3, asl #8
 2923 2974 2C2482E1 		orr	r2, r2, ip, lsr #8
 2924 2978 232222E0 		eor	r2, r2, r3, lsr #4
 2925 297c 832122E0 		eor	r2, r2, r3, asl #3
 2926 2980 01E08EE2 		add	lr, lr, #1
 2927 2984 0228A0E1 		mov	r2, r2, asl #16
 2928 2988 2A005EE3 		cmp	lr, #42
 2929 298c 22C8A0E1 		mov	ip, r2, lsr #16
 2930 2990 F1FFFF1A 		bne	.L321
 2931 2994 2C34A0E1 		mov	r3, ip, lsr #8
 2932 2998 5510A0E3 		mov	r1, #85
 2933 299c 90009DE5 		ldr	r0, [sp, #144]
 2934 29a0 AD32CDE5 		strb	r3, [sp, #685]
 2935 29a4 ACC2CDE5 		strb	ip, [sp, #684]
 2936 29a8 FEFFFFEB 		bl	comm_send_ch
 2937 29ac 90009DE5 		ldr	r0, [sp, #144]
 2938 29b0 A811DDE5 		ldrb	r1, [sp, #424]	@ zero_extendqisi2
 2939 29b4 FEFFFFEB 		bl	comm_send_ch
 2940 29b8 90009DE5 		ldr	r0, [sp, #144]
 2941 29bc A911DDE5 		ldrb	r1, [sp, #425]	@ zero_extendqisi2
 2942 29c0 FEFFFFEB 		bl	comm_send_ch
 2943 29c4 90009DE5 		ldr	r0, [sp, #144]
 2944 29c8 AA11DDE5 		ldrb	r1, [sp, #426]	@ zero_extendqisi2
 2945 29cc FEFFFFEB 		bl	comm_send_ch
 2946 29d0 90009DE5 		ldr	r0, [sp, #144]
 2947 29d4 AB11DDE5 		ldrb	r1, [sp, #427]	@ zero_extendqisi2
 2948 29d8 FEFFFFEB 		bl	comm_send_ch
 2949 29dc 90009DE5 		ldr	r0, [sp, #144]
 2950 29e0 AC11DDE5 		ldrb	r1, [sp, #428]	@ zero_extendqisi2
 2951 29e4 FEFFFFEB 		bl	comm_send_ch
 2952 29e8 A831DDE5 		ldrb	r3, [sp, #424]	@ zero_extendqisi2
 2953 29ec 000053E3 		cmp	r3, #0
 2954 29f0 0B00000A 		beq	.L323
 2955 29f4 0040A0E3 		mov	r4, #0
 2956              	.L325:
 2957 29f8 B91F8DE2 		add	r1, sp, #740
 2958 29fc 043081E0 		add	r3, r1, r4
 2959 2a00 371153E5 		ldrb	r1, [r3, #-311]	@ zero_extendqisi2
 2960 2a04 90009DE5 		ldr	r0, [sp, #144]
 2961 2a08 FEFFFFEB 		bl	comm_send_ch
 2962 2a0c 013084E2 		add	r3, r4, #1
 2963 2a10 0338A0E1 		mov	r3, r3, asl #16
 2964 2a14 A821DDE5 		ldrb	r2, [sp, #424]	@ zero_extendqisi2
 2965 2a18 2348A0E1 		mov	r4, r3, lsr #16
 2966 2a1c 040052E1 		cmp	r2, r4
 2967 2a20 F4FFFF8A 		bhi	.L325
 2968              	.L323:
 2969 2a24 AC12DDE5 		ldrb	r1, [sp, #684]	@ zero_extendqisi2
 2970 2a28 90009DE5 		ldr	r0, [sp, #144]
 2971 2a2c FEFFFFEB 		bl	comm_send_ch
 2972 2a30 90009DE5 		ldr	r0, [sp, #144]
 2973 2a34 AD12DDE5 		ldrb	r1, [sp, #685]	@ zero_extendqisi2
 2974 2a38 FEFFFFEB 		bl	comm_send_ch
 2975 2a3c 6CFEFFEA 		b	.L347
 2976              	.L353:
 2977 2a40 B021D1E1 		ldrh	r2, [r1, #16]
 2978 2a44 0130D7E5 		ldrb	r3, [r7, #1]	@ zero_extendqisi2
 2979 2a48 000052E3 		cmp	r2, #0
 2980 2a4c 0D30C1E5 		strb	r3, [r1, #13]
 2981 2a50 013082E2 		add	r3, r2, #1
 2982 2a54 B221C101 		streqh	r2, [r1, #18]	@ movhi
 2983 2a58 B031C1E1 		strh	r3, [r1, #16]	@ movhi
 2984 2a5c B2FEFFEA 		b	.L264
 2985              	.L354:
 2986 2a60 B011D6E1 		ldrh	r1, [r6, #16]
 2987 2a64 0130D4E5 		ldrb	r3, [r4, #1]	@ zero_extendqisi2
 2988 2a68 000051E3 		cmp	r1, #0
 2989 2a6c 0D30C6E5 		strb	r3, [r6, #13]
 2990 2a70 013081E2 		add	r3, r1, #1
 2991 2a74 B211C601 		streqh	r1, [r6, #18]	@ movhi
 2992 2a78 B031C6E1 		strh	r3, [r6, #16]	@ movhi
 2993 2a7c E4FEFFEA 		b	.L296
 2994              	.L355:
 2995 2a80 240050E3 		cmp	r0, #36
 2996 2a84 B001000A 		beq	.L332
 2997 2a88 60679FE5 		ldr	r6, .L356+48
 2998 2a8c 0030D6E5 		ldrb	r3, [r6, #0]	@ zero_extendqisi2
 2999 2a90 310053E3 		cmp	r3, #49
 3000 2a94 58779F15 		ldrne	r7, .L356+52
 3001 2a98 AC01000A 		beq	.L315
 3002              	.L317:
 3003 2a9c 0020D6E5 		ldrb	r2, [r6, #0]	@ zero_extendqisi2
 3004 2aa0 013082E2 		add	r3, r2, #1
 3005 2aa4 0030C6E5 		strb	r3, [r6, #0]
 3006 2aa8 0250C7E7 		strb	r5, [r7, r2]
 3007 2aac E8FEFFEA 		b	.L313
 3008              	.L286:
 3009 2ab0 55005EE3 		cmp	lr, #85
 3010 2ab4 0220D615 		ldrneb	r2, [r6, #2]	@ zero_extendqisi2
 3011 2ab8 D5FEFF1A 		bne	.L296
 3012 2abc 74C09DE5 		ldr	ip, [sp, #116]
 3013 2ac0 2CC8E0E1 		mvn	ip, ip, lsr #16
 3014 2ac4 0CC8E0E1 		mvn	ip, ip, asl #16
 3015 2ac8 2C24A0E1 		mov	r2, ip, lsr #8
 3016 2acc 0230A0E3 		mov	r3, #2
 3017 2ad0 74C08DE5 		str	ip, [sp, #116]
 3018 2ad4 083086E5 		str	r3, [r6, #8]
 3019 2ad8 0521C4E5 		strb	r2, [r4, #261]
 3020 2adc 04C1C4E5 		strb	ip, [r4, #260]
 3021 2ae0 C8FEFFEA 		b	.L285
 3022              	.L287:
 3023 2ae4 68009DE5 		ldr	r0, [sp, #104]
 3024 2ae8 0421D4E5 		ldrb	r2, [r4, #260]	@ zero_extendqisi2
 3025 2aec FF30C0E3 		bic	r3, r0, #255
 3026 2af0 0511D4E5 		ldrb	r1, [r4, #261]	@ zero_extendqisi2
 3027 2af4 032082E1 		orr	r2, r2, r3
 3028 2af8 FF3CC2E3 		bic	r3, r2, #65280
 3029 2afc 011483E1 		orr	r1, r3, r1, asl #8
 3030 2b00 0108A0E1 		mov	r0, r1, asl #16
 3031 2b04 20282EE0 		eor	r2, lr, r0, lsr #16
 3032 2b08 FF2002E2 		and	r2, r2, #255
 3033 2b0c 022222E0 		eor	r2, r2, r2, asl #4
 3034 2b10 FF2002E2 		and	r2, r2, #255
 3035 2b14 0234A0E1 		mov	r3, r2, asl #8
 3036 2b18 203C83E1 		orr	r3, r3, r0, lsr #24
 3037 2b1c 223223E0 		eor	r3, r3, r2, lsr #4
 3038 2b20 823123E0 		eor	r3, r3, r2, asl #3
 3039 2b24 2118A0E1 		mov	r1, r1, lsr #16
 3040 2b28 031881E1 		orr	r1, r1, r3, asl #16
 3041 2b2c 6118A0E1 		mov	r1, r1, ror #16
 3042 2b30 0030A0E3 		mov	r3, #0
 3043 2b34 68108DE5 		str	r1, [sp, #104]
 3044 2b38 2124A0E1 		mov	r2, r1, lsr #8
 3045 2b3c 0C30C6E5 		strb	r3, [r6, #12]
 3046 2b40 043083E2 		add	r3, r3, #4
 3047 2b44 0521C4E5 		strb	r2, [r4, #261]
 3048 2b48 083086E5 		str	r3, [r6, #8]
 3049 2b4c 00E0C4E5 		strb	lr, [r4, #0]
 3050 2b50 0411C4E5 		strb	r1, [r4, #260]
 3051 2b54 ABFEFFEA 		b	.L285
 3052              	.L288:
 3053 2b58 60A09DE5 		ldr	sl, [sp, #96]
 3054 2b5c 0421D4E5 		ldrb	r2, [r4, #260]	@ zero_extendqisi2
 3055 2b60 FF30CAE3 		bic	r3, sl, #255
 3056 2b64 0511D4E5 		ldrb	r1, [r4, #261]	@ zero_extendqisi2
 3057 2b68 032082E1 		orr	r2, r2, r3
 3058 2b6c FF3CC2E3 		bic	r3, r2, #65280
 3059 2b70 011483E1 		orr	r1, r3, r1, asl #8
 3060 2b74 0108A0E1 		mov	r0, r1, asl #16
 3061 2b78 20282EE0 		eor	r2, lr, r0, lsr #16
 3062 2b7c FF2002E2 		and	r2, r2, #255
 3063 2b80 022222E0 		eor	r2, r2, r2, asl #4
 3064 2b84 FF2002E2 		and	r2, r2, #255
 3065 2b88 0234A0E1 		mov	r3, r2, asl #8
 3066 2b8c 203C83E1 		orr	r3, r3, r0, lsr #24
 3067 2b90 223223E0 		eor	r3, r3, r2, lsr #4
 3068 2b94 823123E0 		eor	r3, r3, r2, asl #3
 3069 2b98 2118A0E1 		mov	r1, r1, lsr #16
 3070 2b9c 031881E1 		orr	r1, r1, r3, asl #16
 3071 2ba0 6118A0E1 		mov	r1, r1, ror #16
 3072 2ba4 2134A0E1 		mov	r3, r1, lsr #8
 3073 2ba8 0520A0E3 		mov	r2, #5
 3074 2bac 60108DE5 		str	r1, [sp, #96]
 3075 2bb0 0531C4E5 		strb	r3, [r4, #261]
 3076 2bb4 082086E5 		str	r2, [r6, #8]
 3077 2bb8 02E0C4E5 		strb	lr, [r4, #2]
 3078 2bbc 0411C4E5 		strb	r1, [r4, #260]
 3079 2bc0 90FEFFEA 		b	.L285
 3080              	.L289:
 3081 2bc4 64109DE5 		ldr	r1, [sp, #100]
 3082 2bc8 0421D4E5 		ldrb	r2, [r4, #260]	@ zero_extendqisi2
 3083 2bcc FF30C1E3 		bic	r3, r1, #255
 3084 2bd0 032082E1 		orr	r2, r2, r3
 3085 2bd4 0511D4E5 		ldrb	r1, [r4, #261]	@ zero_extendqisi2
 3086 2bd8 FF3CC2E3 		bic	r3, r2, #65280
 3087 2bdc 011483E1 		orr	r1, r3, r1, asl #8
 3088 2be0 0108A0E1 		mov	r0, r1, asl #16
 3089 2be4 20282EE0 		eor	r2, lr, r0, lsr #16
 3090 2be8 FF2002E2 		and	r2, r2, #255
 3091 2bec 022222E0 		eor	r2, r2, r2, asl #4
 3092 2bf0 FF2002E2 		and	r2, r2, #255
 3093 2bf4 0234A0E1 		mov	r3, r2, asl #8
 3094 2bf8 203C83E1 		orr	r3, r3, r0, lsr #24
 3095 2bfc 223223E0 		eor	r3, r3, r2, lsr #4
 3096 2c00 823123E0 		eor	r3, r3, r2, asl #3
 3097 2c04 2118A0E1 		mov	r1, r1, lsr #16
 3098 2c08 031881E1 		orr	r1, r1, r3, asl #16
 3099 2c0c 6118A0E1 		mov	r1, r1, ror #16
 3100 2c10 2134A0E1 		mov	r3, r1, lsr #8
 3101 2c14 0320A0E3 		mov	r2, #3
 3102 2c18 64108DE5 		str	r1, [sp, #100]
 3103 2c1c 0531C4E5 		strb	r3, [r4, #261]
 3104 2c20 082086E5 		str	r2, [r6, #8]
 3105 2c24 01E0C4E5 		strb	lr, [r4, #1]
 3106 2c28 0411C4E5 		strb	r1, [r4, #260]
 3107 2c2c 75FEFFEA 		b	.L285
 3108              	.L290:
 3109 2c30 5CC09DE5 		ldr	ip, [sp, #92]
 3110 2c34 0421D4E5 		ldrb	r2, [r4, #260]	@ zero_extendqisi2
 3111 2c38 FF30CCE3 		bic	r3, ip, #255
 3112 2c3c 0511D4E5 		ldrb	r1, [r4, #261]	@ zero_extendqisi2
 3113 2c40 032082E1 		orr	r2, r2, r3
 3114 2c44 FF3CC2E3 		bic	r3, r2, #65280
 3115 2c48 011483E1 		orr	r1, r3, r1, asl #8
 3116 2c4c 0108A0E1 		mov	r0, r1, asl #16
 3117 2c50 20282EE0 		eor	r2, lr, r0, lsr #16
 3118 2c54 FF2002E2 		and	r2, r2, #255
 3119 2c58 022222E0 		eor	r2, r2, r2, asl #4
 3120 2c5c FF2002E2 		and	r2, r2, #255
 3121 2c60 0234A0E1 		mov	r3, r2, asl #8
 3122 2c64 203C83E1 		orr	r3, r3, r0, lsr #24
 3123 2c68 223223E0 		eor	r3, r3, r2, lsr #4
 3124 2c6c 823123E0 		eor	r3, r3, r2, asl #3
 3125 2c70 2118A0E1 		mov	r1, r1, lsr #16
 3126 2c74 031881E1 		orr	r1, r1, r3, asl #16
 3127 2c78 6118A0E1 		mov	r1, r1, ror #16
 3128 2c7c 2134A0E1 		mov	r3, r1, lsr #8
 3129 2c80 0620A0E3 		mov	r2, #6
 3130 2c84 5C108DE5 		str	r1, [sp, #92]
 3131 2c88 0531C4E5 		strb	r3, [r4, #261]
 3132 2c8c 082086E5 		str	r2, [r6, #8]
 3133 2c90 03E0C4E5 		strb	lr, [r4, #3]
 3134 2c94 0411C4E5 		strb	r1, [r4, #260]
 3135 2c98 5AFEFFEA 		b	.L285
 3136              	.L291:
 3137 2c9c 58009DE5 		ldr	r0, [sp, #88]
 3138 2ca0 0421D4E5 		ldrb	r2, [r4, #260]	@ zero_extendqisi2
 3139 2ca4 FF30C0E3 		bic	r3, r0, #255
 3140 2ca8 0511D4E5 		ldrb	r1, [r4, #261]	@ zero_extendqisi2
 3141 2cac 032082E1 		orr	r2, r2, r3
 3142 2cb0 FF3CC2E3 		bic	r3, r2, #65280
 3143 2cb4 011483E1 		orr	r1, r3, r1, asl #8
 3144 2cb8 0108A0E1 		mov	r0, r1, asl #16
 3145 2cbc 20282EE0 		eor	r2, lr, r0, lsr #16
 3146 2cc0 FF2002E2 		and	r2, r2, #255
 3147 2cc4 022222E0 		eor	r2, r2, r2, asl #4
 3148 2cc8 FF2002E2 		and	r2, r2, #255
 3149 2ccc 0234A0E1 		mov	r3, r2, asl #8
 3150 2cd0 203C83E1 		orr	r3, r3, r0, lsr #24
 3151 2cd4 58108DE5 		str	r1, [sp, #88]
 3152 2cd8 223223E0 		eor	r3, r3, r2, lsr #4
 3153 2cdc 823123E0 		eor	r3, r3, r2, asl #3
 3154 2ce0 2118A0E1 		mov	r1, r1, lsr #16
 3155 2ce4 0020D4E5 		ldrb	r2, [r4, #0]	@ zero_extendqisi2
 3156 2ce8 031881E1 		orr	r1, r1, r3, asl #16
 3157 2cec 6118A0E1 		mov	r1, r1, ror #16
 3158 2cf0 2134A0E1 		mov	r3, r1, lsr #8
 3159 2cf4 000052E3 		cmp	r2, #0
 3160 2cf8 58108DE5 		str	r1, [sp, #88]
 3161 2cfc 0531C4E5 		strb	r3, [r4, #261]
 3162 2d00 0730A013 		movne	r3, #7
 3163 2d04 04E0C4E5 		strb	lr, [r4, #4]
 3164 2d08 0411C4E5 		strb	r1, [r4, #260]
 3165 2d0c 08308615 		strne	r3, [r6, #8]
 3166 2d10 3CFEFF1A 		bne	.L285
 3167              	.L345:
 3168 2d14 0830A0E3 		mov	r3, #8
 3169 2d18 083086E5 		str	r3, [r6, #8]
 3170 2d1c 39FEFFEA 		b	.L285
 3171              	.L292:
 3172 2d20 54109DE5 		ldr	r1, [sp, #84]
 3173 2d24 0421D4E5 		ldrb	r2, [r4, #260]	@ zero_extendqisi2
 3174 2d28 FF30C1E3 		bic	r3, r1, #255
 3175 2d2c 032082E1 		orr	r2, r2, r3
 3176 2d30 0511D4E5 		ldrb	r1, [r4, #261]	@ zero_extendqisi2
 3177 2d34 FF3CC2E3 		bic	r3, r2, #65280
 3178 2d38 011483E1 		orr	r1, r3, r1, asl #8
 3179 2d3c 01C8A0E1 		mov	ip, r1, asl #16
 3180 2d40 2C282EE0 		eor	r2, lr, ip, lsr #16
 3181 2d44 54108DE5 		str	r1, [sp, #84]
 3182 2d48 FF2002E2 		and	r2, r2, #255
 3183 2d4c 022222E0 		eor	r2, r2, r2, asl #4
 3184 2d50 0C00D6E5 		ldrb	r0, [r6, #12]	@ zero_extendqisi2
 3185 2d54 FF2002E2 		and	r2, r2, #255
 3186 2d58 0234A0E1 		mov	r3, r2, asl #8
 3187 2d5c 011080E2 		add	r1, r0, #1
 3188 2d60 2C3C83E1 		orr	r3, r3, ip, lsr #24
 3189 2d64 0C10C6E5 		strb	r1, [r6, #12]
 3190 2d68 223223E0 		eor	r3, r3, r2, lsr #4
 3191 2d6c 823123E0 		eor	r3, r3, r2, asl #3
 3192 2d70 54209DE5 		ldr	r2, [sp, #84]
 3193 2d74 2218A0E1 		mov	r1, r2, lsr #16
 3194 2d78 031881E1 		orr	r1, r1, r3, asl #16
 3195 2d7c 0C20D6E5 		ldrb	r2, [r6, #12]	@ zero_extendqisi2
 3196 2d80 0030D4E5 		ldrb	r3, [r4, #0]	@ zero_extendqisi2
 3197 2d84 6118A0E1 		mov	r1, r1, ror #16
 3198 2d88 030052E1 		cmp	r2, r3
 3199 2d8c 040080E0 		add	r0, r0, r4
 3200 2d90 2134A0E1 		mov	r3, r1, lsr #8
 3201 2d94 54108DE5 		str	r1, [sp, #84]
 3202 2d98 05E0C0E5 		strb	lr, [r0, #5]
 3203 2d9c 0531C4E5 		strb	r3, [r4, #261]
 3204 2da0 0411C4E5 		strb	r1, [r4, #260]
 3205 2da4 17FEFF1A 		bne	.L285
 3206 2da8 D9FFFFEA 		b	.L345
 3207              	.L294:
 3208 2dac 0531D4E5 		ldrb	r3, [r4, #261]	@ zero_extendqisi2
 3209 2db0 0E0053E1 		cmp	r3, lr
 3210 2db4 F100000A 		beq	.L304
 3211 2db8 0430D6E5 		ldrb	r3, [r6, #4]	@ zero_extendqisi2
 3212 2dbc 013083E2 		add	r3, r3, #1
 3213 2dc0 0430C6E5 		strb	r3, [r6, #4]
 3214 2dc4 0020A0E3 		mov	r2, #0
 3215 2dc8 0130A0E3 		mov	r3, #1
 3216 2dcc 55005EE3 		cmp	lr, #85
 3217 2dd0 0220C6E5 		strb	r2, [r6, #2]
 3218 2dd4 083086E5 		str	r3, [r6, #8]
 3219 2dd8 0AFEFF1A 		bne	.L285
 3220 2ddc 6CC09DE5 		ldr	ip, [sp, #108]
 3221 2de0 2CC8E0E1 		mvn	ip, ip, lsr #16
 3222 2de4 0CC8E0E1 		mvn	ip, ip, asl #16
 3223 2de8 2C24A0E1 		mov	r2, ip, lsr #8
 3224 2dec 033083E0 		add	r3, r3, r3
 3225 2df0 6CC08DE5 		str	ip, [sp, #108]
 3226 2df4 083086E5 		str	r3, [r6, #8]
 3227 2df8 0521C4E5 		strb	r2, [r4, #261]
 3228 2dfc 04C1C4E5 		strb	ip, [r4, #260]
 3229 2e00 00FEFFEA 		b	.L285
 3230              	.L254:
 3231 2e04 550056E3 		cmp	r6, #85
 3232 2e08 C7FDFF1A 		bne	.L264
 3233 2e0c 8C109DE5 		ldr	r1, [sp, #140]
 3234 2e10 2118E0E1 		mvn	r1, r1, lsr #16
 3235 2e14 0118E0E1 		mvn	r1, r1, asl #16
 3236 2e18 2124A0E1 		mov	r2, r1, lsr #8
 3237 2e1c 0230A0E3 		mov	r3, #2
 3238 2e20 8C108DE5 		str	r1, [sp, #140]
 3239 2e24 083085E5 		str	r3, [r5, #8]
 3240 2e28 0521C7E5 		strb	r2, [r7, #261]
 3241 2e2c 0411C7E5 		strb	r1, [r7, #260]
 3242 2e30 B9FDFFEA 		b	.L253
 3243              	.L255:
 3244 2e34 0421D7E5 		ldrb	r2, [r7, #260]	@ zero_extendqisi2
 3245 2e38 FF30C8E3 		bic	r3, r8, #255
 3246 2e3c 0511D7E5 		ldrb	r1, [r7, #261]	@ zero_extendqisi2
 3247 2e40 038082E1 		orr	r8, r2, r3
 3248 2e44 FF3CC8E3 		bic	r3, r8, #65280
 3249 2e48 018483E1 		orr	r8, r3, r1, asl #8
 3250 2e4c 0808A0E1 		mov	r0, r8, asl #16
 3251 2e50 202826E0 		eor	r2, r6, r0, lsr #16
 3252 2e54 FF2002E2 		and	r2, r2, #255
 3253 2e58 022222E0 		eor	r2, r2, r2, asl #4
 3254 2e5c FF2002E2 		and	r2, r2, #255
 3255 2e60 0234A0E1 		mov	r3, r2, asl #8
 3256 2e64 203C83E1 		orr	r3, r3, r0, lsr #24
 3257 2e68 223223E0 		eor	r3, r3, r2, lsr #4
 3258 2e6c 823123E0 		eor	r3, r3, r2, asl #3
 3259 2e70 2818A0E1 		mov	r1, r8, lsr #16
 3260 2e74 031881E1 		orr	r1, r1, r3, asl #16
 3261 2e78 6188A0E1 		mov	r8, r1, ror #16
 3262 2e7c 0030A0E3 		mov	r3, #0
 3263 2e80 0C30C5E5 		strb	r3, [r5, #12]
 3264 2e84 2824A0E1 		mov	r2, r8, lsr #8
 3265 2e88 043083E2 		add	r3, r3, #4
 3266 2e8c 0521C7E5 		strb	r2, [r7, #261]
 3267 2e90 083085E5 		str	r3, [r5, #8]
 3268 2e94 0060C7E5 		strb	r6, [r7, #0]
 3269 2e98 0481C7E5 		strb	r8, [r7, #260]
 3270 2e9c 9EFDFFEA 		b	.L253
 3271              	.L256:
 3272 2ea0 0421D7E5 		ldrb	r2, [r7, #260]	@ zero_extendqisi2
 3273 2ea4 FF30CAE3 		bic	r3, sl, #255
 3274 2ea8 0511D7E5 		ldrb	r1, [r7, #261]	@ zero_extendqisi2
 3275 2eac 03A082E1 		orr	sl, r2, r3
 3276 2eb0 FF3CCAE3 		bic	r3, sl, #65280
 3277 2eb4 01A483E1 		orr	sl, r3, r1, asl #8
 3278 2eb8 0A08A0E1 		mov	r0, sl, asl #16
 3279 2ebc 202826E0 		eor	r2, r6, r0, lsr #16
 3280 2ec0 FF2002E2 		and	r2, r2, #255
 3281 2ec4 022222E0 		eor	r2, r2, r2, asl #4
 3282 2ec8 FF2002E2 		and	r2, r2, #255
 3283 2ecc 0234A0E1 		mov	r3, r2, asl #8
 3284 2ed0 203C83E1 		orr	r3, r3, r0, lsr #24
 3285 2ed4 223223E0 		eor	r3, r3, r2, lsr #4
 3286 2ed8 823123E0 		eor	r3, r3, r2, asl #3
 3287 2edc 2A18A0E1 		mov	r1, sl, lsr #16
 3288 2ee0 031881E1 		orr	r1, r1, r3, asl #16
 3289 2ee4 61A8A0E1 		mov	sl, r1, ror #16
 3290 2ee8 2A34A0E1 		mov	r3, sl, lsr #8
 3291 2eec 0520A0E3 		mov	r2, #5
 3292 2ef0 0531C7E5 		strb	r3, [r7, #261]
 3293 2ef4 082085E5 		str	r2, [r5, #8]
 3294 2ef8 0260C7E5 		strb	r6, [r7, #2]
 3295 2efc 04A1C7E5 		strb	sl, [r7, #260]
 3296 2f00 85FDFFEA 		b	.L253
 3297              	.L257:
 3298 2f04 0421D7E5 		ldrb	r2, [r7, #260]	@ zero_extendqisi2
 3299 2f08 FF30C9E3 		bic	r3, r9, #255
 3300 2f0c 0511D7E5 		ldrb	r1, [r7, #261]	@ zero_extendqisi2
 3301 2f10 039082E1 		orr	r9, r2, r3
 3302 2f14 FF3CC9E3 		bic	r3, r9, #65280
 3303 2f18 019483E1 		orr	r9, r3, r1, asl #8
 3304 2f1c 0908A0E1 		mov	r0, r9, asl #16
 3305 2f20 202826E0 		eor	r2, r6, r0, lsr #16
 3306 2f24 FF2002E2 		and	r2, r2, #255
 3307 2f28 022222E0 		eor	r2, r2, r2, asl #4
 3308 2f2c FF2002E2 		and	r2, r2, #255
 3309 2f30 0234A0E1 		mov	r3, r2, asl #8
 3310 2f34 203C83E1 		orr	r3, r3, r0, lsr #24
 3311 2f38 223223E0 		eor	r3, r3, r2, lsr #4
 3312 2f3c 823123E0 		eor	r3, r3, r2, asl #3
 3313 2f40 2918A0E1 		mov	r1, r9, lsr #16
 3314 2f44 031881E1 		orr	r1, r1, r3, asl #16
 3315 2f48 6198A0E1 		mov	r9, r1, ror #16
 3316 2f4c 2934A0E1 		mov	r3, r9, lsr #8
 3317 2f50 0320A0E3 		mov	r2, #3
 3318 2f54 0531C7E5 		strb	r3, [r7, #261]
 3319 2f58 082085E5 		str	r2, [r5, #8]
 3320 2f5c 0160C7E5 		strb	r6, [r7, #1]
 3321 2f60 0491C7E5 		strb	r9, [r7, #260]
 3322 2f64 6CFDFFEA 		b	.L253
 3323              	.L258:
 3324 2f68 80C09DE5 		ldr	ip, [sp, #128]
 3325 2f6c 0421D7E5 		ldrb	r2, [r7, #260]	@ zero_extendqisi2
 3326 2f70 FF30CCE3 		bic	r3, ip, #255
 3327 2f74 0511D7E5 		ldrb	r1, [r7, #261]	@ zero_extendqisi2
 3328 2f78 032082E1 		orr	r2, r2, r3
 3329 2f7c FF3CC2E3 		bic	r3, r2, #65280
 3330 2f80 011483E1 		orr	r1, r3, r1, asl #8
 3331 2f84 0108A0E1 		mov	r0, r1, asl #16
 3332 2f88 202826E0 		eor	r2, r6, r0, lsr #16
 3333 2f8c FF2002E2 		and	r2, r2, #255
 3334 2f90 022222E0 		eor	r2, r2, r2, asl #4
 3335 2f94 FF2002E2 		and	r2, r2, #255
 3336 2f98 0234A0E1 		mov	r3, r2, asl #8
 3337 2f9c 203C83E1 		orr	r3, r3, r0, lsr #24
 3338 2fa0 223223E0 		eor	r3, r3, r2, lsr #4
 3339 2fa4 823123E0 		eor	r3, r3, r2, asl #3
 3340 2fa8 2118A0E1 		mov	r1, r1, lsr #16
 3341 2fac 031881E1 		orr	r1, r1, r3, asl #16
 3342 2fb0 6118A0E1 		mov	r1, r1, ror #16
 3343 2fb4 2134A0E1 		mov	r3, r1, lsr #8
 3344 2fb8 0620A0E3 		mov	r2, #6
 3345 2fbc 80108DE5 		str	r1, [sp, #128]
 3346 2fc0 0531C7E5 		strb	r3, [r7, #261]
 3347 2fc4 082085E5 		str	r2, [r5, #8]
 3348 2fc8 0360C7E5 		strb	r6, [r7, #3]
 3349 2fcc 0411C7E5 		strb	r1, [r7, #260]
 3350 2fd0 51FDFFEA 		b	.L253
 3351              	.L259:
 3352 2fd4 7C009DE5 		ldr	r0, [sp, #124]
 3353 2fd8 0421D7E5 		ldrb	r2, [r7, #260]	@ zero_extendqisi2
 3354 2fdc FF30C0E3 		bic	r3, r0, #255
 3355 2fe0 0511D7E5 		ldrb	r1, [r7, #261]	@ zero_extendqisi2
 3356 2fe4 032082E1 		orr	r2, r2, r3
 3357 2fe8 FF3CC2E3 		bic	r3, r2, #65280
 3358 2fec 011483E1 		orr	r1, r3, r1, asl #8
 3359 2ff0 0108A0E1 		mov	r0, r1, asl #16
 3360 2ff4 202826E0 		eor	r2, r6, r0, lsr #16
 3361 2ff8 FF2002E2 		and	r2, r2, #255
 3362 2ffc 022222E0 		eor	r2, r2, r2, asl #4
 3363 3000 FF2002E2 		and	r2, r2, #255
 3364 3004 0234A0E1 		mov	r3, r2, asl #8
 3365 3008 203C83E1 		orr	r3, r3, r0, lsr #24
 3366 300c 7C108DE5 		str	r1, [sp, #124]
 3367 3010 223223E0 		eor	r3, r3, r2, lsr #4
 3368 3014 823123E0 		eor	r3, r3, r2, asl #3
 3369 3018 2118A0E1 		mov	r1, r1, lsr #16
 3370 301c 0020D7E5 		ldrb	r2, [r7, #0]	@ zero_extendqisi2
 3371 3020 031881E1 		orr	r1, r1, r3, asl #16
 3372 3024 6118A0E1 		mov	r1, r1, ror #16
 3373 3028 2134A0E1 		mov	r3, r1, lsr #8
 3374 302c 000052E3 		cmp	r2, #0
 3375 3030 7C108DE5 		str	r1, [sp, #124]
 3376 3034 0531C7E5 		strb	r3, [r7, #261]
 3377 3038 0830A003 		moveq	r3, #8
 3378 303c 0730A013 		movne	r3, #7
 3379 3040 0460C7E5 		strb	r6, [r7, #4]
 3380 3044 0411C7E5 		strb	r1, [r7, #260]
 3381 3048 08308505 		streq	r3, [r5, #8]
 3382 304c 08308515 		strne	r3, [r5, #8]
 3383 3050 31FDFFEA 		b	.L253
 3384              	.L260:
 3385 3054 78109DE5 		ldr	r1, [sp, #120]
 3386 3058 0421D7E5 		ldrb	r2, [r7, #260]	@ zero_extendqisi2
 3387 305c FF30C1E3 		bic	r3, r1, #255
 3388 3060 032082E1 		orr	r2, r2, r3
 3389 3064 0511D7E5 		ldrb	r1, [r7, #261]	@ zero_extendqisi2
 3390 3068 FF3CC2E3 		bic	r3, r2, #65280
 3391 306c 011483E1 		orr	r1, r3, r1, asl #8
 3392 3070 01C8A0E1 		mov	ip, r1, asl #16
 3393 3074 2C2826E0 		eor	r2, r6, ip, lsr #16
 3394 3078 78108DE5 		str	r1, [sp, #120]
 3395 307c FF2002E2 		and	r2, r2, #255
 3396 3080 022222E0 		eor	r2, r2, r2, asl #4
 3397 3084 0C00D5E5 		ldrb	r0, [r5, #12]	@ zero_extendqisi2
 3398 3088 FF2002E2 		and	r2, r2, #255
 3399 308c 0234A0E1 		mov	r3, r2, asl #8
 3400 3090 011080E2 		add	r1, r0, #1
 3401 3094 2C3C83E1 		orr	r3, r3, ip, lsr #24
 3402 3098 0C10C5E5 		strb	r1, [r5, #12]
 3403 309c 223223E0 		eor	r3, r3, r2, lsr #4
 3404 30a0 823123E0 		eor	r3, r3, r2, asl #3
 3405 30a4 78209DE5 		ldr	r2, [sp, #120]
 3406 30a8 2218A0E1 		mov	r1, r2, lsr #16
 3407 30ac 031881E1 		orr	r1, r1, r3, asl #16
 3408 30b0 0C20D5E5 		ldrb	r2, [r5, #12]	@ zero_extendqisi2
 3409 30b4 0030D7E5 		ldrb	r3, [r7, #0]	@ zero_extendqisi2
 3410 30b8 6118A0E1 		mov	r1, r1, ror #16
 3411 30bc 030052E1 		cmp	r2, r3
 3412 30c0 2134A0E1 		mov	r3, r1, lsr #8
 3413 30c4 78108DE5 		str	r1, [sp, #120]
 3414 30c8 0531C7E5 		strb	r3, [r7, #261]
 3415 30cc F4309F05 		ldreq	r3, .L356+8
 3416 30d0 070080E0 		add	r0, r0, r7
 3417 30d4 0820A003 		moveq	r2, #8
 3418 30d8 0560C0E5 		strb	r6, [r0, #5]
 3419 30dc 0411C7E5 		strb	r1, [r7, #260]
 3420 30e0 08208305 		streq	r2, [r3, #8]
 3421 30e4 0CFDFFEA 		b	.L253
 3422              	.L262:
 3423 30e8 D4009FE5 		ldr	r0, .L356+4
 3424 30ec 0531D0E5 		ldrb	r3, [r0, #261]	@ zero_extendqisi2
 3425 30f0 060053E1 		cmp	r3, r6
 3426 30f4 2900000A 		beq	.L272
 3427 30f8 0430D5E5 		ldrb	r3, [r5, #4]	@ zero_extendqisi2
 3428 30fc 013083E2 		add	r3, r3, #1
 3429 3100 0430C5E5 		strb	r3, [r5, #4]
 3430 3104 0020A0E3 		mov	r2, #0
 3431 3108 0130A0E3 		mov	r3, #1
 3432 310c 550056E3 		cmp	r6, #85
 3433 3110 0220C5E5 		strb	r2, [r5, #2]
 3434 3114 083085E5 		str	r3, [r5, #8]
 3435 3118 FFFCFF1A 		bne	.L253
 3436 311c 84109DE5 		ldr	r1, [sp, #132]
 3437 3120 2118E0E1 		mvn	r1, r1, lsr #16
 3438 3124 0118E0E1 		mvn	r1, r1, asl #16
 3439 3128 98309FE5 		ldr	r3, .L356+8
 3440 312c 84108DE5 		str	r1, [sp, #132]
 3441 3130 022082E2 		add	r2, r2, #2
 3442 3134 2114A0E1 		mov	r1, r1, lsr #8
 3443 3138 082083E5 		str	r2, [r3, #8]
 3444 313c 0511C0E5 		strb	r1, [r0, #261]
 3445 3140 84209DE5 		ldr	r2, [sp, #132]
 3446 3144 0421C0E5 		strb	r2, [r0, #260]
 3447 3148 F3FCFFEA 		b	.L253
 3448              	.L332:
 3449 314c 9C609FE5 		ldr	r6, .L356+48
 3450              	.L315:
 3451 3150 9C709FE5 		ldr	r7, .L356+52
 3452 3154 2B4E8DE2 		add	r4, sp, #688
 3453 3158 024084E2 		add	r4, r4, #2
 3454 315c 0030A0E3 		mov	r3, #0
 3455 3160 0400A0E1 		mov	r0, r4
 3456 3164 0710A0E1 		mov	r1, r7
 3457 3168 3220A0E3 		mov	r2, #50
 3458 316c 0030C6E5 		strb	r3, [r6, #0]
 3459 3170 FEFFFFEB 		bl	strncpy
 3460 3174 0400A0E1 		mov	r0, r4
 3461 3178 FEFFFFEB 		bl	debug_message_buffer
 3462 317c 46FEFFEA 		b	.L317
 3463              	.L304:
 3464 3180 0130A0E3 		mov	r3, #1
 3465 3184 A0008DE2 		add	r0, sp, #160
 3466 3188 40109FE5 		ldr	r1, .L356+16
 3467 318c 422FA0E3 		mov	r2, #264
 3468 3190 083086E5 		str	r3, [r6, #8]
 3469 3194 0230C6E5 		strb	r3, [r6, #2]
 3470 3198 FEFFFFEB 		bl	memcpy
 3471 319c 19FDFFEA 		b	.L285
 3472              	.L272:
 3473 31a0 0130A0E3 		mov	r3, #1
 3474 31a4 0010A0E1 		mov	r1, r0
 3475 31a8 422FA0E3 		mov	r2, #264
 3476 31ac A0008DE2 		add	r0, sp, #160
 3477 31b0 083085E5 		str	r3, [r5, #8]
 3478 31b4 0230C5E5 		strb	r3, [r5, #2]
 3479 31b8 FEFFFFEB 		bl	memcpy
 3480 31bc D6FCFFEA 		b	.L253
 3481              	.L357:
 3482              		.align	2
 3483              	.L356:
 3484 31c0 00000000 		.word	global_data
 3485 31c4 34000000 		.word	m_mavlink_message.2151
 3486 31c8 54040000 		.word	m_mavlink_status.2036
 3487 31cc 68040000 		.word	m_mavlink_status.2036+20
 3488 31d0 3C010000 		.word	m_mavlink_message.2151+264
 3489 31d4 00000000 		.word	gps_lat
 3490 31d8 00000000 		.word	gps_lon
 3491 31dc 00000000 		.word	gps_alt
 3492 31e0 00000000 		.word	gps_gspeed
 3493 31e4 00000000 		.word	gps_course
 3494 31e8 00000000 		.word	gps_mode
 3495 31ec 00000000 		.word	mavlink_system
 3496 31f0 32000000 		.word	gps_i.19433
 3497 31f4 00000000 		.word	gps_chars.19434
 3499              		.align	2
 3500              		.global	communication_queued_send
 3502              	communication_queued_send:
 3503              		@ Function supports interworking.
 3504              		@ args = 0, pretend = 0, frame = 264
 3505              		@ frame_needed = 0, uses_anonymous_args = 0
 3506 31f8 F04F2DE9 		stmfd	sp!, {r4, r5, r6, r7, r8, r9, sl, fp, lr}
 3507 31fc 44239FE5 		ldr	r2, .L379
 3508 3200 006092E5 		ldr	r6, [r2, #0]
 3509 3204 640056E3 		cmp	r6, #100
 3510 3208 42DF4DE2 		sub	sp, sp, #264
 3511 320c 0200009A 		bls	.L378
 3512              	.L371:
 3513 3210 42DF8DE2 		add	sp, sp, #264
 3514 3214 F04FBDE8 		ldmfd	sp!, {r4, r5, r6, r7, r8, r9, sl, fp, lr}
 3515 3218 1EFF2FE1 		bx	lr
 3516              	.L378:
 3517 321c 28239FE5 		ldr	r2, .L379+4
 3518 3220 28339FE5 		ldr	r3, .L379+8
 3519 3224 06C182E0 		add	ip, r2, r6, asl #2
 3520 3228 24B39FE5 		ldr	fp, .L379+12
 3521 322c 061266E0 		rsb	r1, r6, r6, asl #4
 3522 3230 20539FE5 		ldr	r5, .L379+16
 3523 3234 54429CE5 		ldr	r4, [ip, #596]	@ float
 3524 3238 031081E0 		add	r1, r1, r3
 3525 323c 0F20A0E3 		mov	r2, #15
 3526 3240 1630A0E3 		mov	r3, #22
 3527 3244 05008DE2 		add	r0, sp, #5
 3528 3248 0430CDE5 		strb	r3, [sp, #4]
 3529 324c 0080DBE5 		ldrb	r8, [fp, #0]	@ zero_extendqisi2
 3530 3250 01A0DBE5 		ldrb	sl, [fp, #1]	@ zero_extendqisi2
 3531 3254 FEFFFFEB 		bl	memcpy
 3532 3258 0E70D5E5 		ldrb	r7, [r5, #14]	@ zero_extendqisi2
 3533 325c 0420A0E1 		mov	r2, r4
 3534 3260 423CA0E1 		mov	r3, r2, asr #24
 3535 3264 01E087E2 		add	lr, r7, #1
 3536 3268 0EE0C5E5 		strb	lr, [r5, #14]
 3537 326c 0618A0E1 		mov	r1, r6, asl #16
 3538 3270 1430CDE5 		strb	r3, [sp, #20]
 3539 3274 6530A0E3 		mov	r3, #101
 3540 3278 214CA0E1 		mov	r4, r1, lsr #24
 3541 327c 42C4A0E1 		mov	ip, r2, asr #8
 3542 3280 0060A0E3 		mov	r6, #0
 3543 3284 4208A0E1 		mov	r0, r2, asr #16
 3544 3288 2118A0E1 		mov	r1, r1, lsr #16
 3545 328c 1930CDE5 		strb	r3, [sp, #25]
 3546 3290 4E3043E2 		sub	r3, r3, #78
 3547 3294 16C0CDE5 		strb	ip, [sp, #22]
 3548 3298 1500CDE5 		strb	r0, [sp, #21]
 3549 329c 01C8A0E3 		mov	ip, #65536
 3550 32a0 1720CDE5 		strb	r2, [sp, #23]
 3551 32a4 1A40CDE5 		strb	r4, [sp, #26]
 3552 32a8 1B10CDE5 		strb	r1, [sp, #27]
 3553 32ac 0030CDE5 		strb	r3, [sp, #0]
 3554 32b0 0280CDE5 		strb	r8, [sp, #2]
 3555 32b4 03A0CDE5 		strb	sl, [sp, #3]
 3556 32b8 1860CDE5 		strb	r6, [sp, #24]
 3557 32bc 0170CDE5 		strb	r7, [sp, #1]
 3558 32c0 0D90A0E1 		mov	r9, sp
 3559 32c4 01C04CE2 		sub	ip, ip, #1
 3560              	.L361:
 3561 32c8 0930D6E7 		ldrb	r3, [r6, r9]	@ zero_extendqisi2
 3562 32cc 0C3023E0 		eor	r3, r3, ip
 3563 32d0 FF3003E2 		and	r3, r3, #255
 3564 32d4 033223E0 		eor	r3, r3, r3, asl #4
 3565 32d8 FF3003E2 		and	r3, r3, #255
 3566 32dc 0324A0E1 		mov	r2, r3, asl #8
 3567 32e0 2C2482E1 		orr	r2, r2, ip, lsr #8
 3568 32e4 232222E0 		eor	r2, r2, r3, lsr #4
 3569 32e8 832122E0 		eor	r2, r2, r3, asl #3
 3570 32ec 016086E2 		add	r6, r6, #1
 3571 32f0 0228A0E1 		mov	r2, r2, asl #16
 3572 32f4 1C0056E3 		cmp	r6, #28
 3573 32f8 22C8A0E1 		mov	ip, r2, lsr #16
 3574 32fc F1FFFF1A 		bne	.L361
 3575 3300 2C34A0E1 		mov	r3, ip, lsr #8
 3576 3304 0000A0E3 		mov	r0, #0
 3577 3308 5510A0E3 		mov	r1, #85
 3578 330c 0531CDE5 		strb	r3, [sp, #261]
 3579 3310 04C1CDE5 		strb	ip, [sp, #260]
 3580 3314 FEFFFFEB 		bl	comm_send_ch
 3581 3318 0000A0E3 		mov	r0, #0
 3582 331c 0010DDE5 		ldrb	r1, [sp, #0]	@ zero_extendqisi2
 3583 3320 FEFFFFEB 		bl	comm_send_ch
 3584 3324 0000A0E3 		mov	r0, #0
 3585 3328 0110DDE5 		ldrb	r1, [sp, #1]	@ zero_extendqisi2
 3586 332c FEFFFFEB 		bl	comm_send_ch
 3587 3330 0000A0E3 		mov	r0, #0
 3588 3334 0210DDE5 		ldrb	r1, [sp, #2]	@ zero_extendqisi2
 3589 3338 FEFFFFEB 		bl	comm_send_ch
 3590 333c 0000A0E3 		mov	r0, #0
 3591 3340 0310DDE5 		ldrb	r1, [sp, #3]	@ zero_extendqisi2
 3592 3344 FEFFFFEB 		bl	comm_send_ch
 3593 3348 0000A0E3 		mov	r0, #0
 3594 334c 0410DDE5 		ldrb	r1, [sp, #4]	@ zero_extendqisi2
 3595 3350 FEFFFFEB 		bl	comm_send_ch
 3596 3354 0030DDE5 		ldrb	r3, [sp, #0]	@ zero_extendqisi2
 3597 3358 000053E3 		cmp	r3, #0
 3598 335c 0B00000A 		beq	.L363
 3599 3360 0040A0E3 		mov	r4, #0
 3600              	.L365:
 3601 3364 422F8DE2 		add	r2, sp, #264
 3602 3368 043082E0 		add	r3, r2, r4
 3603 336c 031153E5 		ldrb	r1, [r3, #-259]	@ zero_extendqisi2
 3604 3370 0000A0E3 		mov	r0, #0
 3605 3374 FEFFFFEB 		bl	comm_send_ch
 3606 3378 013084E2 		add	r3, r4, #1
 3607 337c 0338A0E1 		mov	r3, r3, asl #16
 3608 3380 0020DDE5 		ldrb	r2, [sp, #0]	@ zero_extendqisi2
 3609 3384 2348A0E1 		mov	r4, r3, lsr #16
 3610 3388 040052E1 		cmp	r2, r4
 3611 338c F4FFFF8A 		bhi	.L365
 3612              	.L363:
 3613 3390 0000A0E3 		mov	r0, #0
 3614 3394 0411DDE5 		ldrb	r1, [sp, #260]	@ zero_extendqisi2
 3615 3398 FEFFFFEB 		bl	comm_send_ch
 3616 339c 0000A0E3 		mov	r0, #0
 3617 33a0 0511DDE5 		ldrb	r1, [sp, #261]	@ zero_extendqisi2
 3618 33a4 FEFFFFEB 		bl	comm_send_ch
 3619 33a8 98319FE5 		ldr	r3, .L379
 3620 33ac 004093E5 		ldr	r4, [r3, #0]
 3621 33b0 94319FE5 		ldr	r3, .L379+4
 3622 33b4 94219FE5 		ldr	r2, .L379+8
 3623 33b8 04C183E0 		add	ip, r3, r4, asl #2
 3624 33bc 041264E0 		rsb	r1, r4, r4, asl #4
 3625 33c0 94619FE5 		ldr	r6, .L379+20
 3626 33c4 54529CE5 		ldr	r5, [ip, #596]	@ float
 3627 33c8 021081E0 		add	r1, r1, r2
 3628 33cc 1630A0E3 		mov	r3, #22
 3629 33d0 0F20A0E3 		mov	r2, #15
 3630 33d4 050089E2 		add	r0, r9, #5
 3631 33d8 0430CDE5 		strb	r3, [sp, #4]
 3632 33dc 01A0DBE5 		ldrb	sl, [fp, #1]	@ zero_extendqisi2
 3633 33e0 0080DBE5 		ldrb	r8, [fp, #0]	@ zero_extendqisi2
 3634 33e4 FEFFFFEB 		bl	memcpy
 3635 33e8 0E70D6E5 		ldrb	r7, [r6, #14]	@ zero_extendqisi2
 3636 33ec 0520A0E1 		mov	r2, r5
 3637 33f0 01C087E2 		add	ip, r7, #1
 3638 33f4 423CA0E1 		mov	r3, r2, asr #24
 3639 33f8 0EC0C6E5 		strb	ip, [r6, #14]
 3640 33fc 0448A0E1 		mov	r4, r4, asl #16
 3641 3400 1430CDE5 		strb	r3, [sp, #20]
 3642 3404 6530A0E3 		mov	r3, #101
 3643 3408 24ECA0E1 		mov	lr, r4, lsr #24
 3644 340c 0050A0E3 		mov	r5, #0
 3645 3410 4218A0E1 		mov	r1, r2, asr #16
 3646 3414 4204A0E1 		mov	r0, r2, asr #8
 3647 3418 2448A0E1 		mov	r4, r4, lsr #16
 3648 341c 1930CDE5 		strb	r3, [sp, #25]
 3649 3420 4E3043E2 		sub	r3, r3, #78
 3650 3424 01C8A0E3 		mov	ip, #65536
 3651 3428 1510CDE5 		strb	r1, [sp, #21]
 3652 342c 1600CDE5 		strb	r0, [sp, #22]
 3653 3430 1720CDE5 		strb	r2, [sp, #23]
 3654 3434 1AE0CDE5 		strb	lr, [sp, #26]
 3655 3438 1B40CDE5 		strb	r4, [sp, #27]
 3656 343c 0030CDE5 		strb	r3, [sp, #0]
 3657 3440 0280CDE5 		strb	r8, [sp, #2]
 3658 3444 03A0CDE5 		strb	sl, [sp, #3]
 3659 3448 1850CDE5 		strb	r5, [sp, #24]
 3660 344c 0170CDE5 		strb	r7, [sp, #1]
 3661 3450 01C04CE2 		sub	ip, ip, #1
 3662              	.L366:
 3663 3454 0930D5E7 		ldrb	r3, [r5, r9]	@ zero_extendqisi2
 3664 3458 0C3023E0 		eor	r3, r3, ip
 3665 345c FF3003E2 		and	r3, r3, #255
 3666 3460 033223E0 		eor	r3, r3, r3, asl #4
 3667 3464 FF3003E2 		and	r3, r3, #255
 3668 3468 0324A0E1 		mov	r2, r3, asl #8
 3669 346c 2C2482E1 		orr	r2, r2, ip, lsr #8
 3670 3470 232222E0 		eor	r2, r2, r3, lsr #4
 3671 3474 832122E0 		eor	r2, r2, r3, asl #3
 3672 3478 015085E2 		add	r5, r5, #1
 3673 347c 0228A0E1 		mov	r2, r2, asl #16
 3674 3480 1C0055E3 		cmp	r5, #28
 3675 3484 22C8A0E1 		mov	ip, r2, lsr #16
 3676 3488 F1FFFF1A 		bne	.L366
 3677 348c 2C34A0E1 		mov	r3, ip, lsr #8
 3678 3490 0100A0E3 		mov	r0, #1
 3679 3494 5510A0E3 		mov	r1, #85
 3680 3498 0531CDE5 		strb	r3, [sp, #261]
 3681 349c 04C1CDE5 		strb	ip, [sp, #260]
 3682 34a0 FEFFFFEB 		bl	comm_send_ch
 3683 34a4 0100A0E3 		mov	r0, #1
 3684 34a8 0010DDE5 		ldrb	r1, [sp, #0]	@ zero_extendqisi2
 3685 34ac FEFFFFEB 		bl	comm_send_ch
 3686 34b0 0100A0E3 		mov	r0, #1
 3687 34b4 0110DDE5 		ldrb	r1, [sp, #1]	@ zero_extendqisi2
 3688 34b8 FEFFFFEB 		bl	comm_send_ch
 3689 34bc 0100A0E3 		mov	r0, #1
 3690 34c0 0210DDE5 		ldrb	r1, [sp, #2]	@ zero_extendqisi2
 3691 34c4 FEFFFFEB 		bl	comm_send_ch
 3692 34c8 0100A0E3 		mov	r0, #1
 3693 34cc 0310DDE5 		ldrb	r1, [sp, #3]	@ zero_extendqisi2
 3694 34d0 FEFFFFEB 		bl	comm_send_ch
 3695 34d4 0100A0E3 		mov	r0, #1
 3696 34d8 0410DDE5 		ldrb	r1, [sp, #4]	@ zero_extendqisi2
 3697 34dc FEFFFFEB 		bl	comm_send_ch
 3698 34e0 0030DDE5 		ldrb	r3, [sp, #0]	@ zero_extendqisi2
 3699 34e4 000053E3 		cmp	r3, #0
 3700 34e8 0B00000A 		beq	.L368
 3701 34ec 0040A0E3 		mov	r4, #0
 3702              	.L370:
 3703 34f0 422F8DE2 		add	r2, sp, #264
 3704 34f4 043082E0 		add	r3, r2, r4
 3705 34f8 031153E5 		ldrb	r1, [r3, #-259]	@ zero_extendqisi2
 3706 34fc 0100A0E3 		mov	r0, #1
 3707 3500 FEFFFFEB 		bl	comm_send_ch
 3708 3504 013084E2 		add	r3, r4, #1
 3709 3508 0338A0E1 		mov	r3, r3, asl #16
 3710 350c 0020DDE5 		ldrb	r2, [sp, #0]	@ zero_extendqisi2
 3711 3510 2348A0E1 		mov	r4, r3, lsr #16
 3712 3514 040052E1 		cmp	r2, r4
 3713 3518 F4FFFF8A 		bhi	.L370
 3714              	.L368:
 3715 351c 0100A0E3 		mov	r0, #1
 3716 3520 0411DDE5 		ldrb	r1, [sp, #260]	@ zero_extendqisi2
 3717 3524 FEFFFFEB 		bl	comm_send_ch
 3718 3528 0100A0E3 		mov	r0, #1
 3719 352c 0511DDE5 		ldrb	r1, [sp, #261]	@ zero_extendqisi2
 3720 3530 FEFFFFEB 		bl	comm_send_ch
 3721 3534 0C209FE5 		ldr	r2, .L379
 3722 3538 003092E5 		ldr	r3, [r2, #0]
 3723 353c 013083E2 		add	r3, r3, #1
 3724 3540 003082E5 		str	r3, [r2, #0]
 3725 3544 31FFFFEA 		b	.L371
 3726              	.L380:
 3727              		.align	2
 3728              	.L379:
 3729 3548 A4040000 		.word	m_parameter_i
 3730 354c 00000000 		.word	global_data
 3731 3550 E8030000 		.word	global_data+1000
 3732 3554 00000000 		.word	mavlink_system
 3733 3558 54040000 		.word	m_mavlink_status.2036
 3734 355c 68040000 		.word	m_mavlink_status.2036+20
 3736              		.bss
 3737              	gps_chars.19434:
 3738 0000 00000000 		.space	50
 3738      00000000 
 3738      00000000 
 3738      00000000 
 3738      00000000 
 3739              	gps_i.19433:
 3740 0032 00       		.space	1
 3741 0033 00       		.align	2
 3742              	m_mavlink_message.2151:
 3743 0034 00000000 		.space	1056
 3743      00000000 
 3743      00000000 
 3743      00000000 
 3743      00000000 
 3744              		.align	2
 3745              	m_mavlink_status.2036:
 3746 0454 00000000 		.space	80
 3746      00000000 
 3746      00000000 
 3746      00000000 
 3746      00000000 
 3747              		.align	2
 3748              	m_parameter_i:
 3749 04a4 00000000 		.space	4
 3750              		.comm	mavlink_system,8,4
 3751              		.comm	global_param_id,4,4
 3752              		.comm	state_fly_id,4,4
 3753              		.comm	global_data,2700,4
 3754              		.comm	gps_device_mode,1,1
 3755              		.comm	x_axis_controller,32,4
 3756              		.comm	y_axis_controller,32,4
 3757              		.comm	z_axis_controller,32,4
 3758              		.ident	"GCC: (GNU) 4.1.1 (WinARM)"
DEFINED SYMBOLS
                            *ABS*:00000000 communication.c
C:\Users\Srdjan\AppData\Local\Temp/ccsLaaaa.s:5      .text:00000000 mavlink_parse_state_initialize
C:\Users\Srdjan\AppData\Local\Temp/ccsLaaaa.s:10     .text:00000000 $a
C:\Users\Srdjan\AppData\Local\Temp/ccsLaaaa.s:31     .text:00000044 mavlink_finalize_message_chan
C:\Users\Srdjan\AppData\Local\Temp/ccsLaaaa.s:90     .text:0000010c $d
C:\Users\Srdjan\AppData\Local\Temp/ccsLaaaa.s:3745   .bss:00000454 m_mavlink_status.2036
C:\Users\Srdjan\AppData\Local\Temp/ccsLaaaa.s:96     .text:00000110 communication_get_uart_drop_rate
C:\Users\Srdjan\AppData\Local\Temp/ccsLaaaa.s:100    .text:00000110 $a
C:\Users\Srdjan\AppData\Local\Temp/ccsLaaaa.s:125    .text:00000168 $d
                            *COM*:00000a8c global_data
C:\Users\Srdjan\AppData\Local\Temp/ccsLaaaa.s:131    .text:0000016c communication_init
C:\Users\Srdjan\AppData\Local\Temp/ccsLaaaa.s:135    .text:0000016c $a
C:\Users\Srdjan\AppData\Local\Temp/ccsLaaaa.s:150    .text:0000019c $d
C:\Users\Srdjan\AppData\Local\Temp/ccsLaaaa.s:154    .text:000001a0 mavlink_send_uart
C:\Users\Srdjan\AppData\Local\Temp/ccsLaaaa.s:158    .text:000001a0 $a
C:\Users\Srdjan\AppData\Local\Temp/ccsLaaaa.s:217    .text:00000248 execute_action
C:\Users\Srdjan\AppData\Local\Temp/ccsLaaaa.s:230    .text:00000264 $d
C:\Users\Srdjan\AppData\Local\Temp/ccsLaaaa.s:259    .text:000002d4 $a
C:\Users\Srdjan\AppData\Local\Temp/ccsLaaaa.s:338    .text:000003d8 $d
C:\Users\Srdjan\AppData\Local\Temp/ccsLaaaa.s:402    .text:000003f0 handle_mavlink_message
C:\Users\Srdjan\AppData\Local\Temp/ccsLaaaa.s:406    .text:000003f0 $a
C:\Users\Srdjan\AppData\Local\Temp/ccsLaaaa.s:825    .text:00000a4c $d
C:\Users\Srdjan\AppData\Local\Temp/ccsLaaaa.s:835    .text:00000a70 $a
C:\Users\Srdjan\AppData\Local\Temp/ccsLaaaa.s:1482   .text:0000144c $d
C:\Users\Srdjan\AppData\Local\Temp/ccsLaaaa.s:3748   .bss:000004a4 m_parameter_i
                            *COM*:00000008 mavlink_system
C:\Users\Srdjan\AppData\Local\Temp/ccsLaaaa.s:1500   .text:00001490 $a
C:\Users\Srdjan\AppData\Local\Temp/ccsLaaaa.s:2506   .text:00002368 $d
C:\Users\Srdjan\AppData\Local\Temp/ccsLaaaa.s:2517   .text:00002380 communication_receive
C:\Users\Srdjan\AppData\Local\Temp/ccsLaaaa.s:2521   .text:00002380 $a
C:\Users\Srdjan\AppData\Local\Temp/ccsLaaaa.s:2597   .text:0000248c $d
C:\Users\Srdjan\AppData\Local\Temp/ccsLaaaa.s:2608   .text:000024b4 $a
C:\Users\Srdjan\AppData\Local\Temp/ccsLaaaa.s:2664   .text:00002580 $d
C:\Users\Srdjan\AppData\Local\Temp/ccsLaaaa.s:2675   .text:000025a8 $a
C:\Users\Srdjan\AppData\Local\Temp/ccsLaaaa.s:3484   .text:000031c0 $d
C:\Users\Srdjan\AppData\Local\Temp/ccsLaaaa.s:3742   .bss:00000034 m_mavlink_message.2151
C:\Users\Srdjan\AppData\Local\Temp/ccsLaaaa.s:3739   .bss:00000032 gps_i.19433
C:\Users\Srdjan\AppData\Local\Temp/ccsLaaaa.s:3737   .bss:00000000 gps_chars.19434
C:\Users\Srdjan\AppData\Local\Temp/ccsLaaaa.s:3502   .text:000031f8 communication_queued_send
C:\Users\Srdjan\AppData\Local\Temp/ccsLaaaa.s:3506   .text:000031f8 $a
C:\Users\Srdjan\AppData\Local\Temp/ccsLaaaa.s:3729   .text:00003548 $d
                            *COM*:00000004 global_param_id
                            *COM*:00000004 state_fly_id
                            *COM*:00000001 gps_device_mode
                            *COM*:00000020 x_axis_controller
                            *COM*:00000020 y_axis_controller
                            *COM*:00000020 z_axis_controller

UNDEFINED SYMBOLS
__udivsi3
__gtsf2
comm_send_ch
sys_state_is_flying
gps_set_local_origin
altitude_set_local_origin
debug_message_buffer
start_pressure_calibration
start_mag_calibration
start_gyro_calibration
start_rc_calibration
param_write_all
param_read_all
__fixunssfsi
__floatsisf
__addsf3
__nesf2
__subsf3
__eqsf2
__ltsf2
__gesf2
__lesf2
__extendsfdf2
__gtdf2
sys_time_clock_get_unix_offset
sys_time_clock_get_time_usec
sys_time_clock_set_unix_offset
memcpy
uart1_transmit
vision_buffer_handle_data
uart0_transmit
sys_set_mode
shutter_control
shutter_set
debug_message_buffer_sprintf
sys_time_clock_get_unix_time
__divsf3
uart0_char_available
uart0_get_char
uart1_char_available
uart1_get_char
led_toggle
parse_nmea
parse_gps_msg
strncpy
gps_lat
gps_lon
gps_alt
gps_gspeed
gps_course
gps_mode
