   1              		.file	"comm.c"
   2              		.text
   3              		.align	2
   4              		.global	comm_check_free_space
   6              	comm_check_free_space:
   7              		@ Function supports interworking.
   8              		@ args = 0, pretend = 0, frame = 0
   9              		@ frame_needed = 0, uses_anonymous_args = 0
  10 0000 003050E2 		subs	r3, r0, #0
  11 0004 FF1001E2 		and	r1, r1, #255
  12 0008 04E02DE5 		str	lr, [sp, #-4]!
  13 000c 0100A0E1 		mov	r0, r1
  14 0010 0600000A 		beq	.L9
  15 0014 010053E3 		cmp	r3, #1
  16 0018 0100A0E1 		mov	r0, r1
  17 001c 0030A0E3 		mov	r3, #0
  18 0020 0500000A 		beq	.L10
  19              	.L4:
  20 0024 0300A0E1 		mov	r0, r3
  21 0028 04E09DE4 		ldr	lr, [sp], #4
  22 002c 1EFF2FE1 		bx	lr
  23              	.L9:
  24 0030 FEFFFFEB 		bl	uart0_check_free_space
  25 0034 FF3000E2 		and	r3, r0, #255
  26 0038 F9FFFFEA 		b	.L4
  27              	.L10:
  28 003c FEFFFFEB 		bl	uart1_check_free_space
  29 0040 FF3000E2 		and	r3, r0, #255
  30 0044 F6FFFFEA 		b	.L4
  32              		.align	2
  33              		.global	comm_send_ch
  35              	comm_send_ch:
  36              		@ Function supports interworking.
  37              		@ args = 0, pretend = 0, frame = 0
  38              		@ frame_needed = 0, uses_anonymous_args = 0
  39 0048 000050E3 		cmp	r0, #0
  40 004c 04E02DE5 		str	lr, [sp, #-4]!
  41 0050 FF1001E2 		and	r1, r1, #255
  42 0054 0600001A 		bne	.L12
  43 0058 40309FE5 		ldr	r3, .L20
  44 005c 6121D3E5 		ldrb	r2, [r3, #353]	@ zero_extendqisi2
  45 0060 000052E3 		cmp	r2, #0
  46 0064 0100A0E1 		mov	r0, r1
  47 0068 0A00000A 		beq	.L19
  48              	.L18:
  49 006c 04E09DE4 		ldr	lr, [sp], #4
  50 0070 1EFF2FE1 		bx	lr
  51              	.L12:
  52 0074 010050E3 		cmp	r0, #1
  53 0078 FBFFFF1A 		bne	.L18
  54 007c 1C309FE5 		ldr	r3, .L20
  55 0080 6221D3E5 		ldrb	r2, [r3, #354]	@ zero_extendqisi2
  56 0084 000052E3 		cmp	r2, #0
  57 0088 0100A0E1 		mov	r0, r1
  58 008c F6FFFF1A 		bne	.L18
  59 0090 FEFFFFEB 		bl	uart1_transmit
  60 0094 F4FFFFEA 		b	.L18
  61              	.L19:
  62 0098 FEFFFFEB 		bl	uart0_transmit
  63 009c F2FFFFEA 		b	.L18
  64              	.L21:
  65              		.align	2
  66              	.L20:
  67 00a0 00000000 		.word	global_data
  69              		.align	2
  70              		.global	comm_get_ch
  72              	comm_get_ch:
  73              		@ Function supports interworking.
  74              		@ args = 0, pretend = 0, frame = 0
  75              		@ frame_needed = 0, uses_anonymous_args = 0
  76 00a4 000050E3 		cmp	r0, #0
  77 00a8 04E02DE5 		str	lr, [sp, #-4]!
  78 00ac 0400000A 		beq	.L29
  79 00b0 010050E3 		cmp	r0, #1
  80 00b4 0000A0E3 		mov	r0, #0
  81 00b8 0300000A 		beq	.L30
  82              	.L25:
  83 00bc 04E09DE4 		ldr	lr, [sp], #4
  84 00c0 1EFF2FE1 		bx	lr
  85              	.L29:
  86 00c4 FEFFFFEB 		bl	uart0_get_char
  87 00c8 FBFFFFEA 		b	.L25
  88              	.L30:
  89 00cc FEFFFFEB 		bl	uart1_get_char
  90 00d0 F9FFFFEA 		b	.L25
  92              		.align	2
  93              		.global	comm_ch_available
  95              	comm_ch_available:
  96              		@ Function supports interworking.
  97              		@ args = 0, pretend = 0, frame = 0
  98              		@ frame_needed = 0, uses_anonymous_args = 0
  99 00d4 000050E3 		cmp	r0, #0
 100 00d8 04E02DE5 		str	lr, [sp, #-4]!
 101 00dc 0400000A 		beq	.L38
 102 00e0 010050E3 		cmp	r0, #1
 103 00e4 0000A0E3 		mov	r0, #0
 104 00e8 0400000A 		beq	.L39
 105              	.L34:
 106 00ec 04E09DE4 		ldr	lr, [sp], #4
 107 00f0 1EFF2FE1 		bx	lr
 108              	.L38:
 109 00f4 FEFFFFEB 		bl	uart0_char_available
 110 00f8 FF0000E2 		and	r0, r0, #255
 111 00fc FAFFFFEA 		b	.L34
 112              	.L39:
 113 0100 FEFFFFEB 		bl	uart1_char_available
 114 0104 FF0000E2 		and	r0, r0, #255
 115 0108 F7FFFFEA 		b	.L34
 117              		.align	2
 118              		.global	comm_init
 120              	comm_init:
 121              		@ Function supports interworking.
 122              		@ args = 0, pretend = 0, frame = 0
 123              		@ frame_needed = 0, uses_anonymous_args = 0
 124 010c 003050E2 		subs	r3, r0, #0
 125 0110 04E02DE5 		str	lr, [sp, #-4]!
 126 0114 0310A0E3 		mov	r1, #3
 127 0118 8120A0E3 		mov	r2, #129
 128 011c E10CA0E3 		mov	r0, #57600
 129 0120 0600000A 		beq	.L46
 130 0124 010053E3 		cmp	r3, #1
 131 0128 E10CA0E3 		mov	r0, #57600
 132 012c 0310A0E3 		mov	r1, #3
 133 0130 8120A0E3 		mov	r2, #129
 134 0134 0100000A 		beq	.L46
 135              	.L45:
 136 0138 04E09DE4 		ldr	lr, [sp], #4
 137 013c 1EFF2FE1 		bx	lr
 138              	.L46:
 139 0140 FEFFFFEB 		bl	uart0_init
 140 0144 FBFFFFEA 		b	.L45
 142              		.comm	mavlink_system,8,4
 143              		.comm	global_param_id,4,4
 144              		.comm	state_fly_id,4,4
 145              		.comm	global_data,2700,4
 146              		.ident	"GCC: (GNU) 4.1.1 (WinARM)"