   1              		.file	"common_mainloop_functions.c"
   2              		.global	__fixunssfsi
   3              		.text
   4              		.align	2
   5              		.global	sync_state_parameters
   7              	sync_state_parameters:
   8              		@ Function supports interworking.
   9              		@ args = 0, pretend = 0, frame = 0
  10              		@ frame_needed = 0, uses_anonymous_args = 0
  11 0000 10402DE9 		stmfd	sp!, {r4, lr}
  12 0004 24409FE5 		ldr	r4, .L5
  13 0008 CC0394E5 		ldr	r0, [r4, #972]	@ float
  14 000c FEFFFFEB 		bl	__fixunssfsi
  15 0010 FF0000E2 		and	r0, r0, #255
  16 0014 0230A0E3 		mov	r3, #2
  17 0018 140050E3 		cmp	r0, #20
  18 001c 6001C4E5 		strb	r0, [r4, #352]
  19 0020 6231C405 		streqb	r3, [r4, #354]
  20 0024 6131C405 		streqb	r3, [r4, #353]
  21 0028 1040BDE8 		ldmfd	sp!, {r4, lr}
  22 002c 1EFF2FE1 		bx	lr
  23              	.L6:
  24              		.align	2
  25              	.L5:
  26 0030 00000000 		.word	global_data
  28              		.align	2
  29              		.global	beep_on_low_voltage
  31              	beep_on_low_voltage:
  32              		@ Function supports interworking.
  33              		@ args = 0, pretend = 0, frame = 0
  34              		@ frame_needed = 0, uses_anonymous_args = 0
  35 0034 5C109FE5 		ldr	r1, .L15
  36 0038 1A2EA0E3 		mov	r2, #416
  37 003c B20091E1 		ldrh	r0, [r1, r2]
  38 0040 233CA0E3 		mov	r3, #8960
  39 0044 273083E2 		add	r3, r3, #39
  40 0048 04E02DE5 		str	lr, [sp, #-4]!
  41 004c 0EE2A0E3 		mov	lr, #-536870912
  42 0050 030050E1 		cmp	r0, r3
  43 0054 0AE98EE2 		add	lr, lr, #163840
  44 0058 1C309E85 		ldrhi	r3, [lr, #28]
  45 005c 0EC2A0E3 		mov	ip, #-536870912
  46 0060 01348383 		orrhi	r3, r3, #16777216
  47 0064 0AC98CE2 		add	ip, ip, #163840
  48 0068 1C308E85 		strhi	r3, [lr, #28]
  49 006c 0700008A 		bhi	.L13
  50 0070 10309CE5 		ldr	r3, [ip, #16]
  51 0074 010413E3 		tst	r3, #16777216
  52 0078 1C309C15 		ldrne	r3, [ip, #28]
  53 007c 14309C05 		ldreq	r3, [ip, #20]
  54 0080 01348313 		orrne	r3, r3, #16777216
  55 0084 01348303 		orreq	r3, r3, #16777216
  56 0088 1C308C15 		strne	r3, [ip, #28]
  57 008c 14308C05 		streq	r3, [ip, #20]
  58              	.L13:
  59 0090 04E09DE4 		ldr	lr, [sp], #4
  60 0094 1EFF2FE1 		bx	lr
  61              	.L16:
  62              		.align	2
  63              	.L15:
  64 0098 00000000 		.word	global_data
  66              		.align	2
  67              		.global	measure_peak_cpu_load
  69              	measure_peak_cpu_load:
  70              		@ Function supports interworking.
  71              		@ args = 8, pretend = 0, frame = 0
  72              		@ frame_needed = 0, uses_anonymous_args = 0
  73              		@ link register save eliminated.
  74 009c 0000A0E3 		mov	r0, #0
  75              		@ lr needed for prologue
  76 00a0 1EFF2FE1 		bx	lr
  78              		.align	2
  79              		.global	measure_avg_cpu_load
  81              	measure_avg_cpu_load:
  82              		@ Function supports interworking.
  83              		@ args = 8, pretend = 0, frame = 0
  84              		@ frame_needed = 0, uses_anonymous_args = 0
  85              		@ link register save eliminated.
  86 00a4 0000A0E3 		mov	r0, #0
  87              		@ lr needed for prologue
  88 00a8 1EFF2FE1 		bx	lr
  90              		.align	2
  91              		.global	us_run_init
  93              	us_run_init:
  94              		@ Function supports interworking.
  95              		@ args = 0, pretend = 0, frame = 0
  96              		@ frame_needed = 0, uses_anonymous_args = 0
  97              		@ link register save eliminated.
  98 00ac 14309FE5 		ldr	r3, .L27
  99              		@ lr needed for prologue
 100 00b0 0010A0E3 		mov	r1, #0
 101 00b4 382083E2 		add	r2, r3, #56
 102              	.L22:
 103 00b8 041083E4 		str	r1, [r3], #4
 104 00bc 020053E1 		cmp	r3, r2
 105 00c0 FCFFFF1A 		bne	.L22
 106 00c4 1EFF2FE1 		bx	lr
 107              	.L28:
 108              		.align	2
 109              	.L27:
 110 00c8 6C000000 		.word	next_exec_time
 112              		.align	2
 113              		.global	us_run_every
 115              	us_run_every:
 116              		@ Function supports interworking.
 117              		@ args = 0, pretend = 0, frame = 0
 118              		@ frame_needed = 0, uses_anonymous_args = 0
 119 00cc 04E02DE5 		str	lr, [sp, #-4]!
 120 00d0 2CE09FE5 		ldr	lr, .L35
 121 00d4 01319EE7 		ldr	r3, [lr, r1, asl #2]
 122 00d8 020053E1 		cmp	r3, r2
 123 00dc 03C062E0 		rsb	ip, r2, r3
 124 00e0 002082E0 		add	r2, r2, r0
 125 00e4 0200009A 		bls	.L30
 126 00e8 0C0050E1 		cmp	r0, ip
 127 00ec 0000A0E3 		mov	r0, #0
 128 00f0 0100002A 		bcs	.L33
 129              	.L30:
 130 00f4 01218EE7 		str	r2, [lr, r1, asl #2]
 131 00f8 0100A0E3 		mov	r0, #1
 132              	.L33:
 133 00fc 04E09DE4 		ldr	lr, [sp], #4
 134 0100 1EFF2FE1 		bx	lr
 135              	.L36:
 136              		.align	2
 137              	.L35:
 138 0104 6C000000 		.word	next_exec_time
 140              		.section	.rodata.str1.4,"aMS",%progbits,1
 141              		.align	2
 142              	.LC0:
 143 0000 43524954 		.ascii	"CRITICAL! POSITION LOST\000"
 143      4943414C 
 143      2120504F 
 143      53495449 
 143      4F4E204C 
 144              		.align	2
 145              	.LC1:
 146 0018 454D4552 		.ascii	"EMERGENCY! MAYDAY! MAYDAY! LANDING!\000"
 146      47454E43 
 146      5921204D 
 146      41594441 
 146      5921204D 
 147              		.text
 148              		.align	2
 149              		.global	update_system_statemachine
 151              	update_system_statemachine:
 152              		@ Function supports interworking.
 153              		@ args = 0, pretend = 0, frame = 0
 154              		@ frame_needed = 0, uses_anonymous_args = 0
 155 0108 F0402DE9 		stmfd	sp!, {r4, r5, r6, r7, lr}
 156 010c A8519FE5 		ldr	r5, .L62
 157 0110 503195E5 		ldr	r3, [r5, #336]
 158 0114 023043E2 		sub	r3, r3, #2
 159 0118 0120A0E1 		mov	r2, r1
 160 011c 0010A0E1 		mov	r1, r0
 161 0120 040053E3 		cmp	r3, #4
 162 0124 03F19F97 		ldrls	pc, [pc, r3, asl #2]
 163 0128 270000EA 		b	.L38
 164              		.p2align 2
 165              	.L42:
 166 012c E8010000 		.word	.L39
 167 0130 40010000 		.word	.L40
 168 0134 40010000 		.word	.L40
 169 0138 40010000 		.word	.L40
 170 013c A4010000 		.word	.L41
 171              	.L40:
 172 0140 3331D5E5 		ldrb	r3, [r5, #307]	@ zero_extendqisi2
 173 0144 000053E3 		cmp	r3, #0
 174 0148 6CC19FE5 		ldr	ip, .L62
 175 014c 2D00000A 		beq	.L44
 176 0150 5C319CE5 		ldr	r3, [ip, #348]
 177 0154 050053E3 		cmp	r3, #5
 178 0158 01304302 		subeq	r3, r3, #1
 179 015c 5C318C05 		streq	r3, [ip, #348]
 180 0160 0B00000A 		beq	.L48
 181              	.L46:
 182 0164 5C3195E5 		ldr	r3, [r5, #348]
 183 0168 050053E3 		cmp	r3, #5
 184 016c 48119FE5 		ldr	r1, .L62
 185 0170 3E00000A 		beq	.L52
 186 0174 060053E3 		cmp	r3, #6
 187 0178 4200000A 		beq	.L56
 188 017c 040053E3 		cmp	r3, #4
 189 0180 0030A013 		movne	r3, #0
 190 0184 78328115 		strne	r3, [r1, #632]	@ float
 191 0188 74328115 		strne	r3, [r1, #628]	@ float
 192 018c 7C328115 		strne	r3, [r1, #636]	@ float
 193 0190 0300001A 		bne	.L41
 194              	.L48:
 195 0194 FE35A0E3 		mov	r3, #1065353216
 196 0198 783285E5 		str	r3, [r5, #632]	@ float
 197 019c 743285E5 		str	r3, [r5, #628]	@ float
 198 01a0 7C3285E5 		str	r3, [r5, #636]	@ float
 199              	.L41:
 200 01a4 FE35A0E3 		mov	r3, #1065353216
 201 01a8 703285E5 		str	r3, [r5, #624]	@ float
 202 01ac 803285E5 		str	r3, [r5, #640]	@ float
 203              	.L43:
 204 01b0 3231D5E5 		ldrb	r3, [r5, #306]	@ zero_extendqisi2
 205 01b4 000053E3 		cmp	r3, #0
 206 01b8 FC309F05 		ldreq	r3, .L62
 207 01bc 0020A003 		moveq	r2, #0
 208 01c0 70228305 		streq	r2, [r3, #624]	@ float
 209 01c4 F040BDE8 		ldmfd	sp!, {r4, r5, r6, r7, lr}
 210 01c8 1EFF2FE1 		bx	lr
 211              	.L38:
 212 01cc 0030A0E3 		mov	r3, #0
 213 01d0 703285E5 		str	r3, [r5, #624]	@ float
 214 01d4 743285E5 		str	r3, [r5, #628]	@ float
 215 01d8 7C3285E5 		str	r3, [r5, #636]	@ float
 216 01dc 783285E5 		str	r3, [r5, #632]	@ float
 217 01e0 803285E5 		str	r3, [r5, #640]	@ float
 218 01e4 F1FFFFEA 		b	.L43
 219              	.L39:
 220 01e8 0030A0E3 		mov	r3, #0
 221 01ec FE25A0E3 		mov	r2, #1065353216
 222 01f0 783285E5 		str	r3, [r5, #632]	@ float
 223 01f4 702285E5 		str	r2, [r5, #624]	@ float
 224 01f8 743285E5 		str	r3, [r5, #628]	@ float
 225 01fc 7C3285E5 		str	r3, [r5, #636]	@ float
 226 0200 802285E5 		str	r2, [r5, #640]	@ float
 227 0204 E9FFFFEA 		b	.L43
 228              	.L44:
 229 0208 5C319CE5 		ldr	r3, [ip, #348]
 230 020c 040053E3 		cmp	r3, #4
 231 0210 2200000A 		beq	.L61
 232 0214 050053E3 		cmp	r3, #5
 233 0218 D1FFFF1A 		bne	.L46
 234 021c A23E8CE2 		add	r3, ip, #2592
 235 0220 180093E8 		ldmia	r3, {r3-r4}
 236 0224 0160A0E1 		mov	r6, r1
 237 0228 0270A0E1 		mov	r7, r2
 238 022c F0029CE5 		ldr	r0, [ip, #752]	@ float
 239 0230 036056E0 		subs	r6, r6, r3
 240 0234 0470C7E0 		sbc	r7, r7, r4
 241 0238 FEFFFFEB 		bl	__fixunssfsi
 242 023c 000057E3 		cmp	r7, #0
 243 0240 800080E0 		add	r0, r0, r0, asl #1
 244 0244 0010A0E3 		mov	r1, #0
 245 0248 0200008A 		bhi	.L54
 246 024c 0700001A 		bne	.L52
 247 0250 000056E1 		cmp	r6, r0
 248 0254 0500009A 		bls	.L52
 249              	.L54:
 250 0258 0630A0E3 		mov	r3, #6
 251 025c 5C009FE5 		ldr	r0, .L62+4
 252 0260 3431C5E5 		strb	r3, [r5, #308]
 253 0264 5C3185E5 		str	r3, [r5, #348]
 254 0268 FEFFFFEB 		bl	debug_message_buffer
 255 026c BCFFFFEA 		b	.L46
 256              	.L52:
 257 0270 FE25A0E3 		mov	r2, #1065353216
 258 0274 0030A0E3 		mov	r3, #0
 259 0278 782285E5 		str	r2, [r5, #632]	@ float
 260 027c 743285E5 		str	r3, [r5, #628]	@ float
 261 0280 7C2285E5 		str	r2, [r5, #636]	@ float
 262 0284 C6FFFFEA 		b	.L41
 263              	.L56:
 264 0288 FE25A0E3 		mov	r2, #1065353216
 265 028c 0030A0E3 		mov	r3, #0
 266 0290 782281E5 		str	r2, [r1, #632]	@ float
 267 0294 743281E5 		str	r3, [r1, #628]	@ float
 268 0298 7C2281E5 		str	r2, [r1, #636]	@ float
 269 029c C0FFFFEA 		b	.L41
 270              	.L61:
 271 02a0 013083E2 		add	r3, r3, #1
 272 02a4 18009FE5 		ldr	r0, .L62+8
 273 02a8 201A8CE5 		str	r1, [ip, #2592]
 274 02ac 242A8CE5 		str	r2, [ip, #2596]
 275 02b0 5C318CE5 		str	r3, [ip, #348]
 276 02b4 FEFFFFEB 		bl	debug_message_buffer
 277 02b8 A9FFFFEA 		b	.L46
 278              	.L63:
 279              		.align	2
 280              	.L62:
 281 02bc 00000000 		.word	global_data
 282 02c0 18000000 		.word	.LC1
 283 02c4 00000000 		.word	.LC0
 285              		.global	__floatsisf
 286              		.global	__addsf3
 287              		.global	__divsf3
 288              		.global	__mulsf3
 289              		.global	__extendsfdf2
 290              		.global	__subdf3
 291              		.global	__truncdfsf2
 292              		.global	__muldf3
 293              		.global	__fixunsdfsi
 294              		.global	__ltsf2
 295              		.global	__gtsf2
 296              		.align	2
 297              		.global	adc_read
 299              	adc_read:
 300              		@ Function supports interworking.
 301              		@ args = 0, pretend = 0, frame = 0
 302              		@ frame_needed = 0, uses_anonymous_args = 0
 303 02c8 30402DE9 		stmfd	sp!, {r4, r5, lr}
 304 02cc 0300A0E3 		mov	r0, #3
 305 02d0 FEFFFFEB 		bl	adc_get_value
 306 02d4 0048A0E1 		mov	r4, r0, asl #16
 307 02d8 4448A0E1 		mov	r4, r4, asr #16
 308 02dc 0400A0E1 		mov	r0, r4
 309 02e0 FEFFFFEB 		bl	__floatsisf
 310 02e4 000054E3 		cmp	r4, #0
 311 02e8 660000BA 		blt	.L74
 312              	.L65:
 313 02ec 4314A0E3 		mov	r1, #1124073472
 314 02f0 9B1881E2 		add	r1, r1, #10158080
 315 02f4 FEFFFFEB 		bl	__divsf3
 316 02f8 B8119FE5 		ldr	r1, .L76+16
 317 02fc 0040A0E1 		mov	r4, r0
 318 0300 FEFFFFEB 		bl	__mulsf3
 319 0304 0010A0E1 		mov	r1, r0
 320 0308 0400A0E1 		mov	r0, r4
 321 030c FEFFFFEB 		bl	__mulsf3
 322 0310 0010A0E1 		mov	r1, r0
 323 0314 0400A0E1 		mov	r0, r4
 324 0318 FEFFFFEB 		bl	__mulsf3
 325 031c 0010A0E1 		mov	r1, r0
 326 0320 0400A0E1 		mov	r0, r4
 327 0324 FEFFFFEB 		bl	__mulsf3
 328 0328 6718E0E3 		mvn	r1, #6750208
 329 032c 8D1D41E2 		sub	r1, r1, #9024
 330 0330 0050A0E1 		mov	r5, r0
 331 0334 511141E2 		sub	r1, r1, #1073741844
 332 0338 0400A0E1 		mov	r0, r4
 333 033c FEFFFFEB 		bl	__mulsf3
 334 0340 0010A0E1 		mov	r1, r0
 335 0344 0400A0E1 		mov	r0, r4
 336 0348 FEFFFFEB 		bl	__mulsf3
 337 034c 0010A0E1 		mov	r1, r0
 338 0350 0400A0E1 		mov	r0, r4
 339 0354 FEFFFFEB 		bl	__mulsf3
 340 0358 0010A0E1 		mov	r1, r0
 341 035c 0500A0E1 		mov	r0, r5
 342 0360 FEFFFFEB 		bl	__addsf3
 343 0364 50119FE5 		ldr	r1, .L76+20
 344 0368 0050A0E1 		mov	r5, r0
 345 036c 0400A0E1 		mov	r0, r4
 346 0370 FEFFFFEB 		bl	__mulsf3
 347 0374 0010A0E1 		mov	r1, r0
 348 0378 0400A0E1 		mov	r0, r4
 349 037c FEFFFFEB 		bl	__mulsf3
 350 0380 0010A0E1 		mov	r1, r0
 351 0384 0500A0E1 		mov	r0, r5
 352 0388 FEFFFFEB 		bl	__addsf3
 353 038c 9B18A0E3 		mov	r1, #10158080
 354 0390 171B81E2 		add	r1, r1, #23552
 355 0394 0050A0E1 		mov	r5, r0
 356 0398 AB1181E2 		add	r1, r1, #-1073741782
 357 039c 0400A0E1 		mov	r0, r4
 358 03a0 FEFFFFEB 		bl	__mulsf3
 359 03a4 0010A0E1 		mov	r1, r0
 360 03a8 0500A0E1 		mov	r0, r5
 361 03ac FEFFFFEB 		bl	__addsf3
 362 03b0 F519A0E3 		mov	r1, #4014080
 363 03b4 3B1C81E2 		add	r1, r1, #15104
 364 03b8 E11181E2 		add	r1, r1, #1073741880
 365 03bc FEFFFFEB 		bl	__addsf3
 366 03c0 FEFFFFEB 		bl	__extendsfdf2
 367 03c4 DC208FE2 		adr	r2, .L76
 368 03c8 0C0092E8 		ldmia	r2, {r2-r3}
 369 03cc FEFFFFEB 		bl	__subdf3
 370 03d0 FEFFFFEB 		bl	__truncdfsf2
 371 03d4 E4509FE5 		ldr	r5, .L76+24
 372 03d8 D80985E5 		str	r0, [r5, #2520]	@ float
 373 03dc 0500A0E3 		mov	r0, #5
 374 03e0 FEFFFFEB 		bl	adc_get_value
 375 03e4 0048A0E1 		mov	r4, r0, asl #16
 376 03e8 4448A0E1 		mov	r4, r4, asr #16
 377 03ec 0400A0E1 		mov	r0, r4
 378 03f0 FEFFFFEB 		bl	__floatsisf
 379 03f4 000054E3 		cmp	r4, #0
 380 03f8 260000BA 		blt	.L75
 381              	.L66:
 382 03fc FEFFFFEB 		bl	__extendsfdf2
 383 0400 A8208FE2 		adr	r2, .L76+8
 384 0404 0C0092E8 		ldmia	r2, {r2-r3}
 385 0408 FEFFFFEB 		bl	__muldf3
 386 040c FEFFFFEB 		bl	__fixunsdfsi
 387 0410 1A3EA0E3 		mov	r3, #416
 388 0414 B30085E1 		strh	r0, [r5, r3]	@ movhi
 389 0418 D41995E5 		ldr	r1, [r5, #2516]	@ float
 390 041c A0009FE5 		ldr	r0, .L76+28
 391 0420 FEFFFFEB 		bl	__mulsf3
 392 0424 D81995E5 		ldr	r1, [r5, #2520]	@ float
 393 0428 0040A0E1 		mov	r4, r0
 394 042c 94009FE5 		ldr	r0, .L76+32
 395 0430 FEFFFFEB 		bl	__mulsf3
 396 0434 0010A0E1 		mov	r1, r0
 397 0438 0400A0E1 		mov	r0, r4
 398 043c FEFFFFEB 		bl	__addsf3
 399 0440 0040A0E1 		mov	r4, r0
 400 0444 FE15A0E3 		mov	r1, #1065353216
 401 0448 D44985E5 		str	r4, [r5, #2516]	@ float
 402 044c FEFFFFEB 		bl	__ltsf2
 403 0450 000050E3 		cmp	r0, #0
 404 0454 080000AA 		bge	.L67
 405 0458 0400A0E1 		mov	r0, r4
 406 045c 0010A0E3 		mov	r1, #0
 407 0460 FEFFFFEB 		bl	__gtsf2
 408 0464 000050E3 		cmp	r0, #0
 409 0468 0130A0C3 		movgt	r3, #1
 410 046c 2F31C5C5 		strgtb	r3, [r5, #303]
 411 0470 010000DA 		ble	.L67
 412              	.L73:
 413 0474 3040BDE8 		ldmfd	sp!, {r4, r5, lr}
 414 0478 1EFF2FE1 		bx	lr
 415              	.L67:
 416 047c 0030A0E3 		mov	r3, #0
 417 0480 2F31C5E5 		strb	r3, [r5, #303]
 418 0484 FAFFFFEA 		b	.L73
 419              	.L74:
 420 0488 4714A0E3 		mov	r1, #1191182336
 421 048c 021581E2 		add	r1, r1, #8388608
 422 0490 FEFFFFEB 		bl	__addsf3
 423 0494 94FFFFEA 		b	.L65
 424              	.L75:
 425 0498 4714A0E3 		mov	r1, #1191182336
 426 049c 021581E2 		add	r1, r1, #8388608
 427 04a0 FEFFFFEB 		bl	__addsf3
 428 04a4 D4FFFFEA 		b	.L66
 429              	.L77:
 430              		.align	2
 431              	.L76:
 432 04a8 9999B93F 		.word	1069128089
 433 04ac 9A999999 		.word	-1717986918
 434 04b0 F5282F40 		.word	1076832501
 435 04b4 295C8FC2 		.word	-1030792151
 436 04b8 EA30173E 		.word	1041707242
 437 04bc EDF46340 		.word	1080292589
 438 04c0 00000000 		.word	global_data
 439 04c4 9A99593F 		.word	1062836634
 440 04c8 9A99193E 		.word	1041865114
 442              		.section	.rodata.str1.4
 443              		.align	2
 444              	.LC2:
 445 003c 73746172 		.ascii	"start writing params to eeprom\000"
 445      74207772 
 445      6974696E 
 445      67207061 
 445      72616D73 
 446 005b 00       		.align	2
 447              	.LC3:
 448 005c 73746172 		.ascii	"start reading params from eeprom\000"
 448      74207265 
 448      6164696E 
 448      67207061 
 448      72616D73 
 449 007d 000000   		.align	2
 450              	.LC4:
 451 0080 70617261 		.ascii	"params reset to defaults\000"
 451      6D732072 
 451      65736574 
 451      20746F20 
 451      64656661 
 452 0099 000000   		.align	2
 453              	.LC5:
 454 009c 5359535F 		.ascii	"SYS_ID\000"
 454      494400
 455 00a3 00       		.align	2
 456              	.LC6:
 457 00a4 5359535F 		.ascii	"SYS_COMP_ID\000"
 457      434F4D50 
 457      5F494400 
 458              		.align	2
 459              	.LC7:
 460 00b0 5359535F 		.ascii	"SYS_TYPE\000"
 460      54595045 
 460      00
 461 00b9 000000   		.align	2
 462              	.LC8:
 463 00bc 5359535F 		.ascii	"SYS_SW_VER\000"
 463      53575F56 
 463      455200
 464 00c7 00       		.align	2
 465              	.LC9:
 466 00c8 52435F53 		.ascii	"RC_SAFETY_CHAN\000"
 466      41464554 
 466      595F4348 
 466      414E00
 467 00d7 00       		.align	2
 468              	.LC10:
 469 00d8 55415254 		.ascii	"UART_0_BAUD\000"
 469      5F305F42 
 469      41554400 
 470              		.align	2
 471              	.LC11:
 472 00e4 55415254 		.ascii	"UART_1_BAUD\000"
 472      5F315F42 
 472      41554400 
 473              		.align	2
 474              	.LC12:
 475 00f0 52435F54 		.ascii	"RC_TUNE_CHAN1\000"
 475      554E455F 
 475      4348414E 
 475      3100
 476 00fe 0000     		.align	2
 477              	.LC13:
 478 0100 52435F54 		.ascii	"RC_TUNE_CHAN2\000"
 478      554E455F 
 478      4348414E 
 478      3200
 479 010e 0000     		.align	2
 480              	.LC14:
 481 0110 52435F54 		.ascii	"RC_TUNE_CHAN3\000"
 481      554E455F 
 481      4348414E 
 481      3300
 482 011e 0000     		.align	2
 483              	.LC15:
 484 0120 52435F54 		.ascii	"RC_TUNE_CHAN4\000"
 484      554E455F 
 484      4348414E 
 484      3400
 485 012e 0000     		.align	2
 486              	.LC16:
 487 0130 52435F54 		.ascii	"RC_THRUST_CHAN\000"
 487      48525553 
 487      545F4348 
 487      414E00
 488 013f 00       		.align	2
 489              	.LC17:
 490 0140 52435F59 		.ascii	"RC_YAW_CHAN\000"
 490      41575F43 
 490      48414E00 
 491              		.align	2
 492              	.LC18:
 493 014c 52435F52 		.ascii	"RC_ROLL_CHAN\000"
 493      4F4C4C5F 
 493      4348414E 
 493      00
 494 0159 000000   		.align	2
 495              	.LC19:
 496 015c 52435F54 		.ascii	"RC_TRIM_CHAN\000"
 496      52494D5F 
 496      4348414E 
 496      00
 497 0169 000000   		.align	2
 498              	.LC20:
 499 016c 52435F4E 		.ascii	"RC_NICK_CHAN\000"
 499      49434B5F 
 499      4348414E 
 499      00
 500 0179 000000   		.align	2
 501              	.LC21:
 502 017c 43414D5F 		.ascii	"CAM_INTERVAL\000"
 502      494E5445 
 502      5256414C 
 502      00
 503 0189 000000   		.align	2
 504              	.LC22:
 505 018c 43414D5F 		.ascii	"CAM_EXP\000"
 505      45585000 
 506              		.align	2
 507              	.LC23:
 508 0194 504F535F 		.ascii	"POS_SP_ACCEPT\000"
 508      53505F41 
 508      43434550 
 508      5400
 509 01a2 0000     		.align	2
 510              	.LC24:
 511 01a4 504F535F 		.ascii	"POS_TIMEOUT\000"
 511      54494D45 
 511      4F555400 
 512              		.align	2
 513              	.LC25:
 514 01b0 504F535F 		.ascii	"POS_SP_X\000"
 514      53505F58 
 514      00
 515 01b9 000000   		.align	2
 516              	.LC26:
 517 01bc 504F535F 		.ascii	"POS_SP_Y\000"
 517      53505F59 
 517      00
 518 01c5 000000   		.align	2
 519              	.LC27:
 520 01c8 504F535F 		.ascii	"POS_SP_Z\000"
 520      53505F5A 
 520      00
 521 01d1 000000   		.align	2
 522              	.LC28:
 523 01d4 504F535F 		.ascii	"POS_SP_YAW\000"
 523      53505F59 
 523      415700
 524 01df 00       		.align	2
 525              	.LC29:
 526 01e0 504F535F 		.ascii	"POS_YAW_TRACK\000"
 526      5941575F 
 526      54524143 
 526      4B00
 527 01ee 0000     		.align	2
 528              	.LC30:
 529 01f0 5049445F 		.ascii	"PID_ATT_P\000"
 529      4154545F 
 529      5000
 530 01fa 0000     		.align	2
 531              	.LC31:
 532 01fc 5049445F 		.ascii	"PID_ATT_I\000"
 532      4154545F 
 532      4900
 533 0206 0000     		.align	2
 534              	.LC32:
 535 0208 5049445F 		.ascii	"PID_ATT_D\000"
 535      4154545F 
 535      4400
 536 0212 0000     		.align	2
 537              	.LC33:
 538 0214 5049445F 		.ascii	"PID_ATT_LIM\000"
 538      4154545F 
 538      4C494D00 
 539              		.align	2
 540              	.LC34:
 541 0220 5049445F 		.ascii	"PID_ATT_AWU\000"
 541      4154545F 
 541      41575500 
 542              		.align	2
 543              	.LC35:
 544 022c 5049445F 		.ascii	"PID_YAWPOS_P\000"
 544      59415750 
 544      4F535F50 
 544      00
 545 0239 000000   		.align	2
 546              	.LC36:
 547 023c 5049445F 		.ascii	"PID_YAWPOS_I\000"
 547      59415750 
 547      4F535F49 
 547      00
 548 0249 000000   		.align	2
 549              	.LC37:
 550 024c 5049445F 		.ascii	"PID_YAWPOS_D\000"
 550      59415750 
 550      4F535F44 
 550      00
 551 0259 000000   		.align	2
 552              	.LC38:
 553 025c 5049445F 		.ascii	"PID_YAWPOS_LIM\000"
 553      59415750 
 553      4F535F4C 
 553      494D00
 554 026b 00       		.align	2
 555              	.LC39:
 556 026c 5049445F 		.ascii	"PID_YAWPOS_AWU\000"
 556      59415750 
 556      4F535F41 
 556      575500
 557 027b 00       		.align	2
 558              	.LC40:
 559 027c 5049445F 		.ascii	"PID_YAWSPEED_P\000"
 559      59415753 
 559      50454544 
 559      5F5000
 560 028b 00       		.align	2
 561              	.LC41:
 562 028c 5049445F 		.ascii	"PID_YAWSPEED_I\000"
 562      59415753 
 562      50454544 
 562      5F4900
 563 029b 00       		.align	2
 564              	.LC42:
 565 029c 5049445F 		.ascii	"PID_YAWSPEED_D\000"
 565      59415753 
 565      50454544 
 565      5F4400
 566 02ab 00       		.align	2
 567              	.LC43:
 568 02ac 5049445F 		.ascii	"PID_YAWSPE_LIM\000"
 568      59415753 
 568      50455F4C 
 568      494D00
 569 02bb 00       		.align	2
 570              	.LC44:
 571 02bc 5049445F 		.ascii	"PID_YAWSPE_AWU\000"
 571      59415753 
 571      50455F41 
 571      575500
 572 02cb 00       		.align	2
 573              	.LC45:
 574 02cc 5049445F 		.ascii	"PID_POS_P\000"
 574      504F535F 
 574      5000
 575 02d6 0000     		.align	2
 576              	.LC46:
 577 02d8 5049445F 		.ascii	"PID_POS_I\000"
 577      504F535F 
 577      4900
 578 02e2 0000     		.align	2
 579              	.LC47:
 580 02e4 5049445F 		.ascii	"PID_POS_D\000"
 580      504F535F 
 580      4400
 581 02ee 0000     		.align	2
 582              	.LC48:
 583 02f0 5049445F 		.ascii	"PID_POS_LIM\000"
 583      504F535F 
 583      4C494D00 
 584              		.align	2
 585              	.LC49:
 586 02fc 5049445F 		.ascii	"PID_POS_AWU\000"
 586      504F535F 
 586      41575500 
 587              		.align	2
 588              	.LC50:
 589 0308 5049445F 		.ascii	"PID_POS_Z_P\000"
 589      504F535F 
 589      5A5F5000 
 590              		.align	2
 591              	.LC51:
 592 0314 5049445F 		.ascii	"PID_POS_Z_I\000"
 592      504F535F 
 592      5A5F4900 
 593              		.align	2
 594              	.LC52:
 595 0320 5049445F 		.ascii	"PID_POS_Z_D\000"
 595      504F535F 
 595      5A5F4400 
 596              		.align	2
 597              	.LC53:
 598 032c 5049445F 		.ascii	"PID_POS_Z_LIM\000"
 598      504F535F 
 598      5A5F4C49 
 598      4D00
 599 033a 0000     		.align	2
 600              	.LC54:
 601 033c 5049445F 		.ascii	"PID_POS_Z_AWU\000"
 601      504F535F 
 601      5A5F4157 
 601      5500
 602 034a 0000     		.align	2
 603              	.LC55:
 604 034c 43414C5F 		.ascii	"CAL_GYRO_X\000"
 604      4759524F 
 604      5F5800
 605 0357 00       		.align	2
 606              	.LC56:
 607 0358 43414C5F 		.ascii	"CAL_GYRO_Y\000"
 607      4759524F 
 607      5F5900
 608 0363 00       		.align	2
 609              	.LC57:
 610 0364 43414C5F 		.ascii	"CAL_GYRO_Z\000"
 610      4759524F 
 610      5F5A00
 611 036f 00       		.align	2
 612              	.LC58:
 613 0370 43414C5F 		.ascii	"CAL_TEMP\000"
 613      54454D50 
 613      00
 614 0379 000000   		.align	2
 615              	.LC59:
 616 037c 43414C5F 		.ascii	"CAL_MAG_X\000"
 616      4D41475F 
 616      5800
 617 0386 0000     		.align	2
 618              	.LC60:
 619 0388 43414C5F 		.ascii	"CAL_MAG_Y\000"
 619      4D41475F 
 619      5900
 620 0392 0000     		.align	2
 621              	.LC61:
 622 0394 43414C5F 		.ascii	"CAL_MAG_Z\000"
 622      4D41475F 
 622      5A00
 623 039e 0000     		.align	2
 624              	.LC62:
 625 03a0 43414C5F 		.ascii	"CAL_FIT_GYRO_X\000"
 625      4649545F 
 625      4759524F 
 625      5F5800
 626 03af 00       		.align	2
 627              	.LC63:
 628 03b0 43414C5F 		.ascii	"CAL_FIT_GYRO_Y\000"
 628      4649545F 
 628      4759524F 
 628      5F5900
 629 03bf 00       		.align	2
 630              	.LC64:
 631 03c0 43414C5F 		.ascii	"CAL_FIT_GYRO_Z\000"
 631      4649545F 
 631      4759524F 
 631      5F5A00
 632 03cf 00       		.align	2
 633              	.LC65:
 634 03d0 43414C5F 		.ascii	"CAL_FIT_ACTIVE\000"
 634      4649545F 
 634      41435449 
 634      564500
 635 03df 00       		.align	2
 636              	.LC66:
 637 03e0 43414C5F 		.ascii	"CAL_PRES_DIFF\000"
 637      50524553 
 637      5F444946 
 637      4600
 638 03ee 0000     		.align	2
 639              	.LC67:
 640 03f0 43414C5F 		.ascii	"CAL_ACC_X\000"
 640      4143435F 
 640      5800
 641 03fa 0000     		.align	2
 642              	.LC68:
 643 03fc 43414C5F 		.ascii	"CAL_ACC_Y\000"
 643      4143435F 
 643      5900
 644 0406 0000     		.align	2
 645              	.LC69:
 646 0408 43414C5F 		.ascii	"CAL_ACC_Z\000"
 646      4143435F 
 646      5A00
 647 0412 0000     		.align	2
 648              	.LC70:
 649 0414 4143435F 		.ascii	"ACC_NAV_OFFS_X\000"
 649      4E41565F 
 649      4F464653 
 649      5F5800
 650 0423 00       		.align	2
 651              	.LC71:
 652 0424 4143435F 		.ascii	"ACC_NAV_OFFS_Y\000"
 652      4E41565F 
 652      4F464653 
 652      5F5900
 653 0433 00       		.align	2
 654              	.LC72:
 655 0434 4143435F 		.ascii	"ACC_NAV_OFFS_Z\000"
 655      4E41565F 
 655      4F464653 
 655      5F5A00
 656 0443 00       		.align	2
 657              	.LC73:
 658 0444 56454C5F 		.ascii	"VEL_OFFSET_X\000"
 658      4F464653 
 658      45545F58 
 658      00
 659 0451 000000   		.align	2
 660              	.LC74:
 661 0454 56454C5F 		.ascii	"VEL_OFFSET_Y\000"
 661      4F464653 
 661      45545F59 
 661      00
 662 0461 000000   		.align	2
 663              	.LC75:
 664 0464 56454C5F 		.ascii	"VEL_OFFSET_Z\000"
 664      4F464653 
 664      45545F5A 
 664      00
 665 0471 000000   		.align	2
 666              	.LC76:
 667 0474 56454C5F 		.ascii	"VEL_DAMP\000"
 667      44414D50 
 667      00
 668 047d 000000   		.align	2
 669              	.LC77:
 670 0480 4154545F 		.ascii	"ATT_KAL_KACC\000"
 670      4B414C5F 
 670      4B414343 
 670      00
 671 048d 000000   		.align	2
 672              	.LC78:
 673 0490 4154545F 		.ascii	"ATT_KAL_IYAW\000"
 673      4B414C5F 
 673      49594157 
 673      00
 674 049d 000000   		.align	2
 675              	.LC79:
 676 04a0 4154545F 		.ascii	"ATT_OFFSET_X\000"
 676      4F464653 
 676      45545F58 
 676      00
 677 04ad 000000   		.align	2
 678              	.LC80:
 679 04b0 4154545F 		.ascii	"ATT_OFFSET_Y\000"
 679      4F464653 
 679      45545F59 
 679      00
 680 04bd 000000   		.align	2
 681              	.LC81:
 682 04c0 4154545F 		.ascii	"ATT_OFFSET_Z\000"
 682      4F464653 
 682      45545F5A 
 682      00
 683 04cd 000000   		.align	2
 684              	.LC82:
 685 04d0 53454E44 		.ascii	"SEND_DEBUGCHAN\000"
 685      5F444542 
 685      55474348 
 685      414E00
 686 04df 00       		.align	2
 687              	.LC83:
 688 04e0 534C4F54 		.ascii	"SLOT_ATTITUDE\000"
 688      5F415454 
 688      49545544 
 688      4500
 689 04ee 0000     		.align	2
 690              	.LC84:
 691 04f0 534C4F54 		.ascii	"SLOT_RAW_IMU\000"
 691      5F524157 
 691      5F494D55 
 691      00
 692 04fd 000000   		.align	2
 693              	.LC85:
 694 0500 534C4F54 		.ascii	"SLOT_RC\000"
 694      5F524300 
 695              		.align	2
 696              	.LC86:
 697 0508 534C4F54 		.ascii	"SLOT_CONTROL\000"
 697      5F434F4E 
 697      54524F4C 
 697      00
 698 0515 000000   		.align	2
 699              	.LC87:
 700 0518 44454255 		.ascii	"DEBUG_1\000"
 700      475F3100 
 701              		.align	2
 702              	.LC88:
 703 0520 44454255 		.ascii	"DEBUG_2\000"
 703      475F3200 
 704              		.align	2
 705              	.LC89:
 706 0528 44454255 		.ascii	"DEBUG_3\000"
 706      475F3300 
 707              		.align	2
 708              	.LC90:
 709 0530 44454255 		.ascii	"DEBUG_4\000"
 709      475F3400 
 710              		.align	2
 711              	.LC91:
 712 0538 44454255 		.ascii	"DEBUG_5\000"
 712      475F3500 
 713              		.align	2
 714              	.LC92:
 715 0540 44454255 		.ascii	"DEBUG_6\000"
 715      475F3600 
 716              		.align	2
 717              	.LC93:
 718 0548 4D49585F 		.ascii	"MIX_REMOTE\000"
 718      52454D4F 
 718      544500
 719 0553 00       		.align	2
 720              	.LC94:
 721 0554 4D49585F 		.ascii	"MIX_POSITION\000"
 721      504F5349 
 721      54494F4E 
 721      00
 722 0561 000000   		.align	2
 723              	.LC95:
 724 0564 4D49585F 		.ascii	"MIX_Z_POSITION\000"
 724      5A5F504F 
 724      53495449 
 724      4F4E00
 725 0573 00       		.align	2
 726              	.LC96:
 727 0574 4D49585F 		.ascii	"MIX_POS_YAW\000"
 727      504F535F 
 727      59415700 
 728              		.align	2
 729              	.LC97:
 730 0580 4D49585F 		.ascii	"MIX_OFFSET\000"
 730      4F464653 
 730      455400
 731 058b 00       		.align	2
 732              	.LC98:
 733 058c 5649535F 		.ascii	"VIS_YAWCORR\000"
 733      59415743 
 733      4F525200 
 734              		.align	2
 735              	.LC99:
 736 0598 5649535F 		.ascii	"VIS_OUTL_TRESH\000"
 736      4F55544C 
 736      5F545245 
 736      534800
 737 05a7 00       		.align	2
 738              	.LC100:
 739 05a8 4750535F 		.ascii	"GPS_MODE\000"
 739      4D4F4445 
 739      00
 740 05b1 000000   		.align	2
 741              	.LC101:
 742 05b4 43414D5F 		.ascii	"CAM_ANG_X_OFF\000"
 742      414E475F 
 742      585F4F46 
 742      4600
 743 05c2 0000     		.align	2
 744              	.LC102:
 745 05c4 43414D5F 		.ascii	"CAM_ANG_X_FAC\000"
 745      414E475F 
 745      585F4641 
 745      4300
 746 05d2 0000     		.align	2
 747              	.LC103:
 748 05d4 43414D5F 		.ascii	"CAM_ANG_Y_OFF\000"
 748      414E475F 
 748      595F4F46 
 748      4600
 749 05e2 0000     		.align	2
 750              	.LC104:
 751 05e4 43414D5F 		.ascii	"CAM_ANG_Y_FAC\000"
 751      414E475F 
 751      595F4641 
 751      4300
 752 05f2 0000     		.align	2
 753              	.LC105:
 754 05f4 5359535F 		.ascii	"SYS_IMU_RESET\000"
 754      494D555F 
 754      52455345 
 754      5400
 755 0602 0000     		.align	2
 756              	.LC106:
 757 0604 63686563 		.ascii	"check true\000"
 757      6B207472 
 757      756500
 758 060f 00       		.align	2
 759              	.LC107:
 760 0610 63686563 		.ascii	"check false\000"
 760      6B206661 
 760      6C736500 
 761              		.text
 762              		.align	2
 763              		.global	handle_eeprom_write_request
 765              	handle_eeprom_write_request:
 766              		@ Function supports interworking.
 767              		@ args = 0, pretend = 0, frame = 0
 768              		@ frame_needed = 0, uses_anonymous_args = 0
 769 04cc F04F2DE9 		stmfd	sp!, {r4, r5, r6, r7, r8, r9, sl, fp, lr}
 770 04d0 04BA9FE5 		ldr	fp, .L92
 771 04d4 5C319BE5 		ldr	r3, [fp, #348]
 772 04d8 030053E3 		cmp	r3, #3
 773 04dc 0100000A 		beq	.L90
 774              	.L89:
 775 04e0 F04FBDE8 		ldmfd	sp!, {r4, r5, r6, r7, r8, r9, sl, fp, lr}
 776 04e4 1EFF2FE1 		bx	lr
 777              	.L90:
 778 04e8 64029BE5 		ldr	r0, [fp, #612]	@ float
 779 04ec FEFFFFEB 		bl	__fixunssfsi
 780 04f0 FF0000E2 		and	r0, r0, #255
 781 04f4 020040E2 		sub	r0, r0, #2
 782 04f8 040050E3 		cmp	r0, #4
 783 04fc 00F19F97 		ldrls	pc, [pc, r0, asl #2]
 784 0500 F6FFFFEA 		b	.L89
 785              		.p2align 2
 786              	.L86:
 787 0504 18050000 		.word	.L81
 788 0508 30050000 		.word	.L82
 789 050c 48050000 		.word	.L83
 790 0510 A00E0000 		.word	.L84
 791 0514 C00E0000 		.word	.L85
 792              	.L81:
 793 0518 C0099FE5 		ldr	r0, .L92+4
 794 051c FEFFFFEB 		bl	debug_message_buffer
 795 0520 FEFFFFEB 		bl	param_write_all
 796 0524 0030A0E3 		mov	r3, #0
 797 0528 64328BE5 		str	r3, [fp, #612]	@ float
 798 052c EBFFFFEA 		b	.L89
 799              	.L82:
 800 0530 FEFFFFEB 		bl	param_read_all
 801 0534 A8099FE5 		ldr	r0, .L92+8
 802 0538 FEFFFFEB 		bl	debug_message_buffer
 803 053c 0030A0E3 		mov	r3, #0
 804 0540 64328BE5 		str	r3, [fp, #612]	@ float
 805 0544 E5FFFFEA 		b	.L89
 806              	.L83:
 807 0548 0050A0E3 		mov	r5, #0
 808 054c 64528BE5 		str	r5, [fp, #612]	@ float
 809 0550 90099FE5 		ldr	r0, .L92+12
 810 0554 FEFFFFEB 		bl	debug_message_buffer
 811 0558 4234A0E3 		mov	r3, #1107296256
 812 055c 0A3783E2 		add	r3, r3, #2621440
 813 0560 54328BE5 		str	r3, [fp, #596]	@ float
 814 0564 80199FE5 		ldr	r1, .L92+16
 815 0568 0720A0E3 		mov	r2, #7
 816 056c 7C099FE5 		ldr	r0, .L92+20
 817 0570 FEFFFFEB 		bl	memcpy
 818 0574 4334A0E3 		mov	r3, #1124073472
 819 0578 123783E2 		add	r3, r3, #4718592
 820 057c 58328BE5 		str	r3, [fp, #600]	@ float
 821 0580 6C199FE5 		ldr	r1, .L92+24
 822 0584 0C20A0E3 		mov	r2, #12
 823 0588 68099FE5 		ldr	r0, .L92+28
 824 058c FEFFFFEB 		bl	memcpy
 825 0590 64199FE5 		ldr	r1, .L92+32
 826 0594 0920A0E3 		mov	r2, #9
 827 0598 5C528BE5 		str	r5, [fp, #604]	@ float
 828 059c 5C099FE5 		ldr	r0, .L92+36
 829 05a0 FEFFFFEB 		bl	memcpy
 830 05a4 1133A0E3 		mov	r3, #1140850688
 831 05a8 FA3883E2 		add	r3, r3, #16384000
 832 05ac 0171A0E3 		mov	r7, #1073741824
 833 05b0 0A7687E2 		add	r7, r7, #10485760
 834 05b4 60328BE5 		str	r3, [fp, #608]	@ float
 835 05b8 44199FE5 		ldr	r1, .L92+40
 836 05bc 0B20A0E3 		mov	r2, #11
 837 05c0 40099FE5 		ldr	r0, .L92+44
 838 05c4 4744A0E3 		mov	r4, #1191182336
 839 05c8 FEFFFFEB 		bl	memcpy
 840 05cc 614884E2 		add	r4, r4, #6356992
 841 05d0 34199FE5 		ldr	r1, .L92+48
 842 05d4 0F20A0E3 		mov	r2, #15
 843 05d8 A8738BE5 		str	r7, [fp, #936]	@ float
 844 05dc 2C099FE5 		ldr	r0, .L92+52
 845 05e0 FEFFFFEB 		bl	memcpy
 846 05e4 68428BE5 		str	r4, [fp, #616]	@ float
 847 05e8 24199FE5 		ldr	r1, .L92+56
 848 05ec 0C20A0E3 		mov	r2, #12
 849 05f0 20099FE5 		ldr	r0, .L92+60
 850 05f4 FEFFFFEB 		bl	memcpy
 851 05f8 6C428BE5 		str	r4, [fp, #620]	@ float
 852 05fc 18199FE5 		ldr	r1, .L92+64
 853 0600 0C20A0E3 		mov	r2, #12
 854 0604 14099FE5 		ldr	r0, .L92+68
 855 0608 FEFFFFEB 		bl	memcpy
 856 060c 0131A0E3 		mov	r3, #1073741824
 857 0610 0E3683E2 		add	r3, r3, #14680064
 858 0614 AC338BE5 		str	r3, [fp, #940]	@ float
 859 0618 04199FE5 		ldr	r1, .L92+72
 860 061c 0E20A0E3 		mov	r2, #14
 861 0620 00099FE5 		ldr	r0, .L92+76
 862 0624 FEFFFFEB 		bl	memcpy
 863 0628 FC189FE5 		ldr	r1, .L92+80
 864 062c 0E20A0E3 		mov	r2, #14
 865 0630 B0738BE5 		str	r7, [fp, #944]	@ float
 866 0634 F4089FE5 		ldr	r0, .L92+84
 867 0638 FEFFFFEB 		bl	memcpy
 868 063c 0131A0E3 		mov	r3, #1073741824
 869 0640 033583E2 		add	r3, r3, #12582912
 870 0644 B4338BE5 		str	r3, [fp, #948]	@ float
 871 0648 E4189FE5 		ldr	r1, .L92+88
 872 064c 0E20A0E3 		mov	r2, #14
 873 0650 E0089FE5 		ldr	r0, .L92+92
 874 0654 FEFFFFEB 		bl	memcpy
 875 0658 0181A0E3 		mov	r8, #1073741824
 876 065c 4134A0E3 		mov	r3, #1090519040
 877 0660 018588E2 		add	r8, r8, #4194304
 878 0664 B8338BE5 		str	r3, [fp, #952]	@ float
 879 0668 CC189FE5 		ldr	r1, .L92+96
 880 066c 0E20A0E3 		mov	r2, #14
 881 0670 C8089FE5 		ldr	r0, .L92+100
 882 0674 FEFFFFEB 		bl	memcpy
 883 0678 C4189FE5 		ldr	r1, .L92+104
 884 067c 0F20A0E3 		mov	r2, #15
 885 0680 BC838BE5 		str	r8, [fp, #956]	@ float
 886 0684 BC089FE5 		ldr	r0, .L92+108
 887 0688 FEFFFFEB 		bl	memcpy
 888 068c 0131A0E3 		mov	r3, #1073741824
 889 0690 023583E2 		add	r3, r3, #8388608
 890 0694 C0338BE5 		str	r3, [fp, #960]	@ float
 891 0698 0191A0E3 		mov	r9, #1073741824
 892 069c A8189FE5 		ldr	r1, .L92+112
 893 06a0 0C20A0E3 		mov	r2, #12
 894 06a4 A4089FE5 		ldr	r0, .L92+116
 895 06a8 FEFFFFEB 		bl	memcpy
 896 06ac A0189FE5 		ldr	r1, .L92+120
 897 06b0 0D20A0E3 		mov	r2, #13
 898 06b4 C4938BE5 		str	r9, [fp, #964]	@ float
 899 06b8 98089FE5 		ldr	r0, .L92+124
 900 06bc FE65A0E3 		mov	r6, #1065353216
 901 06c0 FEFFFFEB 		bl	memcpy
 902 06c4 90189FE5 		ldr	r1, .L92+128
 903 06c8 0D20A0E3 		mov	r2, #13
 904 06cc 84528BE5 		str	r5, [fp, #644]	@ float
 905 06d0 88089FE5 		ldr	r0, .L92+132
 906 06d4 FEFFFFEB 		bl	memcpy
 907 06d8 84189FE5 		ldr	r1, .L92+136
 908 06dc 0D20A0E3 		mov	r2, #13
 909 06e0 C8638BE5 		str	r6, [fp, #968]	@ float
 910 06e4 7C089FE5 		ldr	r0, .L92+140
 911 06e8 FEFFFFEB 		bl	memcpy
 912 06ec 4734A0E3 		mov	r3, #1191182336
 913 06f0 CA3A83E2 		add	r3, r3, #827392
 914 06f4 D0338BE5 		str	r3, [fp, #976]	@ float
 915 06f8 6C189FE5 		ldr	r1, .L92+144
 916 06fc 0D20A0E3 		mov	r2, #13
 917 0700 68089FE5 		ldr	r0, .L92+148
 918 0704 FEFFFFEB 		bl	memcpy
 919 0708 1133A0E3 		mov	r3, #1140850688
 920 070c 7A3883E2 		add	r3, r3, #7995392
 921 0710 D4338BE5 		str	r3, [fp, #980]	@ float
 922 0714 58189FE5 		ldr	r1, .L92+152
 923 0718 0820A0E3 		mov	r2, #8
 924 071c 54089FE5 		ldr	r0, .L92+156
 925 0720 FEFFFFEB 		bl	memcpy
 926 0724 50189FE5 		ldr	r1, .L92+160
 927 0728 0E20A0E3 		mov	r2, #14
 928 072c EC528BE5 		str	r5, [fp, #748]	@ float
 929 0730 48089FE5 		ldr	r0, .L92+164
 930 0734 FEFFFFEB 		bl	memcpy
 931 0738 4934A0E3 		mov	r3, #1224736768
 932 073c 3D3783E2 		add	r3, r3, #15990784
 933 0740 093B83E2 		add	r3, r3, #9216
 934 0744 F0328BE5 		str	r3, [fp, #752]	@ float
 935 0748 34189FE5 		ldr	r1, .L92+168
 936 074c 0C20A0E3 		mov	r2, #12
 937 0750 30089FE5 		ldr	r0, .L92+172
 938 0754 FEFFFFEB 		bl	memcpy
 939 0758 73C8E0E3 		mvn	ip, #7536640
 940 075c B338E0E3 		mvn	r3, #11730944
 941 0760 33CC4CE2 		sub	ip, ip, #13056
 942 0764 333C43E2 		sub	r3, r3, #13056
 943 0768 CBC14CE2 		sub	ip, ip, #-1073741774
 944 076c C93143E2 		sub	r3, r3, #1073741874
 945 0770 F8C28BE5 		str	ip, [fp, #760]	@ float
 946 0774 F4C28BE5 		str	ip, [fp, #756]	@ float
 947 0778 FC328BE5 		str	r3, [fp, #764]	@ float
 948 077c 08189FE5 		ldr	r1, .L92+176
 949 0780 0920A0E3 		mov	r2, #9
 950 0784 00538BE5 		str	r5, [fp, #768]	@ float
 951 0788 04538BE5 		str	r5, [fp, #772]	@ float
 952 078c EC508BE5 		str	r5, [fp, #236]	@ float
 953 0790 F0508BE5 		str	r5, [fp, #240]	@ float
 954 0794 F4508BE5 		str	r5, [fp, #244]	@ float
 955 0798 F0079FE5 		ldr	r0, .L92+180
 956 079c FEFFFFEB 		bl	memcpy
 957 07a0 EC179FE5 		ldr	r1, .L92+184
 958 07a4 0920A0E3 		mov	r2, #9
 959 07a8 E8079FE5 		ldr	r0, .L92+188
 960 07ac FEFFFFEB 		bl	memcpy
 961 07b0 E4179FE5 		ldr	r1, .L92+192
 962 07b4 0920A0E3 		mov	r2, #9
 963 07b8 E0079FE5 		ldr	r0, .L92+196
 964 07bc FEFFFFEB 		bl	memcpy
 965 07c0 DC179FE5 		ldr	r1, .L92+200
 966 07c4 0B20A0E3 		mov	r2, #11
 967 07c8 D8079FE5 		ldr	r0, .L92+204
 968 07cc FEFFFFEB 		bl	memcpy
 969 07d0 D4179FE5 		ldr	r1, .L92+208
 970 07d4 0E20A0E3 		mov	r2, #14
 971 07d8 D0079FE5 		ldr	r0, .L92+212
 972 07dc FEFFFFEB 		bl	memcpy
 973 07e0 4234A0E3 		mov	r3, #1107296256
 974 07e4 2D3783E2 		add	r3, r3, #11796480
 975 07e8 88328BE5 		str	r3, [fp, #648]	@ float
 976 07ec C0179FE5 		ldr	r1, .L92+216
 977 07f0 0A20A0E3 		mov	r2, #10
 978 07f4 BC079FE5 		ldr	r0, .L92+220
 979 07f8 FEFFFFEB 		bl	memcpy
 980 07fc 4234A0E3 		mov	r3, #1107296256
 981 0800 073683E2 		add	r3, r3, #7340032
 982 0804 8C328BE5 		str	r3, [fp, #652]	@ float
 983 0808 AC179FE5 		ldr	r1, .L92+224
 984 080c 0A20A0E3 		mov	r2, #10
 985 0810 A8079FE5 		ldr	r0, .L92+228
 986 0814 FEFFFFEB 		bl	memcpy
 987 0818 4134A0E3 		mov	r3, #1090519040
 988 081c 0F3683E2 		add	r3, r3, #15728640
 989 0820 90328BE5 		str	r3, [fp, #656]	@ float
 990 0824 98179FE5 		ldr	r1, .L92+232
 991 0828 0A20A0E3 		mov	r2, #10
 992 082c 94079FE5 		ldr	r0, .L92+236
 993 0830 FEFFFFEB 		bl	memcpy
 994 0834 4234A0E3 		mov	r3, #1107296256
 995 0838 323783E2 		add	r3, r3, #13107200
 996 083c 88479FE5 		ldr	r4, .L92+240
 997 0840 94328BE5 		str	r3, [fp, #660]	@ float
 998 0844 84179FE5 		ldr	r1, .L92+244
 999 0848 0C20A0E3 		mov	r2, #12
 1000 084c 80079FE5 		ldr	r0, .L92+248
 1001 0850 FEFFFFEB 		bl	memcpy
 1002 0854 98428BE5 		str	r4, [fp, #664]	@ float
 1003 0858 78179FE5 		ldr	r1, .L92+252
 1004 085c 0C20A0E3 		mov	r2, #12
 1005 0860 74079FE5 		ldr	r0, .L92+256
 1006 0864 FEFFFFEB 		bl	memcpy
 1007 0868 70179FE5 		ldr	r1, .L92+260
 1008 086c 0D20A0E3 		mov	r2, #13
 1009 0870 C4728BE5 		str	r7, [fp, #708]	@ float
 1010 0874 68079FE5 		ldr	r0, .L92+264
 1011 0878 FEFFFFEB 		bl	memcpy
 1012 087c 64379FE5 		ldr	r3, .L92+268
 1013 0880 64179FE5 		ldr	r1, .L92+272
 1014 0884 C8328BE5 		str	r3, [fp, #712]	@ float
 1015 0888 0D20A0E3 		mov	r2, #13
 1016 088c 5C079FE5 		ldr	r0, .L92+276
 1017 0890 FEFFFFEB 		bl	memcpy
 1018 0894 58179FE5 		ldr	r1, .L92+280
 1019 0898 0D20A0E3 		mov	r2, #13
 1020 089c CC628BE5 		str	r6, [fp, #716]	@ float
 1021 08a0 50079FE5 		ldr	r0, .L92+284
 1022 08a4 FEFFFFEB 		bl	memcpy
 1023 08a8 4C179FE5 		ldr	r1, .L92+288
 1024 08ac 0F20A0E3 		mov	r2, #15
 1025 08b0 D0828BE5 		str	r8, [fp, #720]	@ float
 1026 08b4 44079FE5 		ldr	r0, .L92+292
 1027 08b8 FEFFFFEB 		bl	memcpy
 1028 08bc 40179FE5 		ldr	r1, .L92+296
 1029 08c0 0F20A0E3 		mov	r2, #15
 1030 08c4 D4628BE5 		str	r6, [fp, #724]	@ float
 1031 08c8 38079FE5 		ldr	r0, .L92+300
 1032 08cc FEFFFFEB 		bl	memcpy
 1033 08d0 4134A0E3 		mov	r3, #1090519040
 1034 08d4 073683E2 		add	r3, r3, #7340032
 1035 08d8 D8328BE5 		str	r3, [fp, #728]	@ float
 1036 08dc 28179FE5 		ldr	r1, .L92+304
 1037 08e0 0F20A0E3 		mov	r2, #15
 1038 08e4 24079FE5 		ldr	r0, .L92+308
 1039 08e8 FEFFFFEB 		bl	memcpy
 1040 08ec 20179FE5 		ldr	r1, .L92+312
 1041 08f0 0F20A0E3 		mov	r2, #15
 1042 08f4 DC728BE5 		str	r7, [fp, #732]	@ float
 1043 08f8 18079FE5 		ldr	r0, .L92+316
 1044 08fc FEFFFFEB 		bl	memcpy
 1045 0900 14179FE5 		ldr	r1, .L92+320
 1046 0904 0F20A0E3 		mov	r2, #15
 1047 0908 E0528BE5 		str	r5, [fp, #736]	@ float
 1048 090c 0C079FE5 		ldr	r0, .L92+324
 1049 0910 FEFFFFEB 		bl	memcpy
 1050 0914 4234A0E3 		mov	r3, #1107296256
 1051 0918 123783E2 		add	r3, r3, #4718592
 1052 091c E4328BE5 		str	r3, [fp, #740]	@ float
 1053 0920 FC169FE5 		ldr	r1, .L92+328
 1054 0924 0F20A0E3 		mov	r2, #15
 1055 0928 F8069FE5 		ldr	r0, .L92+332
 1056 092c FEFFFFEB 		bl	memcpy
 1057 0930 F4169FE5 		ldr	r1, .L92+336
 1058 0934 0F20A0E3 		mov	r2, #15
 1059 0938 E8628BE5 		str	r6, [fp, #744]	@ float
 1060 093c EC069FE5 		ldr	r0, .L92+340
 1061 0940 FEFFFFEB 		bl	memcpy
 1062 0944 6639E0E3 		mvn	r3, #1671168
 1063 0948 663D43E2 		sub	r3, r3, #6528
 1064 094c 673143E2 		sub	r3, r3, #-1073741799
 1065 0950 DCA69FE5 		ldr	sl, .L92+344
 1066 0954 9C328BE5 		str	r3, [fp, #668]	@ float
 1067 0958 D8169FE5 		ldr	r1, .L92+348
 1068 095c 0A20A0E3 		mov	r2, #10
 1069 0960 D4069FE5 		ldr	r0, .L92+352
 1070 0964 FEFFFFEB 		bl	memcpy
 1071 0968 D0169FE5 		ldr	r1, .L92+356
 1072 096c 0A20A0E3 		mov	r2, #10
 1073 0970 A0A28BE5 		str	sl, [fp, #672]	@ float
 1074 0974 C8069FE5 		ldr	r0, .L92+360
 1075 0978 FEFFFFEB 		bl	memcpy
 1076 097c C4169FE5 		ldr	r1, .L92+364
 1077 0980 0A20A0E3 		mov	r2, #10
 1078 0984 A4928BE5 		str	r9, [fp, #676]	@ float
 1079 0988 BC069FE5 		ldr	r0, .L92+368
 1080 098c FEFFFFEB 		bl	memcpy
 1081 0990 B8169FE5 		ldr	r1, .L92+372
 1082 0994 0C20A0E3 		mov	r2, #12
 1083 0998 A8A28BE5 		str	sl, [fp, #680]	@ float
 1084 099c B0069FE5 		ldr	r0, .L92+376
 1085 09a0 FEFFFFEB 		bl	memcpy
 1086 09a4 AC169FE5 		ldr	r1, .L92+380
 1087 09a8 0C20A0E3 		mov	r2, #12
 1088 09ac AC728BE5 		str	r7, [fp, #684]	@ float
 1089 09b0 A4069FE5 		ldr	r0, .L92+384
 1090 09b4 FEFFFFEB 		bl	memcpy
 1091 09b8 3F34A0E3 		mov	r3, #1056964608
 1092 09bc B0328BE5 		str	r3, [fp, #688]	@ float
 1093 09c0 98169FE5 		ldr	r1, .L92+388
 1094 09c4 0C20A0E3 		mov	r2, #12
 1095 09c8 94069FE5 		ldr	r0, .L92+392
 1096 09cc FEFFFFEB 		bl	memcpy
 1097 09d0 B4428BE5 		str	r4, [fp, #692]	@ float
 1098 09d4 8C169FE5 		ldr	r1, .L92+396
 1099 09d8 0C20A0E3 		mov	r2, #12
 1100 09dc 88069FE5 		ldr	r0, .L92+400
 1101 09e0 FEFFFFEB 		bl	memcpy
 1102 09e4 84169FE5 		ldr	r1, .L92+404
 1103 09e8 0C20A0E3 		mov	r2, #12
 1104 09ec B8A28BE5 		str	sl, [fp, #696]	@ float
 1105 09f0 7C069FE5 		ldr	r0, .L92+408
 1106 09f4 FEFFFFEB 		bl	memcpy
 1107 09f8 BC428BE5 		str	r4, [fp, #700]	@ float
 1108 09fc 74169FE5 		ldr	r1, .L92+412
 1109 0a00 0E20A0E3 		mov	r2, #14
 1110 0a04 70069FE5 		ldr	r0, .L92+416
 1111 0a08 FEFFFFEB 		bl	memcpy
 1112 0a0c 6C169FE5 		ldr	r1, .L92+420
 1113 0a10 0E20A0E3 		mov	r2, #14
 1114 0a14 C0828BE5 		str	r8, [fp, #704]	@ float
 1115 0a18 64069FE5 		ldr	r0, .L92+424
 1116 0a1c FEFFFFEB 		bl	memcpy
 1117 0a20 4734A0E3 		mov	r3, #1191182336
 1118 0a24 5E3943E2 		sub	r3, r3, #1540096
 1119 0a28 2C338BE5 		str	r3, [fp, #812]	@ float
 1120 0a2c 54169FE5 		ldr	r1, .L92+428
 1121 0a30 0B20A0E3 		mov	r2, #11
 1122 0a34 50069FE5 		ldr	r0, .L92+432
 1123 0a38 FEFFFFEB 		bl	memcpy
 1124 0a3c 4634A0E3 		mov	r3, #1174405120
 1125 0a40 E93883E2 		add	r3, r3, #15269888
 1126 0a44 123B83E2 		add	r3, r3, #18432
 1127 0a48 30338BE5 		str	r3, [fp, #816]	@ float
 1128 0a4c 3C169FE5 		ldr	r1, .L92+436
 1129 0a50 0B20A0E3 		mov	r2, #11
 1130 0a54 38069FE5 		ldr	r0, .L92+440
 1131 0a58 FEFFFFEB 		bl	memcpy
 1132 0a5c 4634A0E3 		mov	r3, #1174405120
 1133 0a60 E93883E2 		add	r3, r3, #15269888
 1134 0a64 6A3C83E2 		add	r3, r3, #27136
 1135 0a68 34338BE5 		str	r3, [fp, #820]	@ float
 1136 0a6c 24169FE5 		ldr	r1, .L92+444
 1137 0a70 0B20A0E3 		mov	r2, #11
 1138 0a74 20069FE5 		ldr	r0, .L92+448
 1139 0a78 FEFFFFEB 		bl	memcpy
 1140 0a7c 4234A0E3 		mov	r3, #1107296256
 1141 0a80 38338BE5 		str	r3, [fp, #824]	@ float
 1142 0a84 14169FE5 		ldr	r1, .L92+452
 1143 0a88 0920A0E3 		mov	r2, #9
 1144 0a8c 10069FE5 		ldr	r0, .L92+456
 1145 0a90 FEFFFFEB 		bl	memcpy
 1146 0a94 0C169FE5 		ldr	r1, .L92+460
 1147 0a98 0A20A0E3 		mov	r2, #10
 1148 0a9c 08069FE5 		ldr	r0, .L92+464
 1149 0aa0 FEFFFFEB 		bl	memcpy
 1150 0aa4 04169FE5 		ldr	r1, .L92+468
 1151 0aa8 0A20A0E3 		mov	r2, #10
 1152 0aac 4C538BE5 		str	r5, [fp, #844]	@ float
 1153 0ab0 FC059FE5 		ldr	r0, .L92+472
 1154 0ab4 FEFFFFEB 		bl	memcpy
 1155 0ab8 F8159FE5 		ldr	r1, .L92+476
 1156 0abc 0A20A0E3 		mov	r2, #10
 1157 0ac0 50538BE5 		str	r5, [fp, #848]	@ float
 1158 0ac4 F0059FE5 		ldr	r0, .L92+480
 1159 0ac8 FEFFFFEB 		bl	memcpy
 1160 0acc EC359FE5 		ldr	r3, .L92+484
 1161 0ad0 ECC59FE5 		ldr	ip, .L92+488
 1162 0ad4 3C338BE5 		str	r3, [fp, #828]	@ float
 1163 0ad8 E8359FE5 		ldr	r3, .L92+492
 1164 0adc 40C38BE5 		str	ip, [fp, #832]	@ float
 1165 0ae0 44338BE5 		str	r3, [fp, #836]	@ float
 1166 0ae4 E0159FE5 		ldr	r1, .L92+496
 1167 0ae8 0F20A0E3 		mov	r2, #15
 1168 0aec 54538BE5 		str	r5, [fp, #852]	@ float
 1169 0af0 48538BE5 		str	r5, [fp, #840]	@ float
 1170 0af4 D4059FE5 		ldr	r0, .L92+500
 1171 0af8 FEFFFFEB 		bl	memcpy
 1172 0afc D0159FE5 		ldr	r1, .L92+504
 1173 0b00 0F20A0E3 		mov	r2, #15
 1174 0b04 CC059FE5 		ldr	r0, .L92+508
 1175 0b08 FEFFFFEB 		bl	memcpy
 1176 0b0c C8159FE5 		ldr	r1, .L92+512
 1177 0b10 0F20A0E3 		mov	r2, #15
 1178 0b14 C4059FE5 		ldr	r0, .L92+516
 1179 0b18 FEFFFFEB 		bl	memcpy
 1180 0b1c C0159FE5 		ldr	r1, .L92+520
 1181 0b20 0F20A0E3 		mov	r2, #15
 1182 0b24 BC059FE5 		ldr	r0, .L92+524
 1183 0b28 FEFFFFEB 		bl	memcpy
 1184 0b2c 4634A0E3 		mov	r3, #1174405120
 1185 0b30 713983E2 		add	r3, r3, #1851392
 1186 0b34 58338BE5 		str	r3, [fp, #856]	@ float
 1187 0b38 AC159FE5 		ldr	r1, .L92+528
 1188 0b3c 0E20A0E3 		mov	r2, #14
 1189 0b40 A8059FE5 		ldr	r0, .L92+532
 1190 0b44 FEFFFFEB 		bl	memcpy
 1191 0b48 A4159FE5 		ldr	r1, .L92+536
 1192 0b4c 0A20A0E3 		mov	r2, #10
 1193 0b50 5C538BE5 		str	r5, [fp, #860]	@ float
 1194 0b54 9C059FE5 		ldr	r0, .L92+540
 1195 0b58 FEFFFFEB 		bl	memcpy
 1196 0b5c 98159FE5 		ldr	r1, .L92+544
 1197 0b60 0A20A0E3 		mov	r2, #10
 1198 0b64 60538BE5 		str	r5, [fp, #864]	@ float
 1199 0b68 90059FE5 		ldr	r0, .L92+548
 1200 0b6c FEFFFFEB 		bl	memcpy
 1201 0b70 8C159FE5 		ldr	r1, .L92+552
 1202 0b74 0A20A0E3 		mov	r2, #10
 1203 0b78 64538BE5 		str	r5, [fp, #868]	@ float
 1204 0b7c 84059FE5 		ldr	r0, .L92+556
 1205 0b80 FEFFFFEB 		bl	memcpy
 1206 0b84 80159FE5 		ldr	r1, .L92+560
 1207 0b88 0F20A0E3 		mov	r2, #15
 1208 0b8c 68538BE5 		str	r5, [fp, #872]	@ float
 1209 0b90 78059FE5 		ldr	r0, .L92+564
 1210 0b94 FEFFFFEB 		bl	memcpy
 1211 0b98 74159FE5 		ldr	r1, .L92+568
 1212 0b9c 0F20A0E3 		mov	r2, #15
 1213 0ba0 6C538BE5 		str	r5, [fp, #876]	@ float
 1214 0ba4 6C059FE5 		ldr	r0, .L92+572
 1215 0ba8 FEFFFFEB 		bl	memcpy
 1216 0bac 3133A0E3 		mov	r3, #-1006632960
 1217 0bb0 7A3883E2 		add	r3, r3, #7995392
 1218 0bb4 70338BE5 		str	r3, [fp, #880]	@ float
 1219 0bb8 5C159FE5 		ldr	r1, .L92+576
 1220 0bbc 0F20A0E3 		mov	r2, #15
 1221 0bc0 58059FE5 		ldr	r0, .L92+580
 1222 0bc4 FEFFFFEB 		bl	memcpy
 1223 0bc8 54159FE5 		ldr	r1, .L92+584
 1224 0bcc 0D20A0E3 		mov	r2, #13
 1225 0bd0 14538BE5 		str	r5, [fp, #788]	@ float
 1226 0bd4 4C059FE5 		ldr	r0, .L92+588
 1227 0bd8 FEFFFFEB 		bl	memcpy
 1228 0bdc 48159FE5 		ldr	r1, .L92+592
 1229 0be0 0D20A0E3 		mov	r2, #13
 1230 0be4 18538BE5 		str	r5, [fp, #792]	@ float
 1231 0be8 40059FE5 		ldr	r0, .L92+596
 1232 0bec FEFFFFEB 		bl	memcpy
 1233 0bf0 3C159FE5 		ldr	r1, .L92+600
 1234 0bf4 0D20A0E3 		mov	r2, #13
 1235 0bf8 1C538BE5 		str	r5, [fp, #796]	@ float
 1236 0bfc 34059FE5 		ldr	r0, .L92+604
 1237 0c00 FEFFFFEB 		bl	memcpy
 1238 0c04 30359FE5 		ldr	r3, .L92+608
 1239 0c08 30159FE5 		ldr	r1, .L92+612
 1240 0c0c 20338BE5 		str	r3, [fp, #800]	@ float
 1241 0c10 0920A0E3 		mov	r2, #9
 1242 0c14 28059FE5 		ldr	r0, .L92+616
 1243 0c18 FEFFFFEB 		bl	memcpy
 1244 0c1c ED35A0E3 		mov	r3, #994050048
 1245 0c20 613983E2 		add	r3, r3, #1589248
 1246 0c24 4D3E83E2 		add	r3, r3, #1232
 1247 0c28 24338BE5 		str	r3, [fp, #804]	@ float
 1248 0c2c 14159FE5 		ldr	r1, .L92+620
 1249 0c30 0D20A0E3 		mov	r2, #13
 1250 0c34 10059FE5 		ldr	r0, .L92+624
 1251 0c38 FEFFFFEB 		bl	memcpy
 1252 0c3c 0C159FE5 		ldr	r1, .L92+628
 1253 0c40 0D20A0E3 		mov	r2, #13
 1254 0c44 28638BE5 		str	r6, [fp, #808]	@ float
 1255 0c48 04059FE5 		ldr	r0, .L92+632
 1256 0c4c FEFFFFEB 		bl	memcpy
 1257 0c50 00159FE5 		ldr	r1, .L92+636
 1258 0c54 0D20A0E3 		mov	r2, #13
 1259 0c58 08538BE5 		str	r5, [fp, #776]	@ float
 1260 0c5c F8049FE5 		ldr	r0, .L92+640
 1261 0c60 FEFFFFEB 		bl	memcpy
 1262 0c64 F4149FE5 		ldr	r1, .L92+644
 1263 0c68 0D20A0E3 		mov	r2, #13
 1264 0c6c 0C538BE5 		str	r5, [fp, #780]	@ float
 1265 0c70 EC049FE5 		ldr	r0, .L92+648
 1266 0c74 FEFFFFEB 		bl	memcpy
 1267 0c78 A33DE0E3 		mvn	r3, #10432
 1268 0c7c D53143E2 		sub	r3, r3, #1073741877
 1269 0c80 973743E2 		sub	r3, r3, #39583744
 1270 0c84 10338BE5 		str	r3, [fp, #784]	@ float
 1271 0c88 D8149FE5 		ldr	r1, .L92+652
 1272 0c8c 0D20A0E3 		mov	r2, #13
 1273 0c90 D4049FE5 		ldr	r0, .L92+656
 1274 0c94 FEFFFFEB 		bl	memcpy
 1275 0c98 D0149FE5 		ldr	r1, .L92+660
 1276 0c9c 0F20A0E3 		mov	r2, #15
 1277 0ca0 7C538BE5 		str	r5, [fp, #892]	@ float
 1278 0ca4 C8049FE5 		ldr	r0, .L92+664
 1279 0ca8 FEFFFFEB 		bl	memcpy
 1280 0cac C4149FE5 		ldr	r1, .L92+668
 1281 0cb0 0E20A0E3 		mov	r2, #14
 1282 0cb4 A4538BE5 		str	r5, [fp, #932]	@ float
 1283 0cb8 80638BE5 		str	r6, [fp, #896]	@ float
 1284 0cbc 84538BE5 		str	r5, [fp, #900]	@ float
 1285 0cc0 88538BE5 		str	r5, [fp, #904]	@ float
 1286 0cc4 8C538BE5 		str	r5, [fp, #908]	@ float
 1287 0cc8 90538BE5 		str	r5, [fp, #912]	@ float
 1288 0ccc 94538BE5 		str	r5, [fp, #916]	@ float
 1289 0cd0 98538BE5 		str	r5, [fp, #920]	@ float
 1290 0cd4 9C538BE5 		str	r5, [fp, #924]	@ float
 1291 0cd8 A0538BE5 		str	r5, [fp, #928]	@ float
 1292 0cdc 98049FE5 		ldr	r0, .L92+672
 1293 0ce0 98449FE5 		ldr	r4, .L92+676
 1294 0ce4 FEFFFFEB 		bl	memcpy
 1295 0ce8 94149FE5 		ldr	r1, .L92+680
 1296 0cec 0D20A0E3 		mov	r2, #13
 1297 0cf0 90049FE5 		ldr	r0, .L92+684
 1298 0cf4 FEFFFFEB 		bl	memcpy
 1299 0cf8 8C149FE5 		ldr	r1, .L92+688
 1300 0cfc 0820A0E3 		mov	r2, #8
 1301 0d00 88049FE5 		ldr	r0, .L92+692
 1302 0d04 FEFFFFEB 		bl	memcpy
 1303 0d08 0400A0E1 		mov	r0, r4
 1304 0d0c 80149FE5 		ldr	r1, .L92+696
 1305 0d10 0D20A0E3 		mov	r2, #13
 1306 0d14 FEFFFFEB 		bl	memcpy
 1307 0d18 0F0084E2 		add	r0, r4, #15
 1308 0d1c 74149FE5 		ldr	r1, .L92+700
 1309 0d20 0820A0E3 		mov	r2, #8
 1310 0d24 FEFFFFEB 		bl	memcpy
 1311 0d28 1E0084E2 		add	r0, r4, #30
 1312 0d2c 68149FE5 		ldr	r1, .L92+704
 1313 0d30 0820A0E3 		mov	r2, #8
 1314 0d34 FEFFFFEB 		bl	memcpy
 1315 0d38 2D0084E2 		add	r0, r4, #45
 1316 0d3c 5C149FE5 		ldr	r1, .L92+708
 1317 0d40 0820A0E3 		mov	r2, #8
 1318 0d44 FEFFFFEB 		bl	memcpy
 1319 0d48 3C0084E2 		add	r0, r4, #60
 1320 0d4c 50149FE5 		ldr	r1, .L92+712
 1321 0d50 0820A0E3 		mov	r2, #8
 1322 0d54 FEFFFFEB 		bl	memcpy
 1323 0d58 4B0084E2 		add	r0, r4, #75
 1324 0d5c 44149FE5 		ldr	r1, .L92+716
 1325 0d60 0820A0E3 		mov	r2, #8
 1326 0d64 FEFFFFEB 		bl	memcpy
 1327 0d68 5A0084E2 		add	r0, r4, #90
 1328 0d6c 38149FE5 		ldr	r1, .L92+720
 1329 0d70 0820A0E3 		mov	r2, #8
 1330 0d74 FEFFFFEB 		bl	memcpy
 1331 0d78 420E44E2 		sub	r0, r4, #1056
 1332 0d7c 2C149FE5 		ldr	r1, .L92+724
 1333 0d80 0B20A0E3 		mov	r2, #11
 1334 0d84 0A6604E5 		str	r6, [r4, #-1546]	@ float
 1335 0d88 090040E2 		sub	r0, r0, #9
 1336 0d8c FEFFFFEB 		bl	memcpy
 1337 0d90 410E44E2 		sub	r0, r4, #1040
 1338 0d94 18149FE5 		ldr	r1, .L92+728
 1339 0d98 0D20A0E3 		mov	r2, #13
 1340 0d9c 065604E5 		str	r5, [r4, #-1542]	@ float
 1341 0da0 0A0040E2 		sub	r0, r0, #10
 1342 0da4 FEFFFFEB 		bl	memcpy
 1343 0da8 010B44E2 		sub	r0, r4, #1024
 1344 0dac 04149FE5 		ldr	r1, .L92+732
 1345 0db0 0F20A0E3 		mov	r2, #15
 1346 0db4 025604E5 		str	r5, [r4, #-1538]	@ float
 1347 0db8 0B0040E2 		sub	r0, r0, #11
 1348 0dbc FEFFFFEB 		bl	memcpy
 1349 0dc0 FF0F44E2 		sub	r0, r4, #1020
 1350 0dc4 F0139FE5 		ldr	r1, .L92+736
 1351 0dc8 0C20A0E3 		mov	r2, #12
 1352 0dcc FE6504E5 		str	r6, [r4, #-1534]	@ float
 1353 0dd0 FEFFFFEB 		bl	memcpy
 1354 0dd4 FB0F44E2 		sub	r0, r4, #1004
 1355 0dd8 E0139FE5 		ldr	r1, .L92+740
 1356 0ddc 0B20A0E3 		mov	r2, #11
 1357 0de0 FA6504E5 		str	r6, [r4, #-1530]	@ float
 1358 0de4 010040E2 		sub	r0, r0, #1
 1359 0de8 FEFFFFEB 		bl	memcpy
 1360 0dec 5A0044E2 		sub	r0, r4, #90
 1361 0df0 CC139FE5 		ldr	r1, .L92+744
 1362 0df4 0C20A0E3 		mov	r2, #12
 1363 0df8 065504E5 		str	r5, [r4, #-1286]	@ float
 1364 0dfc FEFFFFEB 		bl	memcpy
 1365 0e00 4B0044E2 		sub	r0, r4, #75
 1366 0e04 BC139FE5 		ldr	r1, .L92+748
 1367 0e08 0F20A0E3 		mov	r2, #15
 1368 0e0c 02A504E5 		str	sl, [r4, #-1282]	@ float
 1369 0e10 FEFFFFEB 		bl	memcpy
 1370 0e14 F00084E2 		add	r0, r4, #240
 1371 0e18 AC139FE5 		ldr	r1, .L92+752
 1372 0e1c 0920A0E3 		mov	r2, #9
 1373 0e20 FEFFFFEB 		bl	memcpy
 1374 0e24 470F84E2 		add	r0, r4, #284
 1375 0e28 A0139FE5 		ldr	r1, .L92+756
 1376 0e2c 0E20A0E3 		mov	r2, #14
 1377 0e30 AE5404E5 		str	r5, [r4, #-1198]	@ float
 1378 0e34 010080E2 		add	r0, r0, #1
 1379 0e38 FEFFFFEB 		bl	memcpy
 1380 0e3c 4B0F84E2 		add	r0, r4, #300
 1381 0e40 8C139FE5 		ldr	r1, .L92+760
 1382 0e44 0E20A0E3 		mov	r2, #14
 1383 0e48 FEFFFFEB 		bl	memcpy
 1384 0e4c 4E0F84E2 		add	r0, r4, #312
 1385 0e50 80139FE5 		ldr	r1, .L92+764
 1386 0e54 0E20A0E3 		mov	r2, #14
 1387 0e58 030080E2 		add	r0, r0, #3
 1388 0e5c FEFFFFEB 		bl	memcpy
 1389 0e60 520F84E2 		add	r0, r4, #328
 1390 0e64 70139FE5 		ldr	r1, .L92+768
 1391 0e68 0E20A0E3 		mov	r2, #14
 1392 0e6c 020080E2 		add	r0, r0, #2
 1393 0e70 FEFFFFEB 		bl	memcpy
 1394 0e74 450E44E2 		sub	r0, r4, #1104
 1395 0e78 60139FE5 		ldr	r1, .L92+772
 1396 0e7c 0E20A0E3 		mov	r2, #14
 1397 0e80 165604E5 		str	r5, [r4, #-1558]	@ float
 1398 0e84 A25404E5 		str	r5, [r4, #-1186]	@ float
 1399 0e88 9E5404E5 		str	r5, [r4, #-1182]	@ float
 1400 0e8c 9A5404E5 		str	r5, [r4, #-1178]	@ float
 1401 0e90 965404E5 		str	r5, [r4, #-1174]	@ float
 1402 0e94 060040E2 		sub	r0, r0, #6
 1403 0e98 FEFFFFEB 		bl	memcpy
 1404 0e9c 8FFDFFEA 		b	.L89
 1405              	.L84:
 1406 0ea0 0030A0E3 		mov	r3, #0
 1407 0ea4 64328BE5 		str	r3, [fp, #612]	@ float
 1408 0ea8 FEFFFFEB 		bl	param_size_check
 1409 0eac 000050E3 		cmp	r0, #0
 1410 0eb0 0600001A 		bne	.L91
 1411 0eb4 28039FE5 		ldr	r0, .L92+776
 1412 0eb8 FEFFFFEB 		bl	debug_message_buffer
 1413 0ebc 87FDFFEA 		b	.L89
 1414              	.L85:
 1415 0ec0 0030A0E3 		mov	r3, #0
 1416 0ec4 64328BE5 		str	r3, [fp, #612]	@ float
 1417 0ec8 FEFFFFEB 		bl	eeprom_check_start
 1418 0ecc 83FDFFEA 		b	.L89
 1419              	.L91:
 1420 0ed0 10039FE5 		ldr	r0, .L92+780
 1421 0ed4 FEFFFFEB 		bl	debug_message_buffer
 1422 0ed8 80FDFFEA 		b	.L89
 1423              	.L93:
 1424              		.align	2
 1425              	.L92:
 1426 0edc 00000000 		.word	global_data
 1427 0ee0 3C000000 		.word	.LC2
 1428 0ee4 5C000000 		.word	.LC3
 1429 0ee8 80000000 		.word	.LC4
 1430 0eec 9C000000 		.word	.LC5
 1431 0ef0 E8030000 		.word	global_data+1000
 1432 0ef4 A4000000 		.word	.LC6
 1433 0ef8 F7030000 		.word	global_data+1015
 1434 0efc B0000000 		.word	.LC7
 1435 0f00 06040000 		.word	global_data+1030
 1436 0f04 BC000000 		.word	.LC8
 1437 0f08 15040000 		.word	global_data+1045
 1438 0f0c C8000000 		.word	.LC9
 1439 0f10 E3080000 		.word	global_data+2275
 1440 0f14 D8000000 		.word	.LC10
 1441 0f18 33040000 		.word	global_data+1075
 1442 0f1c E4000000 		.word	.LC11
 1443 0f20 42040000 		.word	global_data+1090
 1444 0f24 F0000000 		.word	.LC12
 1445 0f28 F2080000 		.word	global_data+2290
 1446 0f2c 00010000 		.word	.LC13
 1447 0f30 01090000 		.word	global_data+2305
 1448 0f34 10010000 		.word	.LC14
 1449 0f38 10090000 		.word	global_data+2320
 1450 0f3c 20010000 		.word	.LC15
 1451 0f40 1F090000 		.word	global_data+2335
 1452 0f44 30010000 		.word	.LC16
 1453 0f48 2E090000 		.word	global_data+2350
 1454 0f4c 40010000 		.word	.LC17
 1455 0f50 3D090000 		.word	global_data+2365
 1456 0f54 4C010000 		.word	.LC18
 1457 0f58 4C090000 		.word	global_data+2380
 1458 0f5c 5C010000 		.word	.LC19
 1459 0f60 9C040000 		.word	global_data+1180
 1460 0f64 6C010000 		.word	.LC20
 1461 0f68 5B090000 		.word	global_data+2395
 1462 0f6c 7C010000 		.word	.LC21
 1463 0f70 79090000 		.word	global_data+2425
 1464 0f74 8C010000 		.word	.LC22
 1465 0f78 88090000 		.word	global_data+2440
 1466 0f7c 94010000 		.word	.LC23
 1467 0f80 22060000 		.word	global_data+1570
 1468 0f84 A4010000 		.word	.LC24
 1469 0f88 31060000 		.word	global_data+1585
 1470 0f8c B0010000 		.word	.LC25
 1471 0f90 40060000 		.word	global_data+1600
 1472 0f94 BC010000 		.word	.LC26
 1473 0f98 4F060000 		.word	global_data+1615
 1474 0f9c C8010000 		.word	.LC27
 1475 0fa0 5E060000 		.word	global_data+1630
 1476 0fa4 D4010000 		.word	.LC28
 1477 0fa8 6D060000 		.word	global_data+1645
 1478 0fac E0010000 		.word	.LC29
 1479 0fb0 7C060000 		.word	global_data+1660
 1480 0fb4 F0010000 		.word	.LC30
 1481 0fb8 AB040000 		.word	global_data+1195
 1482 0fbc FC010000 		.word	.LC31
 1483 0fc0 BA040000 		.word	global_data+1210
 1484 0fc4 08020000 		.word	.LC32
 1485 0fc8 C9040000 		.word	global_data+1225
 1486 0fcc 9A99993E 		.word	1050253722
 1487 0fd0 14020000 		.word	.LC33
 1488 0fd4 D8040000 		.word	global_data+1240
 1489 0fd8 20020000 		.word	.LC34
 1490 0fdc E7040000 		.word	global_data+1255
 1491 0fe0 2C020000 		.word	.LC35
 1492 0fe4 8C050000 		.word	global_data+1420
 1493 0fe8 CDCCCC3D 		.word	1036831949
 1494 0fec 3C020000 		.word	.LC36
 1495 0ff0 9B050000 		.word	global_data+1435
 1496 0ff4 4C020000 		.word	.LC37
 1497 0ff8 AA050000 		.word	global_data+1450
 1498 0ffc 5C020000 		.word	.LC38
 1499 1000 B9050000 		.word	global_data+1465
 1500 1004 6C020000 		.word	.LC39
 1501 1008 C8050000 		.word	global_data+1480
 1502 100c 7C020000 		.word	.LC40
 1503 1010 D7050000 		.word	global_data+1495
 1504 1014 8C020000 		.word	.LC41
 1505 1018 E6050000 		.word	global_data+1510
 1506 101c 9C020000 		.word	.LC42
 1507 1020 F5050000 		.word	global_data+1525
 1508 1024 AC020000 		.word	.LC43
 1509 1028 04060000 		.word	global_data+1540
 1510 102c BC020000 		.word	.LC44
 1511 1030 13060000 		.word	global_data+1555
 1512 1034 CDCC4C3E 		.word	1045220557
 1513 1038 CC020000 		.word	.LC45
 1514 103c F6040000 		.word	global_data+1270
 1515 1040 D8020000 		.word	.LC46
 1516 1044 05050000 		.word	global_data+1285
 1517 1048 E4020000 		.word	.LC47
 1518 104c 14050000 		.word	global_data+1300
 1519 1050 F0020000 		.word	.LC48
 1520 1054 23050000 		.word	global_data+1315
 1521 1058 FC020000 		.word	.LC49
 1522 105c 32050000 		.word	global_data+1330
 1523 1060 08030000 		.word	.LC50
 1524 1064 41050000 		.word	global_data+1345
 1525 1068 14030000 		.word	.LC51
 1526 106c 50050000 		.word	global_data+1360
 1527 1070 20030000 		.word	.LC52
 1528 1074 5F050000 		.word	global_data+1375
 1529 1078 2C030000 		.word	.LC53
 1530 107c 6E050000 		.word	global_data+1390
 1531 1080 3C030000 		.word	.LC54
 1532 1084 7D050000 		.word	global_data+1405
 1533 1088 4C030000 		.word	.LC55
 1534 108c 12070000 		.word	global_data+1810
 1535 1090 58030000 		.word	.LC56
 1536 1094 21070000 		.word	global_data+1825
 1537 1098 64030000 		.word	.LC57
 1538 109c 30070000 		.word	global_data+1840
 1539 10a0 70030000 		.word	.LC58
 1540 10a4 3F070000 		.word	global_data+1855
 1541 10a8 7C030000 		.word	.LC59
 1542 10ac 8A070000 		.word	global_data+1930
 1543 10b0 88030000 		.word	.LC60
 1544 10b4 99070000 		.word	global_data+1945
 1545 10b8 94030000 		.word	.LC61
 1546 10bc A8070000 		.word	global_data+1960
 1547 10c0 8F11F646 		.word	1190531471
 1548 10c4 BC8EE546 		.word	1189449404
 1549 10c8 388EEB46 		.word	1189842488
 1550 10cc A0030000 		.word	.LC62
 1551 10d0 4E070000 		.word	global_data+1870
 1552 10d4 B0030000 		.word	.LC63
 1553 10d8 5D070000 		.word	global_data+1885
 1554 10dc C0030000 		.word	.LC64
 1555 10e0 6C070000 		.word	global_data+1900
 1556 10e4 D0030000 		.word	.LC65
 1557 10e8 7B070000 		.word	global_data+1915
 1558 10ec E0030000 		.word	.LC66
 1559 10f0 B7070000 		.word	global_data+1975
 1560 10f4 F0030000 		.word	.LC67
 1561 10f8 C6070000 		.word	global_data+1990
 1562 10fc FC030000 		.word	.LC68
 1563 1100 D5070000 		.word	global_data+2005
 1564 1104 08040000 		.word	.LC69
 1565 1108 E4070000 		.word	global_data+2020
 1566 110c 14040000 		.word	.LC70
 1567 1110 F3070000 		.word	global_data+2035
 1568 1114 24040000 		.word	.LC71
 1569 1118 02080000 		.word	global_data+2050
 1570 111c 34040000 		.word	.LC72
 1571 1120 11080000 		.word	global_data+2065
 1572 1124 44040000 		.word	.LC73
 1573 1128 B8060000 		.word	global_data+1720
 1574 112c 54040000 		.word	.LC74
 1575 1130 C7060000 		.word	global_data+1735
 1576 1134 64040000 		.word	.LC75
 1577 1138 D6060000 		.word	global_data+1750
 1578 113c 3333733F 		.word	1064514355
 1579 1140 74040000 		.word	.LC76
 1580 1144 E5060000 		.word	global_data+1765
 1581 1148 80040000 		.word	.LC77
 1582 114c F4060000 		.word	global_data+1780
 1583 1150 90040000 		.word	.LC78
 1584 1154 03070000 		.word	global_data+1795
 1585 1158 A0040000 		.word	.LC79
 1586 115c 8B060000 		.word	global_data+1675
 1587 1160 B0040000 		.word	.LC80
 1588 1164 9A060000 		.word	global_data+1690
 1589 1168 C0040000 		.word	.LC81
 1590 116c A9060000 		.word	global_data+1705
 1591 1170 D0040000 		.word	.LC82
 1592 1174 3E080000 		.word	global_data+2110
 1593 1178 E0040000 		.word	.LC83
 1594 117c 4D080000 		.word	global_data+2125
 1595 1180 7A080000 		.word	global_data+2170
 1596 1184 F0040000 		.word	.LC84
 1597 1188 5C080000 		.word	global_data+2140
 1598 118c 00050000 		.word	.LC85
 1599 1190 6B080000 		.word	global_data+2155
 1600 1194 08050000 		.word	.LC86
 1601 1198 18050000 		.word	.LC87
 1602 119c 20050000 		.word	.LC88
 1603 11a0 28050000 		.word	.LC89
 1604 11a4 30050000 		.word	.LC90
 1605 11a8 38050000 		.word	.LC91
 1606 11ac 40050000 		.word	.LC92
 1607 11b0 48050000 		.word	.LC93
 1608 11b4 54050000 		.word	.LC94
 1609 11b8 64050000 		.word	.LC95
 1610 11bc 74050000 		.word	.LC96
 1611 11c0 80050000 		.word	.LC97
 1612 11c4 8C050000 		.word	.LC98
 1613 11c8 98050000 		.word	.LC99
 1614 11cc A8050000 		.word	.LC100
 1615 11d0 B4050000 		.word	.LC101
 1616 11d4 C4050000 		.word	.LC102
 1617 11d8 D4050000 		.word	.LC103
 1618 11dc E4050000 		.word	.LC104
 1619 11e0 F4050000 		.word	.LC105
 1620 11e4 10060000 		.word	.LC107
 1621 11e8 04060000 		.word	.LC106
 1623              		.global	__eqsf2
 1624              		.section	.rodata.str1.4
 1625              		.align	2
 1626              	.LC108:
 1627 061c 52455345 		.ascii	"RESET command received\000"
 1627      5420636F 
 1627      6D6D616E 
 1627      64207265 
 1627      63656976 
 1628 0633 00       		.align	2
 1629              	.LC109:
 1630 0634 52455345 		.ascii	"RESET count down: %u\000"
 1630      5420636F 
 1630      756E7420 
 1630      646F776E 
 1630      3A202575 
 1631 0649 000000   		.align	2
 1632              	.LC110:
 1633 064c 52455345 		.ascii	"RESET command REFUSED (I'm flying!)\000"
 1633      5420636F 
 1633      6D6D616E 
 1633      64205245 
 1633      46555345 
 1634              		.text
 1635              		.align	2
 1636              		.global	handle_reset_request
 1638              	handle_reset_request:
 1639              		@ Function supports interworking.
 1640              		@ args = 0, pretend = 0, frame = 0
 1641              		@ frame_needed = 0, uses_anonymous_args = 0
 1642 11ec 30402DE9 		stmfd	sp!, {r4, r5, lr}
 1643 11f0 94409FE5 		ldr	r4, .L108
 1644 11f4 FE15A0E3 		mov	r1, #1065353216
 1645 11f8 640294E5 		ldr	r0, [r4, #612]	@ float
 1646 11fc FEFFFFEB 		bl	__eqsf2
 1647 1200 000050E3 		cmp	r0, #0
 1648 1204 0A00001A 		bne	.L95
 1649 1208 5C3194E5 		ldr	r3, [r4, #348]
 1650 120c 030053E3 		cmp	r3, #3
 1651 1210 78509FE5 		ldr	r5, .L108+4
 1652 1214 78009FE5 		ldr	r0, .L108+8
 1653 1218 0800000A 		beq	.L105
 1654 121c 6C209FE5 		ldr	r2, .L108+4
 1655 1220 0030A0E3 		mov	r3, #0
 1656 1224 0010A0E3 		mov	r1, #0
 1657 1228 003082E5 		str	r3, [r2, #0]
 1658 122c 641284E5 		str	r1, [r4, #612]	@ float
 1659 1230 FEFFFFEB 		bl	debug_message_buffer
 1660              	.L95:
 1661 1234 0000A0E3 		mov	r0, #0
 1662 1238 3040BDE8 		ldmfd	sp!, {r4, r5, lr}
 1663 123c 1EFF2FE1 		bx	lr
 1664              	.L105:
 1665 1240 003095E5 		ldr	r3, [r5, #0]
 1666 1244 000053E3 		cmp	r3, #0
 1667 1248 48009FE5 		ldr	r0, .L108+12
 1668 124c 0800000A 		beq	.L106
 1669 1250 010053E3 		cmp	r3, #1
 1670 1254 0A00000A 		beq	.L107
 1671              	.L102:
 1672 1258 003095E5 		ldr	r3, [r5, #0]
 1673 125c 013043E2 		sub	r3, r3, #1
 1674 1260 0310A0E1 		mov	r1, r3
 1675 1264 30009FE5 		ldr	r0, .L108+16
 1676 1268 003085E5 		str	r3, [r5, #0]
 1677 126c FEFFFFEB 		bl	debug_message_buffer_sprintf
 1678 1270 EFFFFFEA 		b	.L95
 1679              	.L106:
 1680 1274 FEFFFFEB 		bl	debug_message_buffer
 1681 1278 0730A0E3 		mov	r3, #7
 1682 127c 003085E5 		str	r3, [r5, #0]
 1683 1280 F4FFFFEA 		b	.L102
 1684              	.L107:
 1685 1284 FEFFFFEB 		bl	watchdog_wait_reset
 1686 1288 F2FFFFEA 		b	.L102
 1687              	.L109:
 1688              		.align	2
 1689              	.L108:
 1690 128c 00000000 		.word	global_data
 1691 1290 68000000 		.word	reset_countdown.20983
 1692 1294 4C060000 		.word	.LC110
 1693 1298 1C060000 		.word	.LC108
 1694 129c 34060000 		.word	.LC109
 1696              		.section	.rodata.str1.4
 1697              		.align	2
 1698              	.LC111:
 1699 0670 6174745F 		.ascii	"att_s_pos\000"
 1699      735F706F 
 1699      7300
 1700 067a 0000     		.align	2
 1701              	.LC112:
 1702 067c 6174745F 		.ascii	"att_s_rm\000"
 1702      735F726D 
 1702      00
 1703 0685 000000   		.align	2
 1704              	.LC113:
 1705 0688 6174745F 		.ascii	"att_s_off\000"
 1705      735F6F66 
 1705      6600
 1706 0692 0000     		.align	2
 1707              	.LC114:
 1708 0694 6174745F 		.ascii	"att_s\000"
 1708      7300
 1709 069a 0000     		.align	2
 1710              	.LC115:
 1711 069c 706F735F 		.ascii	"pos_sp\000"
 1711      737000
 1712 06a3 00       		.align	2
 1713              	.LC116:
 1714 06a4 696E745F 		.ascii	"int_att\000"
 1714      61747400 
 1715              		.align	2
 1716              	.LC117:
 1717 06ac 696E745F 		.ascii	"int_pos\000"
 1717      706F7300 
 1718              		.align	2
 1719              	.LC118:
 1720 06b4 696E745F 		.ascii	"int_yawp\000"
 1720      79617770 
 1720      00
 1721 06bd 000000   		.text
 1722              		.align	2
 1723              		.global	communication_send_controller_feedback
 1725              	communication_send_controller_feedback:
 1726              		@ Function supports interworking.
 1727              		@ args = 0, pretend = 0, frame = 36
 1728              		@ frame_needed = 0, uses_anonymous_args = 0
 1729 12a0 F0402DE9 		stmfd	sp!, {r4, r5, r6, r7, lr}
 1730 12a4 30419FE5 		ldr	r4, .L123
 1731 12a8 FE15A0E3 		mov	r1, #1065353216
 1732 12ac 24D04DE2 		sub	sp, sp, #36
 1733 12b0 8C0394E5 		ldr	r0, [r4, #908]	@ float
 1734 12b4 FEFFFFEB 		bl	__eqsf2
 1735 12b8 000050E3 		cmp	r0, #0
 1736 12bc D41084E2 		add	r1, r4, #212
 1737 12c0 18019FE5 		ldr	r0, .L123+4
 1738 12c4 3500000A 		beq	.L121
 1739              	.L111:
 1740 12c8 FE15A0E3 		mov	r1, #1065353216
 1741 12cc A00394E5 		ldr	r0, [r4, #928]	@ float
 1742 12d0 FEFFFFEB 		bl	__eqsf2
 1743 12d4 000050E3 		cmp	r0, #0
 1744 12d8 801084E2 		add	r1, r4, #128
 1745 12dc 00019FE5 		ldr	r0, .L123+8
 1746 12e0 2B00000A 		beq	.L122
 1747              	.L114:
 1748 12e4 940394E5 		ldr	r0, [r4, #916]	@ float
 1749 12e8 FE15A0E3 		mov	r1, #1065353216
 1750 12ec FEFFFFEB 		bl	__eqsf2
 1751 12f0 000050E3 		cmp	r0, #0
 1752 12f4 0070A0E3 		mov	r7, #0
 1753 12f8 0D60A0E1 		mov	r6, sp
 1754 12fc E4009FE5 		ldr	r0, .L123+12
 1755 1300 2000001A 		bne	.L120
 1756 1304 E0309FE5 		ldr	r3, .L123+16
 1757 1308 E0209FE5 		ldr	r2, .L123+20
 1758 130c 14C093E5 		ldr	ip, [r3, #20]	@ float
 1759 1310 DC309FE5 		ldr	r3, .L123+24
 1760 1314 141092E5 		ldr	r1, [r2, #20]	@ float
 1761 1318 142093E5 		ldr	r2, [r3, #20]	@ float
 1762 131c D4309FE5 		ldr	r3, .L123+28
 1763 1320 08208DE5 		str	r2, [sp, #8]	@ float
 1764 1324 D0209FE5 		ldr	r2, .L123+32
 1765 1328 145093E5 		ldr	r5, [r3, #20]	@ float
 1766 132c 144092E5 		ldr	r4, [r2, #20]	@ float
 1767 1330 C8309FE5 		ldr	r3, .L123+36
 1768 1334 C8209FE5 		ldr	r2, .L123+40
 1769 1338 00C08DE5 		str	ip, [sp, #0]	@ float
 1770 133c 04108DE5 		str	r1, [sp, #4]	@ float
 1771 1340 14E093E5 		ldr	lr, [r3, #20]	@ float
 1772 1344 14C092E5 		ldr	ip, [r2, #20]	@ float
 1773 1348 0E009DE8 		ldmia	sp, {r1, r2, r3}
 1774 134c 20E08DE5 		str	lr, [sp, #32]	@ float
 1775 1350 0CC08DE5 		str	ip, [sp, #12]	@ float
 1776 1354 18508DE5 		str	r5, [sp, #24]	@ float
 1777 1358 1C408DE5 		str	r4, [sp, #28]	@ float
 1778 135c 14708DE5 		str	r7, [sp, #20]	@ float
 1779 1360 10708DE5 		str	r7, [sp, #16]	@ float
 1780 1364 FEFFFFEB 		bl	debug_vect
 1781 1368 18C08DE2 		add	ip, sp, #24
 1782 136c 0E009CE8 		ldmia	ip, {r1, r2, r3}
 1783 1370 90009FE5 		ldr	r0, .L123+44
 1784 1374 FEFFFFEB 		bl	debug_vect
 1785 1378 0CC08DE2 		add	ip, sp, #12
 1786 137c 88009FE5 		ldr	r0, .L123+48
 1787 1380 0E009CE8 		ldmia	ip, {r1, r2, r3}
 1788 1384 FEFFFFEB 		bl	debug_vect
 1789              	.L120:
 1790 1388 24D08DE2 		add	sp, sp, #36
 1791 138c F040BDE8 		ldmfd	sp!, {r4, r5, r6, r7, lr}
 1792 1390 1EFF2FE1 		bx	lr
 1793              	.L122:
 1794 1394 0E0091E8 		ldmia	r1, {r1, r2, r3}
 1795 1398 FEFFFFEB 		bl	debug_vect
 1796 139c D0FFFFEA 		b	.L114
 1797              	.L121:
 1798 13a0 0E0091E8 		ldmia	r1, {r1, r2, r3}
 1799 13a4 FEFFFFEB 		bl	debug_vect
 1800 13a8 F8C084E2 		add	ip, r4, #248
 1801 13ac 0E009CE8 		ldmia	ip, {r1, r2, r3}
 1802 13b0 58009FE5 		ldr	r0, .L123+52
 1803 13b4 FEFFFFEB 		bl	debug_vect
 1804 13b8 41CF84E2 		add	ip, r4, #260
 1805 13bc 0E009CE8 		ldmia	ip, {r1, r2, r3}
 1806 13c0 4C009FE5 		ldr	r0, .L123+56
 1807 13c4 FEFFFFEB 		bl	debug_vect
 1808 13c8 11CE84E2 		add	ip, r4, #272
 1809 13cc 44009FE5 		ldr	r0, .L123+60
 1810 13d0 0E009CE8 		ldmia	ip, {r1, r2, r3}
 1811 13d4 FEFFFFEB 		bl	debug_vect
 1812 13d8 BAFFFFEA 		b	.L111
 1813              	.L124:
 1814              		.align	2
 1815              	.L123:
 1816 13dc 00000000 		.word	global_data
 1817 13e0 70060000 		.word	.LC111
 1818 13e4 9C060000 		.word	.LC115
 1819 13e8 A4060000 		.word	.LC116
 1820 13ec 00000000 		.word	roll_controller
 1821 13f0 00000000 		.word	nick_controller
 1822 13f4 00000000 		.word	yaw_speed_controller
 1823 13f8 00000000 		.word	x_axis_controller
 1824 13fc 00000000 		.word	y_axis_controller
 1825 1400 00000000 		.word	z_axis_controller
 1826 1404 00000000 		.word	yaw_pos_controller
 1827 1408 AC060000 		.word	.LC117
 1828 140c B4060000 		.word	.LC118
 1829 1410 7C060000 		.word	.LC112
 1830 1414 88060000 		.word	.LC113
 1831 1418 94060000 		.word	.LC114
 1833              		.align	2
 1834              		.global	position_integrate
 1836              	position_integrate:
 1837              		@ Function supports interworking.
 1838              		@ args = 0, pretend = 0, frame = 12
 1839              		@ frame_needed = 0, uses_anonymous_args = 0
 1840 141c 04E02DE5 		str	lr, [sp, #-4]!
 1841 1420 0CD04DE2 		sub	sp, sp, #12
 1842 1424 0010A0E1 		mov	r1, r0
 1843 1428 0D20A0E1 		mov	r2, sp
 1844 142c 0300A0E1 		mov	r0, r3
 1845 1430 FEFFFFEB 		bl	body2navi
 1846 1434 0CD08DE2 		add	sp, sp, #12
 1847 1438 04E09DE4 		ldr	lr, [sp], #4
 1848 143c 1EFF2FE1 		bx	lr
 1850              		.align	2
 1851              		.global	control_camera_angle
 1853              	control_camera_angle:
 1854              		@ Function supports interworking.
 1855              		@ args = 0, pretend = 0, frame = 0
 1856              		@ frame_needed = 0, uses_anonymous_args = 0
 1857 1440 F0402DE9 		stmfd	sp!, {r4, r5, r6, r7, lr}
 1858 1444 94409FE5 		ldr	r4, .L129
 1859 1448 0A76E0E3 		mvn	r7, #10485760
 1860 144c 5C1094E5 		ldr	r1, [r4, #92]	@ float
 1861 1450 DC0394E5 		ldr	r0, [r4, #988]	@ float
 1862 1454 997C47E2 		sub	r7, r7, #39168
 1863 1458 FEFFFFEB 		bl	__mulsf3
 1864 145c 337147E2 		sub	r7, r7, #-1073741812
 1865 1460 D81394E5 		ldr	r1, [r4, #984]	@ float
 1866 1464 4364A0E3 		mov	r6, #1124073472
 1867 1468 1153A0E3 		mov	r5, #1140850688
 1868 146c FEFFFFEB 		bl	__addsf3
 1869 1470 FA6886E2 		add	r6, r6, #16384000
 1870 1474 0710A0E1 		mov	r1, r7
 1871 1478 BB5885E2 		add	r5, r5, #12255232
 1872 147c FEFFFFEB 		bl	__divsf3
 1873 1480 025985E2 		add	r5, r5, #32768
 1874 1484 0610A0E1 		mov	r1, r6
 1875 1488 FEFFFFEB 		bl	__mulsf3
 1876 148c 0510A0E1 		mov	r1, r5
 1877 1490 FEFFFFEB 		bl	__addsf3
 1878 1494 FEFFFFEB 		bl	__fixunssfsi
 1879 1498 0410A0E3 		mov	r1, #4
 1880 149c FEFFFFEB 		bl	pwm_set_channel
 1881 14a0 601094E5 		ldr	r1, [r4, #96]	@ float
 1882 14a4 E40394E5 		ldr	r0, [r4, #996]	@ float
 1883 14a8 FEFFFFEB 		bl	__mulsf3
 1884 14ac E01394E5 		ldr	r1, [r4, #992]	@ float
 1885 14b0 FEFFFFEB 		bl	__addsf3
 1886 14b4 0710A0E1 		mov	r1, r7
 1887 14b8 FEFFFFEB 		bl	__divsf3
 1888 14bc 0610A0E1 		mov	r1, r6
 1889 14c0 FEFFFFEB 		bl	__mulsf3
 1890 14c4 0510A0E1 		mov	r1, r5
 1891 14c8 FEFFFFEB 		bl	__addsf3
 1892 14cc FEFFFFEB 		bl	__fixunssfsi
 1893 14d0 0510A0E3 		mov	r1, #5
 1894 14d4 FEFFFFEB 		bl	pwm_set_channel
 1895 14d8 F040BDE8 		ldmfd	sp!, {r4, r5, r6, r7, lr}
 1896 14dc 1EFF2FE1 		bx	lr
 1897              	.L130:
 1898              		.align	2
 1899              	.L129:
 1900 14e0 00000000 		.word	global_data
 1902              		.align	2
 1903              		.global	rc_to_255
 1905              	rc_to_255:
 1906              		@ Function supports interworking.
 1907              		@ args = 0, pretend = 0, frame = 0
 1908              		@ frame_needed = 0, uses_anonymous_args = 0
 1909 14e4 10402DE9 		stmfd	sp!, {r4, lr}
 1910 14e8 0040A0E1 		mov	r4, r0
 1911 14ec FEFFFFEB 		bl	ppm_get_channel
 1912 14f0 7B3EA0E3 		mov	r3, #1968
 1913 14f4 013083E2 		add	r3, r3, #1
 1914 14f8 030050E1 		cmp	r0, r3
 1915 14fc 0400A0E1 		mov	r0, r4
 1916 1500 0A0000DA 		ble	.L139
 1917 1504 0400A0E1 		mov	r0, r4
 1918 1508 FEFFFFEB 		bl	ppm_get_channel
 1919 150c 7B3EA0E3 		mov	r3, #1968
 1920 1510 013083E2 		add	r3, r3, #1
 1921 1514 030050E1 		cmp	r0, r3
 1922 1518 0400A0E1 		mov	r0, r4
 1923 151c 7F30A0E3 		mov	r3, #127
 1924 1520 1D0000DA 		ble	.L140
 1925              	.L135:
 1926 1524 0300A0E1 		mov	r0, r3
 1927 1528 1040BDE8 		ldmfd	sp!, {r4, lr}
 1928 152c 1EFF2FE1 		bx	lr
 1929              	.L139:
 1930 1530 FEFFFFEB 		bl	ppm_get_channel
 1931 1534 5D0E40E2 		sub	r0, r0, #1488
 1932 1538 0C0040E2 		sub	r0, r0, #12
 1933 153c FEFFFFEB 		bl	__floatsisf
 1934 1540 4314A0E3 		mov	r1, #1124073472
 1935 1544 FA1881E2 		add	r1, r1, #16384000
 1936 1548 FEFFFFEB 		bl	__divsf3
 1937 154c FE15A0E3 		mov	r1, #1065353216
 1938 1550 FEFFFFEB 		bl	__addsf3
 1939 1554 3F14A0E3 		mov	r1, #1056964608
 1940 1558 FEFFFFEB 		bl	__mulsf3
 1941 155c 4314A0E3 		mov	r1, #1124073472
 1942 1560 7F1881E2 		add	r1, r1, #8323072
 1943 1564 FEFFFFEB 		bl	__mulsf3
 1944 1568 0010A0E3 		mov	r1, #0
 1945 156c FEFFFFEB 		bl	__gtsf2
 1946 1570 000050E3 		cmp	r0, #0
 1947 1574 0030A0E3 		mov	r3, #0
 1948 1578 E9FFFFDA 		ble	.L135
 1949 157c 0400A0E1 		mov	r0, r4
 1950 1580 FEFFFFEB 		bl	ppm_get_channel
 1951 1584 7B3EA0E3 		mov	r3, #1968
 1952 1588 013083E2 		add	r3, r3, #1
 1953 158c 030050E1 		cmp	r0, r3
 1954 1590 0400A0E1 		mov	r0, r4
 1955 1594 7F30A0E3 		mov	r3, #127
 1956 1598 E1FFFFCA 		bgt	.L135
 1957              	.L140:
 1958 159c FEFFFFEB 		bl	ppm_get_channel
 1959 15a0 5D0E40E2 		sub	r0, r0, #1488
 1960 15a4 0C0040E2 		sub	r0, r0, #12
 1961 15a8 FEFFFFEB 		bl	__floatsisf
 1962 15ac 4314A0E3 		mov	r1, #1124073472
 1963 15b0 FA1881E2 		add	r1, r1, #16384000
 1964 15b4 FEFFFFEB 		bl	__divsf3
 1965 15b8 FE15A0E3 		mov	r1, #1065353216
 1966 15bc FEFFFFEB 		bl	__addsf3
 1967 15c0 3F14A0E3 		mov	r1, #1056964608
 1968 15c4 FEFFFFEB 		bl	__mulsf3
 1969 15c8 4314A0E3 		mov	r1, #1124073472
 1970 15cc 7F1881E2 		add	r1, r1, #8323072
 1971 15d0 FEFFFFEB 		bl	__mulsf3
 1972 15d4 FEFFFFEB 		bl	__fixunssfsi
 1973 15d8 FF3000E2 		and	r3, r0, #255
 1974 15dc D0FFFFEA 		b	.L135
 1976              		.align	2
 1977              		.global	communication_send_attitude_position
 1979              	communication_send_attitude_position:
 1980              		@ Function supports interworking.
 1981              		@ args = 0, pretend = 0, frame = 464
 1982              		@ frame_needed = 0, uses_anonymous_args = 0
 1983 15e0 F04F2DE9 		stmfd	sp!, {r4, r5, r6, r7, r8, r9, sl, fp, lr}
 1984 15e4 D8269FE5 		ldr	r2, .L167
 1985 15e8 1DDE4DE2 		sub	sp, sp, #464
 1986 15ec 9C008DE5 		str	r0, [sp, #156]
 1987 15f0 A0108DE5 		str	r1, [sp, #160]
 1988 15f4 800392E5 		ldr	r0, [r2, #896]	@ float
 1989 15f8 FE15A0E3 		mov	r1, #1065353216
 1990 15fc FEFFFFEB 		bl	__eqsf2
 1991 1600 000050E3 		cmp	r0, #0
 1992 1604 DA00000A 		beq	.L165
 1993              	.L142:
 1994 1608 B4369FE5 		ldr	r3, .L167
 1995 160c FE15A0E3 		mov	r1, #1065353216
 1996 1610 A00393E5 		ldr	r0, [r3, #928]	@ float
 1997 1614 FEFFFFEB 		bl	__eqsf2
 1998 1618 000050E3 		cmp	r0, #0
 1999 161c A0669FE5 		ldr	r6, .L167
 2000 1620 0200000A 		beq	.L166
 2001              	.L158:
 2002 1624 1DDE8DE2 		add	sp, sp, #464
 2003 1628 F04FBDE8 		ldmfd	sp!, {r4, r5, r6, r7, r8, r9, sl, fp, lr}
 2004 162c 1EFF2FE1 		bx	lr
 2005              	.L166:
 2006 1630 7C0396E5 		ldr	r0, [r6, #892]	@ float
 2007 1634 FEFFFFEB 		bl	__fixunssfsi
 2008 1638 00B0A0E1 		mov	fp, r0
 2009 163c FEFFFFEB 		bl	sys_time_clock_get_unix_offset
 2010 1640 9C708DE2 		add	r7, sp, #156
 2011 1644 800197E8 		ldmia	r7, {r7-r8}
 2012 1648 007097E0 		adds	r7, r7, r0
 2013 164c 0180A8E0 		adc	r8, r8, r1
 2014 1650 742096E5 		ldr	r2, [r6, #116]	@ float
 2015 1654 280CA0E1 		mov	r0, r8, lsr #24
 2016 1658 AC208DE5 		str	r2, [sp, #172]	@ float
 2017 165c 48008DE5 		str	r0, [sp, #72]
 2018 1660 2804A0E1 		mov	r0, r8, lsr #8
 2019 1664 38008DE5 		str	r0, [sp, #56]
 2020 1668 AC009DE5 		ldr	r0, [sp, #172]
 2021 166c 400CA0E1 		mov	r0, r0, asr #24
 2022 1670 34008DE5 		str	r0, [sp, #52]
 2023 1674 AC009DE5 		ldr	r0, [sp, #172]
 2024 1678 4008A0E1 		mov	r0, r0, asr #16
 2025 167c 78C096E5 		ldr	ip, [r6, #120]	@ float
 2026 1680 30008DE5 		str	r0, [sp, #48]
 2027 1684 AC009DE5 		ldr	r0, [sp, #172]
 2028 1688 A8C08DE5 		str	ip, [sp, #168]	@ float
 2029 168c 4004A0E1 		mov	r0, r0, asr #8
 2030 1690 2C008DE5 		str	r0, [sp, #44]
 2031 1694 A8009DE5 		ldr	r0, [sp, #168]
 2032 1698 400CA0E1 		mov	r0, r0, asr #24
 2033 169c 28008DE5 		str	r0, [sp, #40]
 2034 16a0 A8009DE5 		ldr	r0, [sp, #168]
 2035 16a4 4008A0E1 		mov	r0, r0, asr #16
 2036 16a8 7CE096E5 		ldr	lr, [r6, #124]	@ float
 2037 16ac 24008DE5 		str	r0, [sp, #36]
 2038 16b0 A8009DE5 		ldr	r0, [sp, #168]
 2039 16b4 0EC0A0E1 		mov	ip, lr
 2040 16b8 4004A0E1 		mov	r0, r0, asr #8
 2041 16bc 04269FE5 		ldr	r2, .L167+4
 2042 16c0 20008DE5 		str	r0, [sp, #32]
 2043 16c4 FF300BE2 		and	r3, fp, #255
 2044 16c8 4C0CA0E1 		mov	r0, ip, asr #24
 2045 16cc 684096E5 		ldr	r4, [r6, #104]	@ float
 2046 16d0 1C008DE5 		str	r0, [sp, #28]
 2047 16d4 033183E0 		add	r3, r3, r3, asl #2
 2048 16d8 4C08A0E1 		mov	r0, ip, asr #16
 2049 16dc 6C5096E5 		ldr	r5, [r6, #108]	@ float
 2050 16e0 033182E0 		add	r3, r2, r3, asl #2
 2051 16e4 706096E5 		ldr	r6, [r6, #112]	@ float
 2052 16e8 18008DE5 		str	r0, [sp, #24]
 2053 16ec 4C04A0E1 		mov	r0, ip, asr #8
 2054 16f0 0020A0E3 		mov	r2, #0
 2055 16f4 C4308DE5 		str	r3, [sp, #196]
 2056 16f8 14008DE5 		str	r0, [sp, #20]
 2057 16fc 2838A0E1 		mov	r3, r8, lsr #16
 2058 1700 440CA0E1 		mov	r0, r4, asr #24
 2059 1704 A4508DE5 		str	r5, [sp, #164]	@ float
 2060 1708 C0608DE5 		str	r6, [sp, #192]	@ float
 2061 170c 4C208DE5 		str	r2, [sp, #76]
 2062 1710 40308DE5 		str	r3, [sp, #64]
 2063 1714 44208DE5 		str	r2, [sp, #68]
 2064 1718 3C208DE5 		str	r2, [sp, #60]
 2065 171c 10008DE5 		str	r0, [sp, #16]
 2066 1720 4408A0E1 		mov	r0, r4, asr #16
 2067 1724 0C008DE5 		str	r0, [sp, #12]
 2068 1728 4404A0E1 		mov	r0, r4, asr #8
 2069 172c 08008DE5 		str	r0, [sp, #8]
 2070 1730 A4009DE5 		ldr	r0, [sp, #164]
 2071 1734 400CA0E1 		mov	r0, r0, asr #24
 2072 1738 04008DE5 		str	r0, [sp, #4]
 2073 173c 1F00A0E3 		mov	r0, #31
 2074 1740 CC00CDE5 		strb	r0, [sp, #204]
 2075 1744 4800DDE5 		ldrb	r0, [sp, #72]	@ zero_extendqisi2
 2076 1748 CD00CDE5 		strb	r0, [sp, #205]
 2077 174c 4000DDE5 		ldrb	r0, [sp, #64]	@ zero_extendqisi2
 2078 1750 02A0A0E1 		mov	sl, r2
 2079 1754 2734A0E1 		mov	r3, r7, lsr #8
 2080 1758 34209DE5 		ldr	r2, [sp, #52]
 2081 175c CE00CDE5 		strb	r0, [sp, #206]
 2082 1760 3800DDE5 		ldrb	r0, [sp, #56]	@ zero_extendqisi2
 2083 1764 083C83E1 		orr	r3, r3, r8, asl #24
 2084 1768 275CA0E1 		mov	r5, r7, lsr #24
 2085 176c 2718A0E1 		mov	r1, r7, lsr #16
 2086 1770 085485E1 		orr	r5, r5, r8, asl #8
 2087 1774 081881E1 		orr	r1, r1, r8, asl #16
 2088 1778 CF00CDE5 		strb	r0, [sp, #207]
 2089 177c D080CDE5 		strb	r8, [sp, #208]
 2090 1780 AC009DE5 		ldr	r0, [sp, #172]
 2091 1784 D330CDE5 		strb	r3, [sp, #211]
 2092 1788 D520CDE5 		strb	r2, [sp, #213]
 2093 178c 30309DE5 		ldr	r3, [sp, #48]
 2094 1790 28209DE5 		ldr	r2, [sp, #40]
 2095 1794 0890A0E1 		mov	r9, r8
 2096 1798 2C809DE5 		ldr	r8, [sp, #44]
 2097 179c D630CDE5 		strb	r3, [sp, #214]
 2098 17a0 D780CDE5 		strb	r8, [sp, #215]
 2099 17a4 24309DE5 		ldr	r3, [sp, #36]
 2100 17a8 20809DE5 		ldr	r8, [sp, #32]
 2101 17ac D800CDE5 		strb	r0, [sp, #216]
 2102 17b0 D920CDE5 		strb	r2, [sp, #217]
 2103 17b4 A8009DE5 		ldr	r0, [sp, #168]
 2104 17b8 1C209DE5 		ldr	r2, [sp, #28]
 2105 17bc D150CDE5 		strb	r5, [sp, #209]
 2106 17c0 D210CDE5 		strb	r1, [sp, #210]
 2107 17c4 D470CDE5 		strb	r7, [sp, #212]
 2108 17c8 DA30CDE5 		strb	r3, [sp, #218]
 2109 17cc DB80CDE5 		strb	r8, [sp, #219]
 2110 17d0 DC00CDE5 		strb	r0, [sp, #220]
 2111 17d4 DD20CDE5 		strb	r2, [sp, #221]
 2112 17d8 14809DE5 		ldr	r8, [sp, #20]
 2113 17dc 18309DE5 		ldr	r3, [sp, #24]
 2114 17e0 DF80CDE5 		strb	r8, [sp, #223]
 2115 17e4 E0C0CDE5 		strb	ip, [sp, #224]
 2116 17e8 0C008DE2 		add	r0, sp, #12
 2117 17ec 011090E8 		ldmia	r0, {r0, ip}	@ phole ldm
 2118 17f0 08209DE5 		ldr	r2, [sp, #8]
 2119 17f4 04809DE5 		ldr	r8, [sp, #4]
 2120 17f8 DE30CDE5 		strb	r3, [sp, #222]
 2121 17fc E1C0CDE5 		strb	ip, [sp, #225]
 2122 1800 E200CDE5 		strb	r0, [sp, #226]
 2123 1804 E320CDE5 		strb	r2, [sp, #227]
 2124 1808 E440CDE5 		strb	r4, [sp, #228]
 2125 180c E580CDE5 		strb	r8, [sp, #229]
 2126 1810 C4C09DE5 		ldr	ip, [sp, #196]
 2127 1814 B0349FE5 		ldr	r3, .L167+8
 2128 1818 0E50DCE5 		ldrb	r5, [ip, #14]	@ zero_extendqisi2
 2129 181c A4009DE5 		ldr	r0, [sp, #164]
 2130 1820 C4809DE5 		ldr	r8, [sp, #196]
 2131 1824 0170D3E5 		ldrb	r7, [r3, #1]	@ zero_extendqisi2
 2132 1828 0060D3E5 		ldrb	r6, [r3, #0]	@ zero_extendqisi2
 2133 182c 013085E2 		add	r3, r5, #1
 2134 1830 C0209DE5 		ldr	r2, [sp, #192]	@ float
 2135 1834 4018A0E1 		mov	r1, r0, asr #16
 2136 1838 0E30C8E5 		strb	r3, [r8, #14]
 2137 183c 4004A0E1 		mov	r0, r0, asr #8
 2138 1840 E700CDE5 		strb	r0, [sp, #231]
 2139 1844 A4009DE5 		ldr	r0, [sp, #164]
 2140 1848 42CCA0E1 		mov	ip, r2, asr #24
 2141 184c 42E8A0E1 		mov	lr, r2, asr #16
 2142 1850 4244A0E1 		mov	r4, r2, asr #8
 2143 1854 2030A0E3 		mov	r3, #32
 2144 1858 E610CDE5 		strb	r1, [sp, #230]
 2145 185c E800CDE5 		strb	r0, [sp, #232]
 2146 1860 E9C0CDE5 		strb	ip, [sp, #233]
 2147 1864 EAE0CDE5 		strb	lr, [sp, #234]
 2148 1868 EB40CDE5 		strb	r4, [sp, #235]
 2149 186c EC20CDE5 		strb	r2, [sp, #236]
 2150 1870 C830CDE5 		strb	r3, [sp, #200]
 2151 1874 CA60CDE5 		strb	r6, [sp, #202]
 2152 1878 CB70CDE5 		strb	r7, [sp, #203]
 2153 187c 01C8A0E3 		mov	ip, #65536
 2154 1880 C950CDE5 		strb	r5, [sp, #201]
 2155 1884 01C04CE2 		sub	ip, ip, #1
 2156 1888 C8008DE2 		add	r0, sp, #200
 2157 188c 0A10A0E1 		mov	r1, sl
 2158              	.L153:
 2159 1890 0030D1E7 		ldrb	r3, [r1, r0]	@ zero_extendqisi2
 2160 1894 0C3023E0 		eor	r3, r3, ip
 2161 1898 FF3003E2 		and	r3, r3, #255
 2162 189c 033223E0 		eor	r3, r3, r3, asl #4
 2163 18a0 FF3003E2 		and	r3, r3, #255
 2164 18a4 0324A0E1 		mov	r2, r3, asl #8
 2165 18a8 2C2482E1 		orr	r2, r2, ip, lsr #8
 2166 18ac 232222E0 		eor	r2, r2, r3, lsr #4
 2167 18b0 832122E0 		eor	r2, r2, r3, asl #3
 2168 18b4 011081E2 		add	r1, r1, #1
 2169 18b8 0228A0E1 		mov	r2, r2, asl #16
 2170 18bc 250051E3 		cmp	r1, #37
 2171 18c0 22C8A0E1 		mov	ip, r2, lsr #16
 2172 18c4 F1FFFF1A 		bne	.L153
 2173 18c8 2C34A0E1 		mov	r3, ip, lsr #8
 2174 18cc 301081E2 		add	r1, r1, #48
 2175 18d0 0B00A0E1 		mov	r0, fp
 2176 18d4 CD31CDE5 		strb	r3, [sp, #461]
 2177 18d8 CCC1CDE5 		strb	ip, [sp, #460]
 2178 18dc FEFFFFEB 		bl	comm_send_ch
 2179 18e0 0B00A0E1 		mov	r0, fp
 2180 18e4 C810DDE5 		ldrb	r1, [sp, #200]	@ zero_extendqisi2
 2181 18e8 FEFFFFEB 		bl	comm_send_ch
 2182 18ec 0B00A0E1 		mov	r0, fp
 2183 18f0 C910DDE5 		ldrb	r1, [sp, #201]	@ zero_extendqisi2
 2184 18f4 FEFFFFEB 		bl	comm_send_ch
 2185 18f8 0B00A0E1 		mov	r0, fp
 2186 18fc CA10DDE5 		ldrb	r1, [sp, #202]	@ zero_extendqisi2
 2187 1900 FEFFFFEB 		bl	comm_send_ch
 2188 1904 0B00A0E1 		mov	r0, fp
 2189 1908 CB10DDE5 		ldrb	r1, [sp, #203]	@ zero_extendqisi2
 2190 190c FEFFFFEB 		bl	comm_send_ch
 2191 1910 0B00A0E1 		mov	r0, fp
 2192 1914 CC10DDE5 		ldrb	r1, [sp, #204]	@ zero_extendqisi2
 2193 1918 FEFFFFEB 		bl	comm_send_ch
 2194 191c C830DDE5 		ldrb	r3, [sp, #200]	@ zero_extendqisi2
 2195 1920 000053E3 		cmp	r3, #0
 2196 1924 0B00000A 		beq	.L155
 2197 1928 0040A0E3 		mov	r4, #0
 2198              	.L157:
 2199 192c 1D2E8DE2 		add	r2, sp, #464
 2200 1930 043082E0 		add	r3, r2, r4
 2201 1934 031153E5 		ldrb	r1, [r3, #-259]	@ zero_extendqisi2
 2202 1938 0B00A0E1 		mov	r0, fp
 2203 193c FEFFFFEB 		bl	comm_send_ch
 2204 1940 013084E2 		add	r3, r4, #1
 2205 1944 0338A0E1 		mov	r3, r3, asl #16
 2206 1948 C820DDE5 		ldrb	r2, [sp, #200]	@ zero_extendqisi2
 2207 194c 2348A0E1 		mov	r4, r3, lsr #16
 2208 1950 040052E1 		cmp	r2, r4
 2209 1954 F4FFFF8A 		bhi	.L157
 2210              	.L155:
 2211 1958 CC11DDE5 		ldrb	r1, [sp, #460]	@ zero_extendqisi2
 2212 195c 0B00A0E1 		mov	r0, fp
 2213 1960 FEFFFFEB 		bl	comm_send_ch
 2214 1964 0B00A0E1 		mov	r0, fp
 2215 1968 CD11DDE5 		ldrb	r1, [sp, #461]	@ zero_extendqisi2
 2216 196c FEFFFFEB 		bl	comm_send_ch
 2217 1970 2BFFFFEA 		b	.L158
 2218              	.L165:
 2219 1974 48339FE5 		ldr	r3, .L167
 2220 1978 7C0393E5 		ldr	r0, [r3, #892]	@ float
 2221 197c FEFFFFEB 		bl	__fixunssfsi
 2222 1980 00B0A0E1 		mov	fp, r0
 2223 1984 FEFFFFEB 		bl	sys_time_clock_get_unix_offset
 2224 1988 34839FE5 		ldr	r8, .L167
 2225 198c 3C4098E5 		ldr	r4, [r8, #60]	@ float
 2226 1990 5C2098E5 		ldr	r2, [r8, #92]	@ float
 2227 1994 60C098E5 		ldr	ip, [r8, #96]	@ float
 2228 1998 64E098E5 		ldr	lr, [r8, #100]	@ float
 2229 199c 405098E5 		ldr	r5, [r8, #64]	@ float
 2230 19a0 9C708DE2 		add	r7, sp, #156
 2231 19a4 800197E8 		ldmia	r7, {r7-r8}
 2232 19a8 007097E0 		adds	r7, r7, r0
 2233 19ac 10039FE5 		ldr	r0, .L167
 2234 19b0 440090E5 		ldr	r0, [r0, #68]	@ float
 2235 19b4 0180A8E0 		adc	r8, r8, r1
 2236 19b8 B8208DE5 		str	r2, [sp, #184]	@ float
 2237 19bc 00008DE5 		str	r0, [sp, #0]	@ float
 2238 19c0 2808A0E1 		mov	r0, r8, lsr #16
 2239 19c4 8C008DE5 		str	r0, [sp, #140]
 2240 19c8 B8009DE5 		ldr	r0, [sp, #184]
 2241 19cc 400CA0E1 		mov	r0, r0, asr #24
 2242 19d0 80008DE5 		str	r0, [sp, #128]
 2243 19d4 B8009DE5 		ldr	r0, [sp, #184]
 2244 19d8 4008A0E1 		mov	r0, r0, asr #16
 2245 19dc 7C008DE5 		str	r0, [sp, #124]
 2246 19e0 B8009DE5 		ldr	r0, [sp, #184]
 2247 19e4 B4C08DE5 		str	ip, [sp, #180]	@ float
 2248 19e8 4004A0E1 		mov	r0, r0, asr #8
 2249 19ec 78008DE5 		str	r0, [sp, #120]
 2250 19f0 B4009DE5 		ldr	r0, [sp, #180]
 2251 19f4 400CA0E1 		mov	r0, r0, asr #24
 2252 19f8 74008DE5 		str	r0, [sp, #116]
 2253 19fc B4009DE5 		ldr	r0, [sp, #180]
 2254 1a00 4008A0E1 		mov	r0, r0, asr #16
 2255 1a04 70008DE5 		str	r0, [sp, #112]
 2256 1a08 B4009DE5 		ldr	r0, [sp, #180]
 2257 1a0c 0EC0A0E1 		mov	ip, lr
 2258 1a10 4004A0E1 		mov	r0, r0, asr #8
 2259 1a14 AC229FE5 		ldr	r2, .L167+4
 2260 1a18 6C008DE5 		str	r0, [sp, #108]
 2261 1a1c FF300BE2 		and	r3, fp, #255
 2262 1a20 4C0CA0E1 		mov	r0, ip, asr #24
 2263 1a24 68008DE5 		str	r0, [sp, #104]
 2264 1a28 033183E0 		add	r3, r3, r3, asl #2
 2265 1a2c 4C08A0E1 		mov	r0, ip, asr #16
 2266 1a30 033182E0 		add	r3, r2, r3, asl #2
 2267 1a34 64008DE5 		str	r0, [sp, #100]
 2268 1a38 282CA0E1 		mov	r2, r8, lsr #24
 2269 1a3c 4C04A0E1 		mov	r0, ip, asr #8
 2270 1a40 BC308DE5 		str	r3, [sp, #188]
 2271 1a44 94208DE5 		str	r2, [sp, #148]
 2272 1a48 0030A0E3 		mov	r3, #0
 2273 1a4c 2824A0E1 		mov	r2, r8, lsr #8
 2274 1a50 60008DE5 		str	r0, [sp, #96]
 2275 1a54 440CA0E1 		mov	r0, r4, asr #24
 2276 1a58 B0508DE5 		str	r5, [sp, #176]	@ float
 2277 1a5c 98308DE5 		str	r3, [sp, #152]
 2278 1a60 90308DE5 		str	r3, [sp, #144]
 2279 1a64 84208DE5 		str	r2, [sp, #132]
 2280 1a68 88308DE5 		str	r3, [sp, #136]
 2281 1a6c 5C008DE5 		str	r0, [sp, #92]
 2282 1a70 4408A0E1 		mov	r0, r4, asr #16
 2283 1a74 58008DE5 		str	r0, [sp, #88]
 2284 1a78 4404A0E1 		mov	r0, r4, asr #8
 2285 1a7c 54008DE5 		str	r0, [sp, #84]
 2286 1a80 B0009DE5 		ldr	r0, [sp, #176]
 2287 1a84 400CA0E1 		mov	r0, r0, asr #24
 2288 1a88 50008DE5 		str	r0, [sp, #80]
 2289 1a8c 1E00A0E3 		mov	r0, #30
 2290 1a90 CC00CDE5 		strb	r0, [sp, #204]
 2291 1a94 9400DDE5 		ldrb	r0, [sp, #148]	@ zero_extendqisi2
 2292 1a98 CD00CDE5 		strb	r0, [sp, #205]
 2293 1a9c 8C00DDE5 		ldrb	r0, [sp, #140]	@ zero_extendqisi2
 2294 1aa0 80209DE5 		ldr	r2, [sp, #128]
 2295 1aa4 03A0A0E1 		mov	sl, r3
 2296 1aa8 CE00CDE5 		strb	r0, [sp, #206]
 2297 1aac 2734A0E1 		mov	r3, r7, lsr #8
 2298 1ab0 8400DDE5 		ldrb	r0, [sp, #132]	@ zero_extendqisi2
 2299 1ab4 083C83E1 		orr	r3, r3, r8, asl #24
 2300 1ab8 275CA0E1 		mov	r5, r7, lsr #24
 2301 1abc 2718A0E1 		mov	r1, r7, lsr #16
 2302 1ac0 085485E1 		orr	r5, r5, r8, asl #8
 2303 1ac4 081881E1 		orr	r1, r1, r8, asl #16
 2304 1ac8 CF00CDE5 		strb	r0, [sp, #207]
 2305 1acc D080CDE5 		strb	r8, [sp, #208]
 2306 1ad0 B8009DE5 		ldr	r0, [sp, #184]
 2307 1ad4 D330CDE5 		strb	r3, [sp, #211]
 2308 1ad8 D520CDE5 		strb	r2, [sp, #213]
 2309 1adc 7C309DE5 		ldr	r3, [sp, #124]
 2310 1ae0 74209DE5 		ldr	r2, [sp, #116]
 2311 1ae4 0890A0E1 		mov	r9, r8
 2312 1ae8 78809DE5 		ldr	r8, [sp, #120]
 2313 1aec D630CDE5 		strb	r3, [sp, #214]
 2314 1af0 D780CDE5 		strb	r8, [sp, #215]
 2315 1af4 70309DE5 		ldr	r3, [sp, #112]
 2316 1af8 6C809DE5 		ldr	r8, [sp, #108]
 2317 1afc D800CDE5 		strb	r0, [sp, #216]
 2318 1b00 D920CDE5 		strb	r2, [sp, #217]
 2319 1b04 B4009DE5 		ldr	r0, [sp, #180]
 2320 1b08 68209DE5 		ldr	r2, [sp, #104]
 2321 1b0c D150CDE5 		strb	r5, [sp, #209]
 2322 1b10 D210CDE5 		strb	r1, [sp, #210]
 2323 1b14 D470CDE5 		strb	r7, [sp, #212]
 2324 1b18 DA30CDE5 		strb	r3, [sp, #218]
 2325 1b1c DB80CDE5 		strb	r8, [sp, #219]
 2326 1b20 DC00CDE5 		strb	r0, [sp, #220]
 2327 1b24 DD20CDE5 		strb	r2, [sp, #221]
 2328 1b28 60809DE5 		ldr	r8, [sp, #96]
 2329 1b2c 64309DE5 		ldr	r3, [sp, #100]
 2330 1b30 DF80CDE5 		strb	r8, [sp, #223]
 2331 1b34 E0C0CDE5 		strb	ip, [sp, #224]
 2332 1b38 58008DE2 		add	r0, sp, #88
 2333 1b3c 011090E8 		ldmia	r0, {r0, ip}	@ phole ldm
 2334 1b40 54209DE5 		ldr	r2, [sp, #84]
 2335 1b44 50809DE5 		ldr	r8, [sp, #80]
 2336 1b48 DE30CDE5 		strb	r3, [sp, #222]
 2337 1b4c E1C0CDE5 		strb	ip, [sp, #225]
 2338 1b50 E200CDE5 		strb	r0, [sp, #226]
 2339 1b54 E320CDE5 		strb	r2, [sp, #227]
 2340 1b58 E440CDE5 		strb	r4, [sp, #228]
 2341 1b5c E580CDE5 		strb	r8, [sp, #229]
 2342 1b60 BCC09DE5 		ldr	ip, [sp, #188]
 2343 1b64 60319FE5 		ldr	r3, .L167+8
 2344 1b68 0E50DCE5 		ldrb	r5, [ip, #14]	@ zero_extendqisi2
 2345 1b6c B0009DE5 		ldr	r0, [sp, #176]
 2346 1b70 BC809DE5 		ldr	r8, [sp, #188]
 2347 1b74 0170D3E5 		ldrb	r7, [r3, #1]	@ zero_extendqisi2
 2348 1b78 0060D3E5 		ldrb	r6, [r3, #0]	@ zero_extendqisi2
 2349 1b7c 013085E2 		add	r3, r5, #1
 2350 1b80 00209DE5 		ldr	r2, [sp, #0]	@ float
 2351 1b84 4018A0E1 		mov	r1, r0, asr #16
 2352 1b88 0E30C8E5 		strb	r3, [r8, #14]
 2353 1b8c 4004A0E1 		mov	r0, r0, asr #8
 2354 1b90 E700CDE5 		strb	r0, [sp, #231]
 2355 1b94 B0009DE5 		ldr	r0, [sp, #176]
 2356 1b98 42CCA0E1 		mov	ip, r2, asr #24
 2357 1b9c 42E8A0E1 		mov	lr, r2, asr #16
 2358 1ba0 4244A0E1 		mov	r4, r2, asr #8
 2359 1ba4 2030A0E3 		mov	r3, #32
 2360 1ba8 E610CDE5 		strb	r1, [sp, #230]
 2361 1bac E800CDE5 		strb	r0, [sp, #232]
 2362 1bb0 E9C0CDE5 		strb	ip, [sp, #233]
 2363 1bb4 EAE0CDE5 		strb	lr, [sp, #234]
 2364 1bb8 EB40CDE5 		strb	r4, [sp, #235]
 2365 1bbc EC20CDE5 		strb	r2, [sp, #236]
 2366 1bc0 C830CDE5 		strb	r3, [sp, #200]
 2367 1bc4 CA60CDE5 		strb	r6, [sp, #202]
 2368 1bc8 CB70CDE5 		strb	r7, [sp, #203]
 2369 1bcc 01C8A0E3 		mov	ip, #65536
 2370 1bd0 C950CDE5 		strb	r5, [sp, #201]
 2371 1bd4 01C04CE2 		sub	ip, ip, #1
 2372 1bd8 C8008DE2 		add	r0, sp, #200
 2373 1bdc 0A10A0E1 		mov	r1, sl
 2374              	.L145:
 2375 1be0 0030D1E7 		ldrb	r3, [r1, r0]	@ zero_extendqisi2
 2376 1be4 0C3023E0 		eor	r3, r3, ip
 2377 1be8 FF3003E2 		and	r3, r3, #255
 2378 1bec 033223E0 		eor	r3, r3, r3, asl #4
 2379 1bf0 FF3003E2 		and	r3, r3, #255
 2380 1bf4 0324A0E1 		mov	r2, r3, asl #8
 2381 1bf8 2C2482E1 		orr	r2, r2, ip, lsr #8
 2382 1bfc 232222E0 		eor	r2, r2, r3, lsr #4
 2383 1c00 832122E0 		eor	r2, r2, r3, asl #3
 2384 1c04 011081E2 		add	r1, r1, #1
 2385 1c08 0228A0E1 		mov	r2, r2, asl #16
 2386 1c0c 250051E3 		cmp	r1, #37
 2387 1c10 22C8A0E1 		mov	ip, r2, lsr #16
 2388 1c14 F1FFFF1A 		bne	.L145
 2389 1c18 2C34A0E1 		mov	r3, ip, lsr #8
 2390 1c1c 301081E2 		add	r1, r1, #48
 2391 1c20 0B00A0E1 		mov	r0, fp
 2392 1c24 CD31CDE5 		strb	r3, [sp, #461]
 2393 1c28 CCC1CDE5 		strb	ip, [sp, #460]
 2394 1c2c FEFFFFEB 		bl	comm_send_ch
 2395 1c30 0B00A0E1 		mov	r0, fp
 2396 1c34 C810DDE5 		ldrb	r1, [sp, #200]	@ zero_extendqisi2
 2397 1c38 FEFFFFEB 		bl	comm_send_ch
 2398 1c3c 0B00A0E1 		mov	r0, fp
 2399 1c40 C910DDE5 		ldrb	r1, [sp, #201]	@ zero_extendqisi2
 2400 1c44 FEFFFFEB 		bl	comm_send_ch
 2401 1c48 0B00A0E1 		mov	r0, fp
 2402 1c4c CA10DDE5 		ldrb	r1, [sp, #202]	@ zero_extendqisi2
 2403 1c50 FEFFFFEB 		bl	comm_send_ch
 2404 1c54 0B00A0E1 		mov	r0, fp
 2405 1c58 CB10DDE5 		ldrb	r1, [sp, #203]	@ zero_extendqisi2
 2406 1c5c FEFFFFEB 		bl	comm_send_ch
 2407 1c60 0B00A0E1 		mov	r0, fp
 2408 1c64 CC10DDE5 		ldrb	r1, [sp, #204]	@ zero_extendqisi2
 2409 1c68 FEFFFFEB 		bl	comm_send_ch
 2410 1c6c C830DDE5 		ldrb	r3, [sp, #200]	@ zero_extendqisi2
 2411 1c70 000053E3 		cmp	r3, #0
 2412 1c74 0B00000A 		beq	.L147
 2413 1c78 0040A0E3 		mov	r4, #0
 2414              	.L149:
 2415 1c7c 1D2E8DE2 		add	r2, sp, #464
 2416 1c80 043082E0 		add	r3, r2, r4
 2417 1c84 031153E5 		ldrb	r1, [r3, #-259]	@ zero_extendqisi2
 2418 1c88 0B00A0E1 		mov	r0, fp
 2419 1c8c FEFFFFEB 		bl	comm_send_ch
 2420 1c90 013084E2 		add	r3, r4, #1
 2421 1c94 0338A0E1 		mov	r3, r3, asl #16
 2422 1c98 C820DDE5 		ldrb	r2, [sp, #200]	@ zero_extendqisi2
 2423 1c9c 2348A0E1 		mov	r4, r3, lsr #16
 2424 1ca0 040052E1 		cmp	r2, r4
 2425 1ca4 F4FFFF8A 		bhi	.L149
 2426              	.L147:
 2427 1ca8 CC11DDE5 		ldrb	r1, [sp, #460]	@ zero_extendqisi2
 2428 1cac 0B00A0E1 		mov	r0, fp
 2429 1cb0 FEFFFFEB 		bl	comm_send_ch
 2430 1cb4 0B00A0E1 		mov	r0, fp
 2431 1cb8 CD11DDE5 		ldrb	r1, [sp, #461]	@ zero_extendqisi2
 2432 1cbc FEFFFFEB 		bl	comm_send_ch
 2433 1cc0 50FEFFEA 		b	.L142
 2434              	.L168:
 2435              		.align	2
 2436              	.L167:
 2437 1cc4 00000000 		.word	global_data
 2438 1cc8 00000000 		.word	m_mavlink_status.2143
 2439 1ccc 00000000 		.word	mavlink_system
 2441              		.align	2
 2442              		.global	communication_send_raw_data
 2444              	communication_send_raw_data:
 2445              		@ Function supports interworking.
 2446              		@ args = 0, pretend = 0, frame = 372
 2447              		@ frame_needed = 0, uses_anonymous_args = 0
 2448 1cd0 F04F2DE9 		stmfd	sp!, {r4, r5, r6, r7, r8, r9, sl, fp, lr}
 2449 1cd4 78439FE5 		ldr	r4, .L183
 2450 1cd8 5DDF4DE2 		sub	sp, sp, #372
 2451 1cdc 0050A0E1 		mov	r5, r0
 2452 1ce0 0160A0E1 		mov	r6, r1
 2453 1ce4 840394E5 		ldr	r0, [r4, #900]	@ float
 2454 1ce8 FE15A0E3 		mov	r1, #1065353216
 2455 1cec FEFFFFEB 		bl	__eqsf2
 2456 1cf0 000050E3 		cmp	r0, #0
 2457 1cf4 0200000A 		beq	.L182
 2458              	.L178:
 2459 1cf8 5DDF8DE2 		add	sp, sp, #372
 2460 1cfc F04FBDE8 		ldmfd	sp!, {r4, r5, r6, r7, r8, r9, sl, fp, lr}
 2461 1d00 1EFF2FE1 		bx	lr
 2462              	.L182:
 2463 1d04 7C0394E5 		ldr	r0, [r4, #892]	@ float
 2464 1d08 FEFFFFEB 		bl	__fixunssfsi
 2465 1d0c 00B0A0E1 		mov	fp, r0
 2466 1d10 FEFFFFEB 		bl	sys_time_clock_get_unix_offset
 2467 1d14 B071D4E1 		ldrh	r7, [r4, #16]
 2468 1d18 BA21D4E1 		ldrh	r2, [r4, #26]
 2469 1d1c 0778A0E1 		mov	r7, r7, asl #16
 2470 1d20 1C708DE5 		str	r7, [sp, #28]
 2471 1d24 0228A0E1 		mov	r2, r2, asl #16
 2472 1d28 057090E0 		adds	r7, r0, r5
 2473 1d2c B402D4E1 		ldrh	r0, [r4, #36]
 2474 1d30 2C208DE5 		str	r2, [sp, #44]
 2475 1d34 B481D4E1 		ldrh	r8, [r4, #20]
 2476 1d38 64008DE5 		str	r0, [sp, #100]
 2477 1d3c 2C009DE5 		ldr	r0, [sp, #44]
 2478 1d40 0888A0E1 		mov	r8, r8, asl #16
 2479 1d44 0C808DE5 		str	r8, [sp, #12]
 2480 1d48 08239FE5 		ldr	r2, .L183+4
 2481 1d4c 200CA0E1 		mov	r0, r0, lsr #24
 2482 1d50 FF300BE2 		and	r3, fp, #255
 2483 1d54 28008DE5 		str	r0, [sp, #40]
 2484 1d58 033183E0 		add	r3, r3, r3, asl #2
 2485 1d5c 0C009DE5 		ldr	r0, [sp, #12]
 2486 1d60 B8E1D4E1 		ldrh	lr, [r4, #24]
 2487 1d64 033182E0 		add	r3, r2, r3, asl #2
 2488 1d68 0680A1E0 		adc	r8, r1, r6
 2489 1d6c BCC1D4E1 		ldrh	ip, [r4, #28]
 2490 1d70 B291D4E1 		ldrh	r9, [r4, #18]
 2491 1d74 68308DE5 		str	r3, [sp, #104]
 2492 1d78 200CA0E1 		mov	r0, r0, lsr #24
 2493 1d7c 0030A0E3 		mov	r3, #0
 2494 1d80 B0A2D4E1 		ldrh	sl, [r4, #32]
 2495 1d84 0EE8A0E1 		mov	lr, lr, asl #16
 2496 1d88 48308DE5 		str	r3, [sp, #72]
 2497 1d8c 08008DE5 		str	r0, [sp, #8]
 2498 1d90 1C309DE5 		ldr	r3, [sp, #28]
 2499 1d94 2804A0E1 		mov	r0, r8, lsr #8
 2500 1d98 0CC8A0E1 		mov	ip, ip, asl #16
 2501 1d9c 0998A0E1 		mov	r9, r9, asl #16
 2502 1da0 2E6CA0E1 		mov	r6, lr, lsr #24
 2503 1da4 282CA0E1 		mov	r2, r8, lsr #24
 2504 1da8 34008DE5 		str	r0, [sp, #52]
 2505 1dac 2C009DE5 		ldr	r0, [sp, #44]
 2506 1db0 0AA8A0E1 		mov	sl, sl, asl #16
 2507 1db4 44208DE5 		str	r2, [sp, #68]
 2508 1db8 30608DE5 		str	r6, [sp, #48]
 2509 1dbc 2C2CA0E1 		mov	r2, ip, lsr #24
 2510 1dc0 296CA0E1 		mov	r6, r9, lsr #24
 2511 1dc4 233CA0E1 		mov	r3, r3, lsr #24
 2512 1dc8 20208DE5 		str	r2, [sp, #32]
 2513 1dcc 18308DE5 		str	r3, [sp, #24]
 2514 1dd0 2A2CA0E1 		mov	r2, sl, lsr #24
 2515 1dd4 10608DE5 		str	r6, [sp, #16]
 2516 1dd8 2838A0E1 		mov	r3, r8, lsr #16
 2517 1ddc 0060A0E3 		mov	r6, #0
 2518 1de0 2008A0E1 		mov	r0, r0, lsr #16
 2519 1de4 24C08DE5 		str	ip, [sp, #36]
 2520 1de8 14908DE5 		str	r9, [sp, #20]
 2521 1dec B2C2D4E1 		ldrh	ip, [r4, #34]
 2522 1df0 04048DE8 		stmia	sp, {r2, sl}	@ phole stm
 2523 1df4 3C308DE5 		str	r3, [sp, #60]
 2524 1df8 40608DE5 		str	r6, [sp, #64]
 2525 1dfc 38608DE5 		str	r6, [sp, #56]
 2526 1e00 60008DE5 		str	r0, [sp, #96]
 2527 1e04 24009DE5 		ldr	r0, [sp, #36]
 2528 1e08 2008A0E1 		mov	r0, r0, lsr #16
 2529 1e0c 5C008DE5 		str	r0, [sp, #92]
 2530 1e10 1C009DE5 		ldr	r0, [sp, #28]
 2531 1e14 2008A0E1 		mov	r0, r0, lsr #16
 2532 1e18 58008DE5 		str	r0, [sp, #88]
 2533 1e1c 14009DE5 		ldr	r0, [sp, #20]
 2534 1e20 2008A0E1 		mov	r0, r0, lsr #16
 2535 1e24 54008DE5 		str	r0, [sp, #84]
 2536 1e28 0C009DE5 		ldr	r0, [sp, #12]
 2537 1e2c 2008A0E1 		mov	r0, r0, lsr #16
 2538 1e30 50008DE5 		str	r0, [sp, #80]
 2539 1e34 04009DE5 		ldr	r0, [sp, #4]
 2540 1e38 2008A0E1 		mov	r0, r0, lsr #16
 2541 1e3c 4C008DE5 		str	r0, [sp, #76]
 2542 1e40 1C00A0E3 		mov	r0, #28
 2543 1e44 7000CDE5 		strb	r0, [sp, #112]
 2544 1e48 4400DDE5 		ldrb	r0, [sp, #68]	@ zero_extendqisi2
 2545 1e4c 2734A0E1 		mov	r3, r7, lsr #8
 2546 1e50 7100CDE5 		strb	r0, [sp, #113]
 2547 1e54 3C00DDE5 		ldrb	r0, [sp, #60]	@ zero_extendqisi2
 2548 1e58 083C83E1 		orr	r3, r3, r8, asl #24
 2549 1e5c 30209DE5 		ldr	r2, [sp, #48]
 2550 1e60 7200CDE5 		strb	r0, [sp, #114]
 2551 1e64 7730CDE5 		strb	r3, [sp, #119]
 2552 1e68 3400DDE5 		ldrb	r0, [sp, #52]	@ zero_extendqisi2
 2553 1e6c 28309DE5 		ldr	r3, [sp, #40]
 2554 1e70 06A0A0E1 		mov	sl, r6
 2555 1e74 7300CDE5 		strb	r0, [sp, #115]
 2556 1e78 60609DE5 		ldr	r6, [sp, #96]
 2557 1e7c 20009DE5 		ldr	r0, [sp, #32]
 2558 1e80 7920CDE5 		strb	r2, [sp, #121]
 2559 1e84 7B30CDE5 		strb	r3, [sp, #123]
 2560 1e88 5C209DE5 		ldr	r2, [sp, #92]
 2561 1e8c 18309DE5 		ldr	r3, [sp, #24]
 2562 1e90 275CA0E1 		mov	r5, r7, lsr #24
 2563 1e94 2718A0E1 		mov	r1, r7, lsr #16
 2564 1e98 085485E1 		orr	r5, r5, r8, asl #8
 2565 1e9c 081881E1 		orr	r1, r1, r8, asl #16
 2566 1ea0 2EE8A0E1 		mov	lr, lr, lsr #16
 2567 1ea4 7550CDE5 		strb	r5, [sp, #117]
 2568 1ea8 7610CDE5 		strb	r1, [sp, #118]
 2569 1eac 7AE0CDE5 		strb	lr, [sp, #122]
 2570 1eb0 7C60CDE5 		strb	r6, [sp, #124]
 2571 1eb4 7D00CDE5 		strb	r0, [sp, #125]
 2572 1eb8 7E20CDE5 		strb	r2, [sp, #126]
 2573 1ebc 7480CDE5 		strb	r8, [sp, #116]
 2574 1ec0 7870CDE5 		strb	r7, [sp, #120]
 2575 1ec4 7F30CDE5 		strb	r3, [sp, #127]
 2576 1ec8 58609DE5 		ldr	r6, [sp, #88]
 2577 1ecc 10009DE5 		ldr	r0, [sp, #16]
 2578 1ed0 08309DE5 		ldr	r3, [sp, #8]
 2579 1ed4 8060CDE5 		strb	r6, [sp, #128]
 2580 1ed8 8100CDE5 		strb	r0, [sp, #129]
 2581 1edc 54209DE5 		ldr	r2, [sp, #84]
 2582 1ee0 8330CDE5 		strb	r3, [sp, #131]
 2583 1ee4 50609DE5 		ldr	r6, [sp, #80]
 2584 1ee8 00009DE5 		ldr	r0, [sp, #0]
 2585 1eec 4C309DE5 		ldr	r3, [sp, #76]
 2586 1ef0 8220CDE5 		strb	r2, [sp, #130]
 2587 1ef4 8460CDE5 		strb	r6, [sp, #132]
 2588 1ef8 5C219FE5 		ldr	r2, .L183+8
 2589 1efc 8630CDE5 		strb	r3, [sp, #134]
 2590 1f00 8500CDE5 		strb	r0, [sp, #133]
 2591 1f04 68609DE5 		ldr	r6, [sp, #104]
 2592 1f08 0140D2E5 		ldrb	r4, [r2, #1]	@ zero_extendqisi2
 2593 1f0c 0E00D6E5 		ldrb	r0, [r6, #14]	@ zero_extendqisi2
 2594 1f10 00E0D2E5 		ldrb	lr, [r2, #0]	@ zero_extendqisi2
 2595 1f14 64209DE5 		ldr	r2, [sp, #100]
 2596 1f18 013080E2 		add	r3, r0, #1
 2597 1f1c 0258A0E1 		mov	r5, r2, asl #16
 2598 1f20 0CC8A0E1 		mov	ip, ip, asl #16
 2599 1f24 0E30C6E5 		strb	r3, [r6, #14]
 2600 1f28 251CA0E1 		mov	r1, r5, lsr #24
 2601 1f2c 2C2CA0E1 		mov	r2, ip, lsr #24
 2602 1f30 2558A0E1 		mov	r5, r5, lsr #16
 2603 1f34 2CC8A0E1 		mov	ip, ip, lsr #16
 2604 1f38 1A30A0E3 		mov	r3, #26
 2605 1f3c 88C0CDE5 		strb	ip, [sp, #136]
 2606 1f40 8720CDE5 		strb	r2, [sp, #135]
 2607 1f44 01C8A0E3 		mov	ip, #65536
 2608 1f48 8A50CDE5 		strb	r5, [sp, #138]
 2609 1f4c 6C30CDE5 		strb	r3, [sp, #108]
 2610 1f50 6EE0CDE5 		strb	lr, [sp, #110]
 2611 1f54 6F40CDE5 		strb	r4, [sp, #111]
 2612 1f58 8910CDE5 		strb	r1, [sp, #137]
 2613 1f5c 6D00CDE5 		strb	r0, [sp, #109]
 2614 1f60 0890A0E1 		mov	r9, r8
 2615 1f64 01C04CE2 		sub	ip, ip, #1
 2616 1f68 6C008DE2 		add	r0, sp, #108
 2617 1f6c 0A10A0E1 		mov	r1, sl
 2618              	.L173:
 2619 1f70 0030D1E7 		ldrb	r3, [r1, r0]	@ zero_extendqisi2
 2620 1f74 0C3023E0 		eor	r3, r3, ip
 2621 1f78 FF3003E2 		and	r3, r3, #255
 2622 1f7c 033223E0 		eor	r3, r3, r3, asl #4
 2623 1f80 FF3003E2 		and	r3, r3, #255
 2624 1f84 0324A0E1 		mov	r2, r3, asl #8
 2625 1f88 2C2482E1 		orr	r2, r2, ip, lsr #8
 2626 1f8c 232222E0 		eor	r2, r2, r3, lsr #4
 2627 1f90 832122E0 		eor	r2, r2, r3, asl #3
 2628 1f94 011081E2 		add	r1, r1, #1
 2629 1f98 0228A0E1 		mov	r2, r2, asl #16
 2630 1f9c 1F0051E3 		cmp	r1, #31
 2631 1fa0 22C8A0E1 		mov	ip, r2, lsr #16
 2632 1fa4 F1FFFF1A 		bne	.L173
 2633 1fa8 2C34A0E1 		mov	r3, ip, lsr #8
 2634 1fac 361081E2 		add	r1, r1, #54
 2635 1fb0 0B00A0E1 		mov	r0, fp
 2636 1fb4 7131CDE5 		strb	r3, [sp, #369]
 2637 1fb8 70C1CDE5 		strb	ip, [sp, #368]
 2638 1fbc FEFFFFEB 		bl	comm_send_ch
 2639 1fc0 0B00A0E1 		mov	r0, fp
 2640 1fc4 6C10DDE5 		ldrb	r1, [sp, #108]	@ zero_extendqisi2
 2641 1fc8 FEFFFFEB 		bl	comm_send_ch
 2642 1fcc 0B00A0E1 		mov	r0, fp
 2643 1fd0 6D10DDE5 		ldrb	r1, [sp, #109]	@ zero_extendqisi2
 2644 1fd4 FEFFFFEB 		bl	comm_send_ch
 2645 1fd8 0B00A0E1 		mov	r0, fp
 2646 1fdc 6E10DDE5 		ldrb	r1, [sp, #110]	@ zero_extendqisi2
 2647 1fe0 FEFFFFEB 		bl	comm_send_ch
 2648 1fe4 0B00A0E1 		mov	r0, fp
 2649 1fe8 6F10DDE5 		ldrb	r1, [sp, #111]	@ zero_extendqisi2
 2650 1fec FEFFFFEB 		bl	comm_send_ch
 2651 1ff0 0B00A0E1 		mov	r0, fp
 2652 1ff4 7010DDE5 		ldrb	r1, [sp, #112]	@ zero_extendqisi2
 2653 1ff8 FEFFFFEB 		bl	comm_send_ch
 2654 1ffc 6C30DDE5 		ldrb	r3, [sp, #108]	@ zero_extendqisi2
 2655 2000 000053E3 		cmp	r3, #0
 2656 2004 0B00000A 		beq	.L175
 2657 2008 0040A0E3 		mov	r4, #0
 2658              	.L177:
 2659 200c 5D6F8DE2 		add	r6, sp, #372
 2660 2010 043086E0 		add	r3, r6, r4
 2661 2014 031153E5 		ldrb	r1, [r3, #-259]	@ zero_extendqisi2
 2662 2018 0B00A0E1 		mov	r0, fp
 2663 201c FEFFFFEB 		bl	comm_send_ch
 2664 2020 013084E2 		add	r3, r4, #1
 2665 2024 0338A0E1 		mov	r3, r3, asl #16
 2666 2028 6C20DDE5 		ldrb	r2, [sp, #108]	@ zero_extendqisi2
 2667 202c 2348A0E1 		mov	r4, r3, lsr #16
 2668 2030 040052E1 		cmp	r2, r4
 2669 2034 F4FFFF8A 		bhi	.L177
 2670              	.L175:
 2671 2038 7011DDE5 		ldrb	r1, [sp, #368]	@ zero_extendqisi2
 2672 203c 0B00A0E1 		mov	r0, fp
 2673 2040 FEFFFFEB 		bl	comm_send_ch
 2674 2044 0B00A0E1 		mov	r0, fp
 2675 2048 7111DDE5 		ldrb	r1, [sp, #369]	@ zero_extendqisi2
 2676 204c FEFFFFEB 		bl	comm_send_ch
 2677 2050 28FFFFEA 		b	.L178
 2678              	.L184:
 2679              		.align	2
 2680              	.L183:
 2681 2054 00000000 		.word	global_data
 2682 2058 00000000 		.word	m_mavlink_status.2143
 2683 205c 00000000 		.word	mavlink_system
 2685              		.align	2
 2686              		.global	camera_shutter_handling
 2688              	camera_shutter_handling:
 2689              		@ Function supports interworking.
 2690              		@ args = 0, pretend = 0, frame = 388
 2691              		@ frame_needed = 0, uses_anonymous_args = 0
 2692 2060 F04F2DE9 		stmfd	sp!, {r4, r5, r6, r7, r8, r9, sl, fp, lr}
 2693 2064 62DF4DE2 		sub	sp, sp, #392
 2694 2068 0040A0E1 		mov	r4, r0
 2695 206c 0150A0E1 		mov	r5, r1
 2696 2070 FEFFFFEB 		bl	shutter_loop
 2697 2074 000050E3 		cmp	r0, #0
 2698 2078 0200001A 		bne	.L197
 2699              	.L193:
 2700 207c 62DF8DE2 		add	sp, sp, #392
 2701 2080 F04FBDE8 		ldmfd	sp!, {r4, r5, r6, r7, r8, r9, sl, fp, lr}
 2702 2084 1EFF2FE1 		bx	lr
 2703              	.L197:
 2704 2088 FEFFFFEB 		bl	sys_time_clock_get_unix_offset
 2705 208c 047090E0 		adds	r7, r0, r4
 2706 2090 0580A1E0 		adc	r8, r1, r5
 2707 2094 FEFFFFEB 		bl	shutter_get_seq
 2708 2098 0420A0E1 		mov	r2, r4
 2709 209c 0530A0E1 		mov	r3, r5
 2710 20a0 0810A0E1 		mov	r1, r8
 2711 20a4 00008DE5 		str	r0, [sp, #0]
 2712 20a8 0700A0E1 		mov	r0, r7
 2713 20ac FEFFFFEB 		bl	vision_buffer_buffer_camera_triggered
 2714 20b0 FEFFFFEB 		bl	shutter_get_seq
 2715 20b4 68239FE5 		ldr	r2, .L198
 2716 20b8 00B0A0E3 		mov	fp, #0
 2717 20bc 283CA0E1 		mov	r3, r8, lsr #24
 2718 20c0 601092E5 		ldr	r1, [r2, #96]	@ float
 2719 20c4 5C308DE5 		str	r3, [sp, #92]
 2720 20c8 60B08DE5 		str	fp, [sp, #96]
 2721 20cc 643092E5 		ldr	r3, [r2, #100]	@ float
 2722 20d0 58B08DE5 		str	fp, [sp, #88]
 2723 20d4 50B08DE5 		str	fp, [sp, #80]
 2724 20d8 D4B992E5 		ldr	fp, [r2, #2516]	@ float
 2725 20dc 28E4A0E1 		mov	lr, r8, lsr #8
 2726 20e0 5C4092E5 		ldr	r4, [r2, #92]	@ float
 2727 20e4 4CE08DE5 		str	lr, [sp, #76]
 2728 20e8 6CB08DE5 		str	fp, [sp, #108]	@ float
 2729 20ec 01E0A0E1 		mov	lr, r1
 2730 20f0 74B092E5 		ldr	fp, [r2, #116]	@ float
 2731 20f4 0310A0E1 		mov	r1, r3
 2732 20f8 7C3092E5 		ldr	r3, [r2, #124]	@ float
 2733 20fc 782092E5 		ldr	r2, [r2, #120]	@ float
 2734 2100 74208DE5 		str	r2, [sp, #116]	@ float
 2735 2104 2028A0E1 		mov	r2, r0, lsr #16
 2736 2108 40208DE5 		str	r2, [sp, #64]
 2737 210c 2024A0E1 		mov	r2, r0, lsr #8
 2738 2110 3C208DE5 		str	r2, [sp, #60]
 2739 2114 442CA0E1 		mov	r2, r4, asr #24
 2740 2118 38208DE5 		str	r2, [sp, #56]
 2741 211c 4428A0E1 		mov	r2, r4, asr #16
 2742 2120 34208DE5 		str	r2, [sp, #52]
 2743 2124 4424A0E1 		mov	r2, r4, asr #8
 2744 2128 30208DE5 		str	r2, [sp, #48]
 2745 212c 4E2CA0E1 		mov	r2, lr, asr #24
 2746 2130 2C208DE5 		str	r2, [sp, #44]
 2747 2134 4E28A0E1 		mov	r2, lr, asr #16
 2748 2138 28208DE5 		str	r2, [sp, #40]
 2749 213c 4E24A0E1 		mov	r2, lr, asr #8
 2750 2140 24208DE5 		str	r2, [sp, #36]
 2751 2144 412CA0E1 		mov	r2, r1, asr #24
 2752 2148 20208DE5 		str	r2, [sp, #32]
 2753 214c 4128A0E1 		mov	r2, r1, asr #16
 2754 2150 1C208DE5 		str	r2, [sp, #28]
 2755 2154 4124A0E1 		mov	r2, r1, asr #8
 2756 2158 28C8A0E1 		mov	ip, r8, lsr #16
 2757 215c 18208DE5 		str	r2, [sp, #24]
 2758 2160 6520A0E3 		mov	r2, #101
 2759 2164 54C08DE5 		str	ip, [sp, #84]
 2760 2168 8420CDE5 		strb	r2, [sp, #132]
 2761 216c 5C20DDE5 		ldrb	r2, [sp, #92]	@ zero_extendqisi2
 2762 2170 8520CDE5 		strb	r2, [sp, #133]
 2763 2174 5420DDE5 		ldrb	r2, [sp, #84]	@ zero_extendqisi2
 2764 2178 00C0A0E3 		mov	ip, #0
 2765 217c 44808DE5 		str	r8, [sp, #68]
 2766 2180 48C08DE5 		str	ip, [sp, #72]
 2767 2184 78308DE5 		str	r3, [sp, #120]	@ float
 2768 2188 70B08DE5 		str	fp, [sp, #112]	@ float
 2769 218c 2734A0E1 		mov	r3, r7, lsr #8
 2770 2190 8620CDE5 		strb	r2, [sp, #134]
 2771 2194 4C20DDE5 		ldrb	r2, [sp, #76]	@ zero_extendqisi2
 2772 2198 083C83E1 		orr	r3, r3, r8, asl #24
 2773 219c 8720CDE5 		strb	r2, [sp, #135]
 2774 21a0 8B30CDE5 		strb	r3, [sp, #139]
 2775 21a4 4420DDE5 		ldrb	r2, [sp, #68]	@ zero_extendqisi2
 2776 21a8 40309DE5 		ldr	r3, [sp, #64]
 2777 21ac 20BCA0E1 		mov	fp, r0, lsr #24
 2778 21b0 8820CDE5 		strb	r2, [sp, #136]
 2779 21b4 8DB0CDE5 		strb	fp, [sp, #141]
 2780 21b8 38208DE2 		add	r2, sp, #56
 2781 21bc 040892E8 		ldmia	r2, {r2, fp}	@ phole ldm
 2782 21c0 8E30CDE5 		strb	r3, [sp, #142]
 2783 21c4 34309DE5 		ldr	r3, [sp, #52]
 2784 21c8 2CC09DE5 		ldr	ip, [sp, #44]
 2785 21cc 8FB0CDE5 		strb	fp, [sp, #143]
 2786 21d0 9120CDE5 		strb	r2, [sp, #145]
 2787 21d4 30B09DE5 		ldr	fp, [sp, #48]
 2788 21d8 28209DE5 		ldr	r2, [sp, #40]
 2789 21dc 9230CDE5 		strb	r3, [sp, #146]
 2790 21e0 24309DE5 		ldr	r3, [sp, #36]
 2791 21e4 279CA0E1 		mov	r9, r7, lsr #24
 2792 21e8 2758A0E1 		mov	r5, r7, lsr #16
 2793 21ec 93B0CDE5 		strb	fp, [sp, #147]
 2794 21f0 95C0CDE5 		strb	ip, [sp, #149]
 2795 21f4 20B09DE5 		ldr	fp, [sp, #32]
 2796 21f8 1CC09DE5 		ldr	ip, [sp, #28]
 2797 21fc 9620CDE5 		strb	r2, [sp, #150]
 2798 2200 9730CDE5 		strb	r3, [sp, #151]
 2799 2204 98E0CDE5 		strb	lr, [sp, #152]
 2800 2208 18229FE5 		ldr	r2, .L198+4
 2801 220c 18E09DE5 		ldr	lr, [sp, #24]
 2802 2210 10329FE5 		ldr	r3, .L198+4
 2803 2214 089489E1 		orr	r9, r9, r8, asl #8
 2804 2218 085885E1 		orr	r5, r5, r8, asl #16
 2805 221c 8990CDE5 		strb	r9, [sp, #137]
 2806 2220 8A50CDE5 		strb	r5, [sp, #138]
 2807 2224 8C70CDE5 		strb	r7, [sp, #140]
 2808 2228 9000CDE5 		strb	r0, [sp, #144]
 2809 222c 9440CDE5 		strb	r4, [sp, #148]
 2810 2230 99B0CDE5 		strb	fp, [sp, #153]
 2811 2234 9AC0CDE5 		strb	ip, [sp, #154]
 2812 2238 9BE0CDE5 		strb	lr, [sp, #155]
 2813 223c 0120D2E5 		ldrb	r2, [r2, #1]	@ zero_extendqisi2
 2814 2240 0030D3E5 		ldrb	r3, [r3, #0]	@ zero_extendqisi2
 2815 2244 64208DE5 		str	r2, [sp, #100]
 2816 2248 68308DE5 		str	r3, [sp, #104]
 2817 224c 9C10CDE5 		strb	r1, [sp, #156]
 2818 2250 D4B19FE5 		ldr	fp, .L198+8
 2819 2254 0EB0DBE5 		ldrb	fp, [fp, #14]	@ zero_extendqisi2
 2820 2258 6C309DE5 		ldr	r3, [sp, #108]	@ float
 2821 225c 78009DE5 		ldr	r0, [sp, #120]	@ float
 2822 2260 01C08BE2 		add	ip, fp, #1
 2823 2264 08C08DE5 		str	ip, [sp, #8]
 2824 2268 43ECA0E1 		mov	lr, r3, asr #24
 2825 226c 40CCA0E1 		mov	ip, r0, asr #24
 2826 2270 04E08DE5 		str	lr, [sp, #4]
 2827 2274 14C08DE5 		str	ip, [sp, #20]
 2828 2278 40E8A0E1 		mov	lr, r0, asr #16
 2829 227c 40C4A0E1 		mov	ip, r0, asr #8
 2830 2280 10E08DE5 		str	lr, [sp, #16]
 2831 2284 0CC08DE5 		str	ip, [sp, #12]
 2832 2288 9CE19FE5 		ldr	lr, .L198+8
 2833 228c 08C09DE5 		ldr	ip, [sp, #8]
 2834 2290 70209DE5 		ldr	r2, [sp, #112]	@ float
 2835 2294 74109DE5 		ldr	r1, [sp, #116]	@ float
 2836 2298 7CB08DE5 		str	fp, [sp, #124]
 2837 229c 0EC0CEE5 		strb	ip, [lr, #14]
 2838 22a0 04E09DE5 		ldr	lr, [sp, #4]
 2839 22a4 4348A0E1 		mov	r4, r3, asr #16
 2840 22a8 4354A0E1 		mov	r5, r3, asr #8
 2841 22ac 426CA0E1 		mov	r6, r2, asr #24
 2842 22b0 4278A0E1 		mov	r7, r2, asr #16
 2843 22b4 4284A0E1 		mov	r8, r2, asr #8
 2844 22b8 A030CDE5 		strb	r3, [sp, #160]
 2845 22bc A420CDE5 		strb	r2, [sp, #164]
 2846 22c0 10309DE5 		ldr	r3, [sp, #16]
 2847 22c4 14209DE5 		ldr	r2, [sp, #20]
 2848 22c8 41B4A0E1 		mov	fp, r1, asr #8
 2849 22cc 41ACA0E1 		mov	sl, r1, asr #24
 2850 22d0 4198A0E1 		mov	r9, r1, asr #16
 2851 22d4 9DE0CDE5 		strb	lr, [sp, #157]
 2852 22d8 A7B0CDE5 		strb	fp, [sp, #167]
 2853 22dc A810CDE5 		strb	r1, [sp, #168]
 2854 22e0 A920CDE5 		strb	r2, [sp, #169]
 2855 22e4 9E40CDE5 		strb	r4, [sp, #158]
 2856 22e8 9F50CDE5 		strb	r5, [sp, #159]
 2857 22ec A160CDE5 		strb	r6, [sp, #161]
 2858 22f0 A270CDE5 		strb	r7, [sp, #162]
 2859 22f4 A380CDE5 		strb	r8, [sp, #163]
 2860 22f8 A5A0CDE5 		strb	sl, [sp, #165]
 2861 22fc A690CDE5 		strb	r9, [sp, #166]
 2862 2300 AA30CDE5 		strb	r3, [sp, #170]
 2863 2304 68C09DE5 		ldr	ip, [sp, #104]
 2864 2308 0CB09DE5 		ldr	fp, [sp, #12]
 2865 230c 64E09DE5 		ldr	lr, [sp, #100]
 2866 2310 7C209DE5 		ldr	r2, [sp, #124]
 2867 2314 2830A0E3 		mov	r3, #40
 2868 2318 82C0CDE5 		strb	ip, [sp, #130]
 2869 231c ABB0CDE5 		strb	fp, [sp, #171]
 2870 2320 01C8A0E3 		mov	ip, #65536
 2871 2324 8030CDE5 		strb	r3, [sp, #128]
 2872 2328 83E0CDE5 		strb	lr, [sp, #131]
 2873 232c 8120CDE5 		strb	r2, [sp, #129]
 2874 2330 AC00CDE5 		strb	r0, [sp, #172]
 2875 2334 01C04CE2 		sub	ip, ip, #1
 2876 2338 80008DE2 		add	r0, sp, #128
 2877 233c 0010A0E3 		mov	r1, #0
 2878              	.L188:
 2879 2340 0030D1E7 		ldrb	r3, [r1, r0]	@ zero_extendqisi2
 2880 2344 0C3023E0 		eor	r3, r3, ip
 2881 2348 FF3003E2 		and	r3, r3, #255
 2882 234c 033223E0 		eor	r3, r3, r3, asl #4
 2883 2350 FF3003E2 		and	r3, r3, #255
 2884 2354 0324A0E1 		mov	r2, r3, asl #8
 2885 2358 2C2482E1 		orr	r2, r2, ip, lsr #8
 2886 235c 232222E0 		eor	r2, r2, r3, lsr #4
 2887 2360 832122E0 		eor	r2, r2, r3, asl #3
 2888 2364 011081E2 		add	r1, r1, #1
 2889 2368 0228A0E1 		mov	r2, r2, asl #16
 2890 236c 2D0051E3 		cmp	r1, #45
 2891 2370 22C8A0E1 		mov	ip, r2, lsr #16
 2892 2374 F1FFFF1A 		bne	.L188
 2893 2378 2C34A0E1 		mov	r3, ip, lsr #8
 2894 237c 0000A0E3 		mov	r0, #0
 2895 2380 281081E2 		add	r1, r1, #40
 2896 2384 8531CDE5 		strb	r3, [sp, #389]
 2897 2388 84C1CDE5 		strb	ip, [sp, #388]
 2898 238c FEFFFFEB 		bl	comm_send_ch
 2899 2390 0000A0E3 		mov	r0, #0
 2900 2394 8010DDE5 		ldrb	r1, [sp, #128]	@ zero_extendqisi2
 2901 2398 FEFFFFEB 		bl	comm_send_ch
 2902 239c 0000A0E3 		mov	r0, #0
 2903 23a0 8110DDE5 		ldrb	r1, [sp, #129]	@ zero_extendqisi2
 2904 23a4 FEFFFFEB 		bl	comm_send_ch
 2905 23a8 0000A0E3 		mov	r0, #0
 2906 23ac 8210DDE5 		ldrb	r1, [sp, #130]	@ zero_extendqisi2
 2907 23b0 FEFFFFEB 		bl	comm_send_ch
 2908 23b4 0000A0E3 		mov	r0, #0
 2909 23b8 8310DDE5 		ldrb	r1, [sp, #131]	@ zero_extendqisi2
 2910 23bc FEFFFFEB 		bl	comm_send_ch
 2911 23c0 0000A0E3 		mov	r0, #0
 2912 23c4 8410DDE5 		ldrb	r1, [sp, #132]	@ zero_extendqisi2
 2913 23c8 FEFFFFEB 		bl	comm_send_ch
 2914 23cc 8030DDE5 		ldrb	r3, [sp, #128]	@ zero_extendqisi2
 2915 23d0 000053E3 		cmp	r3, #0
 2916 23d4 0B00000A 		beq	.L190
 2917 23d8 0040A0E3 		mov	r4, #0
 2918              	.L192:
 2919 23dc 62BF8DE2 		add	fp, sp, #392
 2920 23e0 04308BE0 		add	r3, fp, r4
 2921 23e4 031153E5 		ldrb	r1, [r3, #-259]	@ zero_extendqisi2
 2922 23e8 0000A0E3 		mov	r0, #0
 2923 23ec FEFFFFEB 		bl	comm_send_ch
 2924 23f0 013084E2 		add	r3, r4, #1
 2925 23f4 0338A0E1 		mov	r3, r3, asl #16
 2926 23f8 8020DDE5 		ldrb	r2, [sp, #128]	@ zero_extendqisi2
 2927 23fc 2348A0E1 		mov	r4, r3, lsr #16
 2928 2400 040052E1 		cmp	r2, r4
 2929 2404 F4FFFF8A 		bhi	.L192
 2930              	.L190:
 2931 2408 8411DDE5 		ldrb	r1, [sp, #388]	@ zero_extendqisi2
 2932 240c 0000A0E3 		mov	r0, #0
 2933 2410 FEFFFFEB 		bl	comm_send_ch
 2934 2414 0000A0E3 		mov	r0, #0
 2935 2418 8511DDE5 		ldrb	r1, [sp, #389]	@ zero_extendqisi2
 2936 241c FEFFFFEB 		bl	comm_send_ch
 2937 2420 15FFFFEA 		b	.L193
 2938              	.L199:
 2939              		.align	2
 2940              	.L198:
 2941 2424 00000000 		.word	global_data
 2942 2428 00000000 		.word	mavlink_system
 2943 242c 00000000 		.word	m_mavlink_status.2143
 2945              		.align	2
 2946              		.global	fuse_vision_altitude_200hz
 2948              	fuse_vision_altitude_200hz:
 2949              		@ Function supports interworking.
 2950              		@ args = 0, pretend = 0, frame = 264
 2951              		@ frame_needed = 0, uses_anonymous_args = 0
 2952 2430 F0452DE9 		stmfd	sp!, {r4, r5, r6, r7, r8, sl, lr}
 2953 2434 24429FE5 		ldr	r4, .L214
 2954 2438 24529FE5 		ldr	r5, .L214+4
 2955 243c 24629FE5 		ldr	r6, .L214+8
 2956 2440 42DF4DE2 		sub	sp, sp, #264
 2957 2444 0400A0E1 		mov	r0, r4
 2958 2448 0510A0E1 		mov	r1, r5
 2959 244c 0620A0E1 		mov	r2, r6
 2960 2450 FEFFFFEB 		bl	x_position_kalman3
 2961 2454 9DAE44E2 		sub	sl, r4, #2512
 2962 2458 0400A0E1 		mov	r0, r4
 2963 245c 0510A0E1 		mov	r1, r5
 2964 2460 0620A0E1 		mov	r2, r6
 2965 2464 FEFFFFEB 		bl	y_position_kalman3
 2966 2468 0CA04AE2 		sub	sl, sl, #12
 2967 246c 0400A0E1 		mov	r0, r4
 2968 2470 0510A0E1 		mov	r1, r5
 2969 2474 0620A0E1 		mov	r2, r6
 2970 2478 FEFFFFEB 		bl	z_position_kalman3
 2971 247c 140A9AE5 		ldr	r0, [sl, #2580]
 2972 2480 087095E5 		ldr	r7, [r5, #8]	@ float
 2973 2484 083096E5 		ldr	r3, [r6, #8]	@ float
 2974 2488 002095E5 		ldr	r2, [r5, #0]	@ float
 2975 248c 041095E5 		ldr	r1, [r5, #4]	@ float
 2976 2490 00C096E5 		ldr	ip, [r6, #0]	@ float
 2977 2494 04E096E5 		ldr	lr, [r6, #4]	@ float
 2978 2498 000050E3 		cmp	r0, #0
 2979 249c 6C3904E5 		str	r3, [r4, #-2412]	@ float
 2980 24a0 682904E5 		str	r2, [r4, #-2408]	@ float
 2981 24a4 641904E5 		str	r1, [r4, #-2404]	@ float
 2982 24a8 7C708AE5 		str	r7, [sl, #124]	@ float
 2983 24ac 74C904E5 		str	ip, [r4, #-2420]	@ float
 2984 24b0 6CE08AE5 		str	lr, [sl, #108]	@ float
 2985 24b4 5E00000A 		beq	.L201
 2986 24b8 7C039AE5 		ldr	r0, [sl, #892]	@ float
 2987 24bc FEFFFFEB 		bl	__fixunssfsi
 2988 24c0 0C2A9AE5 		ldr	r2, [sl, #2572]
 2989 24c4 043A9AE5 		ldr	r3, [sl, #2564]
 2990 24c8 032052E0 		subs	r2, r2, r3
 2991 24cc 0080A0E1 		mov	r8, r0
 2992 24d0 5C00004A 		bmi	.L204
 2993 24d4 0200A0E1 		mov	r0, r2
 2994 24d8 FEFFFFEB 		bl	__floatsisf
 2995              	.L203:
 2996 24dc FF3008E2 		and	r3, r8, #255
 2997 24e0 84219FE5 		ldr	r2, .L214+12
 2998 24e4 033183E0 		add	r3, r3, r3, asl #2
 2999 24e8 032182E0 		add	r2, r2, r3, asl #2
 3000 24ec 0E50D2E5 		ldrb	r5, [r2, #14]	@ zero_extendqisi2
 3001 24f0 78119FE5 		ldr	r1, .L214+16
 3002 24f4 01C085E2 		add	ip, r5, #1
 3003 24f8 0170D1E5 		ldrb	r7, [r1, #1]	@ zero_extendqisi2
 3004 24fc 0060D1E5 		ldrb	r6, [r1, #0]	@ zero_extendqisi2
 3005 2500 0030E0E3 		mvn	r3, #0
 3006 2504 0EC0C2E5 		strb	ip, [r2, #14]
 3007 2508 40E8A0E1 		mov	lr, r0, asr #16
 3008 250c 4044A0E1 		mov	r4, r0, asr #8
 3009 2510 0430CDE5 		strb	r3, [sp, #4]
 3010 2514 6420A0E3 		mov	r2, #100
 3011 2518 063083E2 		add	r3, r3, #6
 3012 251c 401CA0E1 		mov	r1, r0, asr #24
 3013 2520 01C8A0E3 		mov	ip, #65536
 3014 2524 0520CDE5 		strb	r2, [sp, #5]
 3015 2528 07E0CDE5 		strb	lr, [sp, #7]
 3016 252c 0840CDE5 		strb	r4, [sp, #8]
 3017 2530 0030CDE5 		strb	r3, [sp, #0]
 3018 2534 0260CDE5 		strb	r6, [sp, #2]
 3019 2538 0370CDE5 		strb	r7, [sp, #3]
 3020 253c 0150CDE5 		strb	r5, [sp, #1]
 3021 2540 0610CDE5 		strb	r1, [sp, #6]
 3022 2544 0900CDE5 		strb	r0, [sp, #9]
 3023 2548 01C04CE2 		sub	ip, ip, #1
 3024 254c 0D00A0E1 		mov	r0, sp
 3025 2550 0010A0E3 		mov	r1, #0
 3026              	.L205:
 3027 2554 0030D1E7 		ldrb	r3, [r1, r0]	@ zero_extendqisi2
 3028 2558 0C3023E0 		eor	r3, r3, ip
 3029 255c FF3003E2 		and	r3, r3, #255
 3030 2560 033223E0 		eor	r3, r3, r3, asl #4
 3031 2564 FF3003E2 		and	r3, r3, #255
 3032 2568 0324A0E1 		mov	r2, r3, asl #8
 3033 256c 2C2482E1 		orr	r2, r2, ip, lsr #8
 3034 2570 232222E0 		eor	r2, r2, r3, lsr #4
 3035 2574 832122E0 		eor	r2, r2, r3, asl #3
 3036 2578 011081E2 		add	r1, r1, #1
 3037 257c 0228A0E1 		mov	r2, r2, asl #16
 3038 2580 0A0051E3 		cmp	r1, #10
 3039 2584 22C8A0E1 		mov	ip, r2, lsr #16
 3040 2588 F1FFFF1A 		bne	.L205
 3041 258c 2C34A0E1 		mov	r3, ip, lsr #8
 3042 2590 4B1081E2 		add	r1, r1, #75
 3043 2594 0800A0E1 		mov	r0, r8
 3044 2598 0531CDE5 		strb	r3, [sp, #261]
 3045 259c 04C1CDE5 		strb	ip, [sp, #260]
 3046 25a0 FEFFFFEB 		bl	comm_send_ch
 3047 25a4 0800A0E1 		mov	r0, r8
 3048 25a8 0010DDE5 		ldrb	r1, [sp, #0]	@ zero_extendqisi2
 3049 25ac FEFFFFEB 		bl	comm_send_ch
 3050 25b0 0800A0E1 		mov	r0, r8
 3051 25b4 0110DDE5 		ldrb	r1, [sp, #1]	@ zero_extendqisi2
 3052 25b8 FEFFFFEB 		bl	comm_send_ch
 3053 25bc 0800A0E1 		mov	r0, r8
 3054 25c0 0210DDE5 		ldrb	r1, [sp, #2]	@ zero_extendqisi2
 3055 25c4 FEFFFFEB 		bl	comm_send_ch
 3056 25c8 0800A0E1 		mov	r0, r8
 3057 25cc 0310DDE5 		ldrb	r1, [sp, #3]	@ zero_extendqisi2
 3058 25d0 FEFFFFEB 		bl	comm_send_ch
 3059 25d4 0800A0E1 		mov	r0, r8
 3060 25d8 0410DDE5 		ldrb	r1, [sp, #4]	@ zero_extendqisi2
 3061 25dc FEFFFFEB 		bl	comm_send_ch
 3062 25e0 0030DDE5 		ldrb	r3, [sp, #0]	@ zero_extendqisi2
 3063 25e4 000053E3 		cmp	r3, #0
 3064 25e8 0B00000A 		beq	.L207
 3065 25ec 0040A0E3 		mov	r4, #0
 3066              	.L209:
 3067 25f0 422F8DE2 		add	r2, sp, #264
 3068 25f4 043082E0 		add	r3, r2, r4
 3069 25f8 031153E5 		ldrb	r1, [r3, #-259]	@ zero_extendqisi2
 3070 25fc 0800A0E1 		mov	r0, r8
 3071 2600 FEFFFFEB 		bl	comm_send_ch
 3072 2604 013084E2 		add	r3, r4, #1
 3073 2608 0338A0E1 		mov	r3, r3, asl #16
 3074 260c 0020DDE5 		ldrb	r2, [sp, #0]	@ zero_extendqisi2
 3075 2610 2348A0E1 		mov	r4, r3, lsr #16
 3076 2614 040052E1 		cmp	r2, r4
 3077 2618 F4FFFF8A 		bhi	.L209
 3078              	.L207:
 3079 261c 0411DDE5 		ldrb	r1, [sp, #260]	@ zero_extendqisi2
 3080 2620 0800A0E1 		mov	r0, r8
 3081 2624 FEFFFFEB 		bl	comm_send_ch
 3082 2628 0800A0E1 		mov	r0, r8
 3083 262c 0511DDE5 		ldrb	r1, [sp, #261]	@ zero_extendqisi2
 3084 2630 FEFFFFEB 		bl	comm_send_ch
 3085              	.L201:
 3086 2634 0030A0E3 		mov	r3, #0
 3087 2638 143A8AE5 		str	r3, [sl, #2580]
 3088 263c 42DF8DE2 		add	sp, sp, #264
 3089 2640 F045BDE8 		ldmfd	sp!, {r4, r5, r6, r7, r8, sl, lr}
 3090 2644 1EFF2FE1 		bx	lr
 3091              	.L204:
 3092 2648 010002E2 		and	r0, r2, #1
 3093 264c A20080E1 		orr	r0, r0, r2, lsr #1
 3094 2650 FEFFFFEB 		bl	__floatsisf
 3095 2654 0010A0E1 		mov	r1, r0
 3096 2658 FEFFFFEB 		bl	__addsf3
 3097 265c 9EFFFFEA 		b	.L203
 3098              	.L215:
 3099              		.align	2
 3100              	.L214:
 3101 2660 DC090000 		.word	global_data+2524
 3102 2664 5C000000 		.word	pos_est3.21097
 3103 2668 50000000 		.word	vel_est3.21098
 3104 266c 00000000 		.word	m_mavlink_status.2143
 3105 2670 00000000 		.word	mavlink_system
 3107              		.align	2
 3108              		.global	handle_controller_timeouts
 3110              	handle_controller_timeouts:
 3111              		@ Function supports interworking.
 3112              		@ args = 0, pretend = 0, frame = 320
 3113              		@ frame_needed = 0, uses_anonymous_args = 0
 3114 2674 F04F2DE9 		stmfd	sp!, {r4, r5, r6, r7, r8, r9, sl, fp, lr}
 3115 2678 B0249FE5 		ldr	r2, .L256
 3116 267c B0B49FE5 		ldr	fp, .L256+4
 3117 2680 0E20D2E5 		ldrb	r2, [r2, #14]	@ zero_extendqisi2
 3118 2684 80309BE5 		ldr	r3, [fp, #128]	@ float
 3119 2688 05DD4DE2 		sub	sp, sp, #320
 3120 268c 24208DE5 		str	r2, [sp, #36]
 3121 2690 0320A0E1 		mov	r2, r3
 3122 2694 9C349FE5 		ldr	r3, .L256+8
 3123 2698 0030D3E5 		ldrb	r3, [r3, #0]	@ zero_extendqisi2
 3124 269c 20308DE5 		str	r3, [sp, #32]
 3125 26a0 90349FE5 		ldr	r3, .L256+8
 3126 26a4 0130D3E5 		ldrb	r3, [r3, #1]	@ zero_extendqisi2
 3127 26a8 84C09BE5 		ldr	ip, [fp, #132]	@ float
 3128 26ac 1C308DE5 		str	r3, [sp, #28]
 3129 26b0 24309DE5 		ldr	r3, [sp, #36]
 3130 26b4 0C50A0E1 		mov	r5, ip
 3131 26b8 88E09BE5 		ldr	lr, [fp, #136]	@ float
 3132 26bc 013083E2 		add	r3, r3, #1
 3133 26c0 8C409BE5 		ldr	r4, [fp, #140]	@ float
 3134 26c4 00308DE5 		str	r3, [sp, #0]
 3135 26c8 453CA0E1 		mov	r3, r5, asr #24
 3136 26cc 0E60A0E1 		mov	r6, lr
 3137 26d0 18308DE5 		str	r3, [sp, #24]
 3138 26d4 4538A0E1 		mov	r3, r5, asr #16
 3139 26d8 04C0A0E1 		mov	ip, r4
 3140 26dc 14308DE5 		str	r3, [sp, #20]
 3141 26e0 4634A0E1 		mov	r3, r6, asr #8
 3142 26e4 10308DE5 		str	r3, [sp, #16]
 3143 26e8 4C3CA0E1 		mov	r3, ip, asr #24
 3144 26ec 0C308DE5 		str	r3, [sp, #12]
 3145 26f0 4C38A0E1 		mov	r3, ip, asr #16
 3146 26f4 42ECA0E1 		mov	lr, r2, asr #24
 3147 26f8 4248A0E1 		mov	r4, r2, asr #16
 3148 26fc 4274A0E1 		mov	r7, r2, asr #8
 3149 2700 08308DE5 		str	r3, [sp, #8]
 3150 2704 4020CDE5 		strb	r2, [sp, #64]
 3151 2708 4C34A0E1 		mov	r3, ip, asr #8
 3152 270c 18209DE5 		ldr	r2, [sp, #24]
 3153 2710 04308DE5 		str	r3, [sp, #4]
 3154 2714 3330A0E3 		mov	r3, #51
 3155 2718 3C30CDE5 		strb	r3, [sp, #60]
 3156 271c 4120CDE5 		strb	r2, [sp, #65]
 3157 2720 10208DE2 		add	r2, sp, #16
 3158 2724 0C0092E8 		ldmia	r2, {r2, r3}	@ phole ldm
 3159 2728 4594A0E1 		mov	r9, r5, asr #8
 3160 272c 46ACA0E1 		mov	sl, r6, asr #24
 3161 2730 4688A0E1 		mov	r8, r6, asr #16
 3162 2734 4230CDE5 		strb	r3, [sp, #66]
 3163 2738 4450CDE5 		strb	r5, [sp, #68]
 3164 273c 3DE0CDE5 		strb	lr, [sp, #61]
 3165 2740 3E40CDE5 		strb	r4, [sp, #62]
 3166 2744 3F70CDE5 		strb	r7, [sp, #63]
 3167 2748 4390CDE5 		strb	r9, [sp, #67]
 3168 274c 45A0CDE5 		strb	sl, [sp, #69]
 3169 2750 4680CDE5 		strb	r8, [sp, #70]
 3170 2754 4720CDE5 		strb	r2, [sp, #71]
 3171 2758 0C309DE5 		ldr	r3, [sp, #12]
 3172 275c 4930CDE5 		strb	r3, [sp, #73]
 3173 2760 04309DE5 		ldr	r3, [sp, #4]
 3174 2764 08209DE5 		ldr	r2, [sp, #8]
 3175 2768 4B30CDE5 		strb	r3, [sp, #75]
 3176 276c 1030A0E3 		mov	r3, #16
 3177 2770 4A20CDE5 		strb	r2, [sp, #74]
 3178 2774 3830CDE5 		strb	r3, [sp, #56]
 3179 2778 20209DE5 		ldr	r2, [sp, #32]
 3180 277c 1C309DE5 		ldr	r3, [sp, #28]
 3181 2780 3A20CDE5 		strb	r2, [sp, #58]
 3182 2784 3B30CDE5 		strb	r3, [sp, #59]
 3183 2788 A0239FE5 		ldr	r2, .L256
 3184 278c 00309DE5 		ldr	r3, [sp, #0]
 3185 2790 4860CDE5 		strb	r6, [sp, #72]
 3186 2794 4CC0CDE5 		strb	ip, [sp, #76]
 3187 2798 0E30C2E5 		strb	r3, [r2, #14]
 3188 279c 24209DE5 		ldr	r2, [sp, #36]
 3189 27a0 01C8A0E3 		mov	ip, #65536
 3190 27a4 3920CDE5 		strb	r2, [sp, #57]
 3191 27a8 0160A0E1 		mov	r6, r1
 3192 27ac 0050A0E1 		mov	r5, r0
 3193 27b0 01C04CE2 		sub	ip, ip, #1
 3194 27b4 0010A0E3 		mov	r1, #0
 3195              	.L217:
 3196 27b8 382081E2 		add	r2, r1, #56
 3197 27bc 0D30D2E7 		ldrb	r3, [r2, sp]	@ zero_extendqisi2
 3198 27c0 0C3023E0 		eor	r3, r3, ip
 3199 27c4 FF3003E2 		and	r3, r3, #255
 3200 27c8 033223E0 		eor	r3, r3, r3, asl #4
 3201 27cc FF3003E2 		and	r3, r3, #255
 3202 27d0 0324A0E1 		mov	r2, r3, asl #8
 3203 27d4 2C2482E1 		orr	r2, r2, ip, lsr #8
 3204 27d8 232222E0 		eor	r2, r2, r3, lsr #4
 3205 27dc 832122E0 		eor	r2, r2, r3, asl #3
 3206 27e0 011081E2 		add	r1, r1, #1
 3207 27e4 0228A0E1 		mov	r2, r2, asl #16
 3208 27e8 150051E3 		cmp	r1, #21
 3209 27ec 22C8A0E1 		mov	ip, r2, lsr #16
 3210 27f0 F0FFFF1A 		bne	.L217
 3211 27f4 2C34A0E1 		mov	r3, ip, lsr #8
 3212 27f8 0000A0E3 		mov	r0, #0
 3213 27fc 401081E2 		add	r1, r1, #64
 3214 2800 3D31CDE5 		strb	r3, [sp, #317]
 3215 2804 3CC1CDE5 		strb	ip, [sp, #316]
 3216 2808 FEFFFFEB 		bl	comm_send_ch
 3217 280c 0000A0E3 		mov	r0, #0
 3218 2810 3810DDE5 		ldrb	r1, [sp, #56]	@ zero_extendqisi2
 3219 2814 FEFFFFEB 		bl	comm_send_ch
 3220 2818 0000A0E3 		mov	r0, #0
 3221 281c 3910DDE5 		ldrb	r1, [sp, #57]	@ zero_extendqisi2
 3222 2820 FEFFFFEB 		bl	comm_send_ch
 3223 2824 0000A0E3 		mov	r0, #0
 3224 2828 3A10DDE5 		ldrb	r1, [sp, #58]	@ zero_extendqisi2
 3225 282c FEFFFFEB 		bl	comm_send_ch
 3226 2830 0000A0E3 		mov	r0, #0
 3227 2834 3B10DDE5 		ldrb	r1, [sp, #59]	@ zero_extendqisi2
 3228 2838 FEFFFFEB 		bl	comm_send_ch
 3229 283c 0000A0E3 		mov	r0, #0
 3230 2840 3C10DDE5 		ldrb	r1, [sp, #60]	@ zero_extendqisi2
 3231 2844 FEFFFFEB 		bl	comm_send_ch
 3232 2848 3830DDE5 		ldrb	r3, [sp, #56]	@ zero_extendqisi2
 3233 284c 000053E3 		cmp	r3, #0
 3234 2850 0B00000A 		beq	.L219
 3235 2854 0040A0E3 		mov	r4, #0
 3236              	.L221:
 3237 2858 052D8DE2 		add	r2, sp, #320
 3238 285c 043082E0 		add	r3, r2, r4
 3239 2860 031153E5 		ldrb	r1, [r3, #-259]	@ zero_extendqisi2
 3240 2864 0000A0E3 		mov	r0, #0
 3241 2868 FEFFFFEB 		bl	comm_send_ch
 3242 286c 013084E2 		add	r3, r4, #1
 3243 2870 0338A0E1 		mov	r3, r3, asl #16
 3244 2874 3820DDE5 		ldrb	r2, [sp, #56]	@ zero_extendqisi2
 3245 2878 2348A0E1 		mov	r4, r3, lsr #16
 3246 287c 040052E1 		cmp	r2, r4
 3247 2880 F4FFFF8A 		bhi	.L221
 3248              	.L219:
 3249 2884 0000A0E3 		mov	r0, #0
 3250 2888 3C11DDE5 		ldrb	r1, [sp, #316]	@ zero_extendqisi2
 3251 288c FEFFFFEB 		bl	comm_send_ch
 3252 2890 3D11DDE5 		ldrb	r1, [sp, #317]	@ zero_extendqisi2
 3253 2894 0000A0E3 		mov	r0, #0
 3254 2898 FEFFFFEB 		bl	comm_send_ch
 3255 289c 181A9BE5 		ldr	r1, [fp, #2584]
 3256 28a0 1C2A9BE5 		ldr	r2, [fp, #2588]
 3257 28a4 023091E1 		orrs	r3, r1, r2
 3258 28a8 0900000A 		beq	.L222
 3259 28ac 80329FE5 		ldr	r3, .L256+4
 3260 28b0 0540A0E1 		mov	r4, r5
 3261 28b4 F00293E5 		ldr	r0, [r3, #752]	@ float
 3262 28b8 0650A0E1 		mov	r5, r6
 3263 28bc 014054E0 		subs	r4, r4, r1
 3264 28c0 0250C5E0 		sbc	r5, r5, r2
 3265 28c4 FEFFFFEB 		bl	__fixunssfsi
 3266 28c8 000055E3 		cmp	r5, #0
 3267 28cc 0010A0E3 		mov	r1, #0
 3268 28d0 8E00009A 		bls	.L254
 3269              	.L222:
 3270 28d4 0030A0E3 		mov	r3, #0
 3271 28d8 3331CBE5 		strb	r3, [fp, #307]
 3272 28dc 2C31CBE5 		strb	r3, [fp, #300]
 3273              	.L226:
 3274 28e0 0140A0E3 		mov	r4, #1
 3275 28e4 74029BE5 		ldr	r0, [fp, #628]	@ float
 3276 28e8 0010A0E3 		mov	r1, #0
 3277 28ec 3541CBE5 		strb	r4, [fp, #309]
 3278 28f0 FEFFFFEB 		bl	__gtsf2
 3279 28f4 38229FE5 		ldr	r2, .L256+4
 3280 28f8 000050E3 		cmp	r0, #0
 3281 28fc 0030A0D3 		movle	r3, #0
 3282 2900 3631C2D5 		strleb	r3, [r2, #310]
 3283 2904 3641C2C5 		strgtb	r4, [r2, #310]
 3284 2908 78029BE5 		ldr	r0, [fp, #632]	@ float
 3285 290c 0010A0E3 		mov	r1, #0
 3286 2910 FEFFFFEB 		bl	__gtsf2
 3287 2914 18229FE5 		ldr	r2, .L256+4
 3288 2918 000050E3 		cmp	r0, #0
 3289 291c 0130A0C3 		movgt	r3, #1
 3290 2920 0030A0D3 		movle	r3, #0
 3291 2924 3731C2C5 		strgtb	r3, [r2, #311]
 3292 2928 3731C2D5 		strleb	r3, [r2, #311]
 3293 292c 7C029BE5 		ldr	r0, [fp, #636]	@ float
 3294 2930 0010A0E3 		mov	r1, #0
 3295 2934 FEFFFFEB 		bl	__gtsf2
 3296 2938 F4219FE5 		ldr	r2, .L256+4
 3297 293c 000050E3 		cmp	r0, #0
 3298 2940 0130A0C3 		movgt	r3, #1
 3299 2944 0030A0D3 		movle	r3, #0
 3300 2948 3831C2C5 		strgtb	r3, [r2, #312]
 3301 294c 3831C2D5 		strleb	r3, [r2, #312]
 3302 2950 7C039BE5 		ldr	r0, [fp, #892]	@ float
 3303 2954 FEFFFFEB 		bl	__fixunssfsi
 3304 2958 2C21DBE5 		ldrb	r2, [fp, #300]	@ zero_extendqisi2
 3305 295c 000052E3 		cmp	r2, #0
 3306 2960 CC319F05 		ldreq	r3, .L256+4
 3307 2964 3331D305 		ldreqb	r3, [r3, #307]	@ zero_extendqisi2
 3308 2968 0320A013 		movne	r2, #3
 3309 296c 34208D15 		strne	r2, [sp, #52]
 3310 2970 30208D15 		strne	r2, [sp, #48]
 3311 2974 30308D05 		streq	r3, [sp, #48]
 3312 2978 34208D05 		streq	r2, [sp, #52]
 3313 297c AC319FE5 		ldr	r3, .L256
 3314 2980 FF2000E2 		and	r2, r0, #255
 3315 2984 022182E0 		add	r2, r2, r2, asl #2
 3316 2988 022183E0 		add	r2, r3, r2, asl #2
 3317 298c A4319FE5 		ldr	r3, .L256+8
 3318 2990 0130D3E5 		ldrb	r3, [r3, #1]	@ zero_extendqisi2
 3319 2994 0E60D2E5 		ldrb	r6, [r2, #14]	@ zero_extendqisi2
 3320 2998 28308DE5 		str	r3, [sp, #40]
 3321 299c 94319FE5 		ldr	r3, .L256+8
 3322 29a0 0030D3E5 		ldrb	r3, [r3, #0]	@ zero_extendqisi2
 3323 29a4 011086E2 		add	r1, r6, #1
 3324 29a8 2C308DE5 		str	r3, [sp, #44]
 3325 29ac 35C1DBE5 		ldrb	ip, [fp, #309]	@ zero_extendqisi2
 3326 29b0 3871DBE5 		ldrb	r7, [fp, #312]	@ zero_extendqisi2
 3327 29b4 36E1DBE5 		ldrb	lr, [fp, #310]	@ zero_extendqisi2
 3328 29b8 3741DBE5 		ldrb	r4, [fp, #311]	@ zero_extendqisi2
 3329 29bc 3430A0E3 		mov	r3, #52
 3330 29c0 0090A0E1 		mov	r9, r0
 3331 29c4 2D01DBE5 		ldrb	r0, [fp, #301]	@ zero_extendqisi2
 3332 29c8 0E10C2E5 		strb	r1, [r2, #14]
 3333 29cc 3C30CDE5 		strb	r3, [sp, #60]
 3334 29d0 30208DE2 		add	r2, sp, #48
 3335 29d4 0C0092E8 		ldmia	r2, {r2, r3}	@ phole ldm
 3336 29d8 3E30CDE5 		strb	r3, [sp, #62]
 3337 29dc 0830A0E3 		mov	r3, #8
 3338 29e0 3D20CDE5 		strb	r2, [sp, #61]
 3339 29e4 3830CDE5 		strb	r3, [sp, #56]
 3340 29e8 2C209DE5 		ldr	r2, [sp, #44]
 3341 29ec 28309DE5 		ldr	r3, [sp, #40]
 3342 29f0 0050A0E3 		mov	r5, #0
 3343 29f4 41C0CDE5 		strb	ip, [sp, #65]
 3344 29f8 3F00CDE5 		strb	r0, [sp, #63]
 3345 29fc 42E0CDE5 		strb	lr, [sp, #66]
 3346 2a00 4340CDE5 		strb	r4, [sp, #67]
 3347 2a04 4470CDE5 		strb	r7, [sp, #68]
 3348 2a08 3A20CDE5 		strb	r2, [sp, #58]
 3349 2a0c 3B30CDE5 		strb	r3, [sp, #59]
 3350 2a10 4050CDE5 		strb	r5, [sp, #64]
 3351 2a14 01C8A0E3 		mov	ip, #65536
 3352 2a18 3960CDE5 		strb	r6, [sp, #57]
 3353 2a1c 01C04CE2 		sub	ip, ip, #1
 3354              	.L242:
 3355 2a20 382085E2 		add	r2, r5, #56
 3356 2a24 0D30D2E7 		ldrb	r3, [r2, sp]	@ zero_extendqisi2
 3357 2a28 0C3023E0 		eor	r3, r3, ip
 3358 2a2c FF3003E2 		and	r3, r3, #255
 3359 2a30 033223E0 		eor	r3, r3, r3, asl #4
 3360 2a34 FF3003E2 		and	r3, r3, #255
 3361 2a38 0324A0E1 		mov	r2, r3, asl #8
 3362 2a3c 2C2482E1 		orr	r2, r2, ip, lsr #8
 3363 2a40 232222E0 		eor	r2, r2, r3, lsr #4
 3364 2a44 832122E0 		eor	r2, r2, r3, asl #3
 3365 2a48 015085E2 		add	r5, r5, #1
 3366 2a4c 0228A0E1 		mov	r2, r2, asl #16
 3367 2a50 0D0055E3 		cmp	r5, #13
 3368 2a54 22C8A0E1 		mov	ip, r2, lsr #16
 3369 2a58 F0FFFF1A 		bne	.L242
 3370 2a5c 2C34A0E1 		mov	r3, ip, lsr #8
 3371 2a60 5510A0E3 		mov	r1, #85
 3372 2a64 0900A0E1 		mov	r0, r9
 3373 2a68 3D31CDE5 		strb	r3, [sp, #317]
 3374 2a6c 3CC1CDE5 		strb	ip, [sp, #316]
 3375 2a70 FEFFFFEB 		bl	comm_send_ch
 3376 2a74 0900A0E1 		mov	r0, r9
 3377 2a78 3810DDE5 		ldrb	r1, [sp, #56]	@ zero_extendqisi2
 3378 2a7c FEFFFFEB 		bl	comm_send_ch
 3379 2a80 0900A0E1 		mov	r0, r9
 3380 2a84 3910DDE5 		ldrb	r1, [sp, #57]	@ zero_extendqisi2
 3381 2a88 FEFFFFEB 		bl	comm_send_ch
 3382 2a8c 0900A0E1 		mov	r0, r9
 3383 2a90 3A10DDE5 		ldrb	r1, [sp, #58]	@ zero_extendqisi2
 3384 2a94 FEFFFFEB 		bl	comm_send_ch
 3385 2a98 0900A0E1 		mov	r0, r9
 3386 2a9c 3B10DDE5 		ldrb	r1, [sp, #59]	@ zero_extendqisi2
 3387 2aa0 FEFFFFEB 		bl	comm_send_ch
 3388 2aa4 0900A0E1 		mov	r0, r9
 3389 2aa8 3C10DDE5 		ldrb	r1, [sp, #60]	@ zero_extendqisi2
 3390 2aac FEFFFFEB 		bl	comm_send_ch
 3391 2ab0 3830DDE5 		ldrb	r3, [sp, #56]	@ zero_extendqisi2
 3392 2ab4 000053E3 		cmp	r3, #0
 3393 2ab8 0B00000A 		beq	.L244
 3394 2abc 0040A0E3 		mov	r4, #0
 3395              	.L246:
 3396 2ac0 052D8DE2 		add	r2, sp, #320
 3397 2ac4 043082E0 		add	r3, r2, r4
 3398 2ac8 031153E5 		ldrb	r1, [r3, #-259]	@ zero_extendqisi2
 3399 2acc 0900A0E1 		mov	r0, r9
 3400 2ad0 FEFFFFEB 		bl	comm_send_ch
 3401 2ad4 013084E2 		add	r3, r4, #1
 3402 2ad8 0338A0E1 		mov	r3, r3, asl #16
 3403 2adc 3820DDE5 		ldrb	r2, [sp, #56]	@ zero_extendqisi2
 3404 2ae0 2348A0E1 		mov	r4, r3, lsr #16
 3405 2ae4 040052E1 		cmp	r2, r4
 3406 2ae8 F4FFFF8A 		bhi	.L246
 3407              	.L244:
 3408 2aec 3C11DDE5 		ldrb	r1, [sp, #316]	@ zero_extendqisi2
 3409 2af0 0900A0E1 		mov	r0, r9
 3410 2af4 FEFFFFEB 		bl	comm_send_ch
 3411 2af8 0900A0E1 		mov	r0, r9
 3412 2afc 3D11DDE5 		ldrb	r1, [sp, #317]	@ zero_extendqisi2
 3413 2b00 FEFFFFEB 		bl	comm_send_ch
 3414 2b04 05DD8DE2 		add	sp, sp, #320
 3415 2b08 F04FBDE8 		ldmfd	sp!, {r4, r5, r6, r7, r8, r9, sl, fp, lr}
 3416 2b0c 1EFF2FE1 		bx	lr
 3417              	.L254:
 3418 2b10 0300000A 		beq	.L255
 3419              	.L224:
 3420 2b14 0130A0E3 		mov	r3, #1
 3421 2b18 3331CBE5 		strb	r3, [fp, #307]
 3422 2b1c 2C31CBE5 		strb	r3, [fp, #300]
 3423 2b20 6EFFFFEA 		b	.L226
 3424              	.L255:
 3425 2b24 000054E1 		cmp	r4, r0
 3426 2b28 F9FFFF9A 		bls	.L224
 3427 2b2c 68FFFFEA 		b	.L222
 3428              	.L257:
 3429              		.align	2
 3430              	.L256:
 3431 2b30 00000000 		.word	m_mavlink_status.2143
 3432 2b34 00000000 		.word	global_data
 3433 2b38 00000000 		.word	mavlink_system
 3435              		.align	2
 3436              		.global	communication_send_remote_control
 3438              	communication_send_remote_control:
 3439              		@ Function supports interworking.
 3440              		@ args = 0, pretend = 0, frame = 360
 3441              		@ frame_needed = 0, uses_anonymous_args = 0
 3442 2b3c F04F2DE9 		stmfd	sp!, {r4, r5, r6, r7, r8, r9, sl, fp, lr}
 3443 2b40 38439FE5 		ldr	r4, .L275
 3444 2b44 5ADF4DE2 		sub	sp, sp, #360
 3445 2b48 FE15A0E3 		mov	r1, #1065353216
 3446 2b4c 880394E5 		ldr	r0, [r4, #904]	@ float
 3447 2b50 FEFFFFEB 		bl	__eqsf2
 3448 2b54 000050E3 		cmp	r0, #0
 3449 2b58 0200000A 		beq	.L274
 3450              	.L270:
 3451 2b5c 5ADF8DE2 		add	sp, sp, #360
 3452 2b60 F04FBDE8 		ldmfd	sp!, {r4, r5, r6, r7, r8, r9, sl, fp, lr}
 3453 2b64 1EFF2FE1 		bx	lr
 3454              	.L274:
 3455 2b68 7C0394E5 		ldr	r0, [r4, #892]	@ float
 3456 2b6c FEFFFFEB 		bl	__fixunssfsi
 3457 2b70 00B0A0E1 		mov	fp, r0
 3458 2b74 0100A0E3 		mov	r0, #1
 3459 2b78 FEFFFFEB 		bl	ppm_get_channel
 3460 2b7c 28008DE5 		str	r0, [sp, #40]
 3461 2b80 0200A0E3 		mov	r0, #2
 3462 2b84 FEFFFFEB 		bl	ppm_get_channel
 3463 2b88 2C008DE5 		str	r0, [sp, #44]
 3464 2b8c 0300A0E3 		mov	r0, #3
 3465 2b90 FEFFFFEB 		bl	ppm_get_channel
 3466 2b94 30008DE5 		str	r0, [sp, #48]
 3467 2b98 0400A0E3 		mov	r0, #4
 3468 2b9c FEFFFFEB 		bl	ppm_get_channel
 3469 2ba0 34008DE5 		str	r0, [sp, #52]
 3470 2ba4 0500A0E3 		mov	r0, #5
 3471 2ba8 FEFFFFEB 		bl	ppm_get_channel
 3472 2bac 38008DE5 		str	r0, [sp, #56]
 3473 2bb0 0600A0E3 		mov	r0, #6
 3474 2bb4 FEFFFFEB 		bl	ppm_get_channel
 3475 2bb8 3C008DE5 		str	r0, [sp, #60]
 3476 2bbc 0700A0E3 		mov	r0, #7
 3477 2bc0 FEFFFFEB 		bl	ppm_get_channel
 3478 2bc4 40008DE5 		str	r0, [sp, #64]
 3479 2bc8 0800A0E3 		mov	r0, #8
 3480 2bcc FEFFFFEB 		bl	ppm_get_channel
 3481 2bd0 0040A0E1 		mov	r4, r0
 3482 2bd4 0100A0E3 		mov	r0, #1
 3483 2bd8 FEFFFFEB 		bl	ppm_get_channel
 3484 2bdc 28C09DE5 		ldr	ip, [sp, #40]
 3485 2be0 0C88A0E1 		mov	r8, ip, asl #16
 3486 2be4 2CC09DE5 		ldr	ip, [sp, #44]
 3487 2be8 0C78A0E1 		mov	r7, ip, asl #16
 3488 2bec 30C09DE5 		ldr	ip, [sp, #48]
 3489 2bf0 0C68A0E1 		mov	r6, ip, asl #16
 3490 2bf4 34C09DE5 		ldr	ip, [sp, #52]
 3491 2bf8 FF300BE2 		and	r3, fp, #255
 3492 2bfc 0C58A0E1 		mov	r5, ip, asl #16
 3493 2c00 7C229FE5 		ldr	r2, .L275+4
 3494 2c04 38C09DE5 		ldr	ip, [sp, #56]
 3495 2c08 033183E0 		add	r3, r3, r3, asl #2
 3496 2c0c 032182E0 		add	r2, r2, r3, asl #2
 3497 2c10 0CC8A0E1 		mov	ip, ip, asl #16
 3498 2c14 0E30D2E5 		ldrb	r3, [r2, #14]	@ zero_extendqisi2
 3499 2c18 1CC08DE5 		str	ip, [sp, #28]
 3500 2c1c 3CC09DE5 		ldr	ip, [sp, #60]
 3501 2c20 0CC8A0E1 		mov	ip, ip, asl #16
 3502 2c24 14C08DE5 		str	ip, [sp, #20]
 3503 2c28 40C09DE5 		ldr	ip, [sp, #64]
 3504 2c2c 00308DE5 		str	r3, [sp, #0]
 3505 2c30 0CC8A0E1 		mov	ip, ip, asl #16
 3506 2c34 7B3EA0E3 		mov	r3, #1968
 3507 2c38 0CC08DE5 		str	ip, [sp, #12]
 3508 2c3c 44129FE5 		ldr	r1, .L275+8
 3509 2c40 013083E2 		add	r3, r3, #1
 3510 2c44 030050E1 		cmp	r0, r3
 3511 2c48 263CA0E1 		mov	r3, r6, lsr #24
 3512 2c4c 01C0D1E5 		ldrb	ip, [r1, #1]	@ zero_extendqisi2
 3513 2c50 0010D1E5 		ldrb	r1, [r1, #0]	@ zero_extendqisi2
 3514 2c54 24308DE5 		str	r3, [sp, #36]
 3515 2c58 253CA0E1 		mov	r3, r5, lsr #24
 3516 2c5c 20308DE5 		str	r3, [sp, #32]
 3517 2c60 1C309DE5 		ldr	r3, [sp, #28]
 3518 2c64 233CA0E1 		mov	r3, r3, lsr #24
 3519 2c68 18308DE5 		str	r3, [sp, #24]
 3520 2c6c 14309DE5 		ldr	r3, [sp, #20]
 3521 2c70 233CA0E1 		mov	r3, r3, lsr #24
 3522 2c74 10308DE5 		str	r3, [sp, #16]
 3523 2c78 0C309DE5 		ldr	r3, [sp, #12]
 3524 2c7c 0448A0E1 		mov	r4, r4, asl #16
 3525 2c80 233CA0E1 		mov	r3, r3, lsr #24
 3526 2c84 08308DE5 		str	r3, [sp, #8]
 3527 2c88 243CA0E1 		mov	r3, r4, lsr #24
 3528 2c8c 04308DE5 		str	r3, [sp, #4]
 3529 2c90 00309DE5 		ldr	r3, [sp, #0]
 3530 2c94 5C108DE5 		str	r1, [sp, #92]
 3531 2c98 011083E2 		add	r1, r3, #1
 3532 2c9c 1C309DE5 		ldr	r3, [sp, #28]
 3533 2ca0 2338A0E1 		mov	r3, r3, lsr #16
 3534 2ca4 4C308DE5 		str	r3, [sp, #76]
 3535 2ca8 14309DE5 		ldr	r3, [sp, #20]
 3536 2cac 2338A0E1 		mov	r3, r3, lsr #16
 3537 2cb0 48308DE5 		str	r3, [sp, #72]
 3538 2cb4 0C309DE5 		ldr	r3, [sp, #12]
 3539 2cb8 27ECA0E1 		mov	lr, r7, lsr #24
 3540 2cbc 2338A0E1 		mov	r3, r3, lsr #16
 3541 2cc0 2778A0E1 		mov	r7, r7, lsr #16
 3542 2cc4 2558A0E1 		mov	r5, r5, lsr #16
 3543 2cc8 58C08DE5 		str	ip, [sp, #88]
 3544 2ccc 54708DE5 		str	r7, [sp, #84]
 3545 2cd0 28CCA0E1 		mov	ip, r8, lsr #24
 3546 2cd4 50508DE5 		str	r5, [sp, #80]
 3547 2cd8 44308DE5 		str	r3, [sp, #68]
 3548 2cdc 0E10C2E5 		strb	r1, [r2, #14]
 3549 2ce0 2330A0E3 		mov	r3, #35
 3550 2ce4 65C0CDE5 		strb	ip, [sp, #101]
 3551 2ce8 54C09DE5 		ldr	ip, [sp, #84]
 3552 2cec 6430CDE5 		strb	r3, [sp, #100]
 3553 2cf0 20309DE5 		ldr	r3, [sp, #32]
 3554 2cf4 24209DE5 		ldr	r2, [sp, #36]
 3555 2cf8 68C0CDE5 		strb	ip, [sp, #104]
 3556 2cfc 50C09DE5 		ldr	ip, [sp, #80]
 3557 2d00 6B30CDE5 		strb	r3, [sp, #107]
 3558 2d04 4C309DE5 		ldr	r3, [sp, #76]
 3559 2d08 6920CDE5 		strb	r2, [sp, #105]
 3560 2d0c 6CC0CDE5 		strb	ip, [sp, #108]
 3561 2d10 18209DE5 		ldr	r2, [sp, #24]
 3562 2d14 10C09DE5 		ldr	ip, [sp, #16]
 3563 2d18 6E30CDE5 		strb	r3, [sp, #110]
 3564 2d1c 08309DE5 		ldr	r3, [sp, #8]
 3565 2d20 6D20CDE5 		strb	r2, [sp, #109]
 3566 2d24 6FC0CDE5 		strb	ip, [sp, #111]
 3567 2d28 48209DE5 		ldr	r2, [sp, #72]
 3568 2d2c 44C09DE5 		ldr	ip, [sp, #68]
 3569 2d30 7130CDE5 		strb	r3, [sp, #113]
 3570 2d34 1130A0E3 		mov	r3, #17
 3571 2d38 7020CDE5 		strb	r2, [sp, #112]
 3572 2d3c 72C0CDE5 		strb	ip, [sp, #114]
 3573 2d40 04209DE5 		ldr	r2, [sp, #4]
 3574 2d44 6030CDE5 		strb	r3, [sp, #96]
 3575 2d48 58C09DE5 		ldr	ip, [sp, #88]
 3576 2d4c 5C309DE5 		ldr	r3, [sp, #92]
 3577 2d50 FF00A0D3 		movle	r0, #255
 3578 2d54 0000A0C3 		movgt	r0, #0
 3579 2d58 2898A0E1 		mov	r9, r8, lsr #16
 3580 2d5c 26A8A0E1 		mov	sl, r6, lsr #16
 3581 2d60 2448A0E1 		mov	r4, r4, lsr #16
 3582 2d64 7320CDE5 		strb	r2, [sp, #115]
 3583 2d68 7500CDE5 		strb	r0, [sp, #117]
 3584 2d6c 6690CDE5 		strb	r9, [sp, #102]
 3585 2d70 67E0CDE5 		strb	lr, [sp, #103]
 3586 2d74 6AA0CDE5 		strb	sl, [sp, #106]
 3587 2d78 7440CDE5 		strb	r4, [sp, #116]
 3588 2d7c 6230CDE5 		strb	r3, [sp, #98]
 3589 2d80 63C0CDE5 		strb	ip, [sp, #99]
 3590 2d84 00209DE5 		ldr	r2, [sp, #0]
 3591 2d88 01C8A0E3 		mov	ip, #65536
 3592 2d8c 6120CDE5 		strb	r2, [sp, #97]
 3593 2d90 01C04CE2 		sub	ip, ip, #1
 3594 2d94 60008DE2 		add	r0, sp, #96
 3595 2d98 0010A0E3 		mov	r1, #0
 3596              	.L265:
 3597 2d9c 0030D1E7 		ldrb	r3, [r1, r0]	@ zero_extendqisi2
 3598 2da0 0C3023E0 		eor	r3, r3, ip
 3599 2da4 FF3003E2 		and	r3, r3, #255
 3600 2da8 033223E0 		eor	r3, r3, r3, asl #4
 3601 2dac FF3003E2 		and	r3, r3, #255
 3602 2db0 0324A0E1 		mov	r2, r3, asl #8
 3603 2db4 2C2482E1 		orr	r2, r2, ip, lsr #8
 3604 2db8 232222E0 		eor	r2, r2, r3, lsr #4
 3605 2dbc 832122E0 		eor	r2, r2, r3, asl #3
 3606 2dc0 011081E2 		add	r1, r1, #1
 3607 2dc4 0228A0E1 		mov	r2, r2, asl #16
 3608 2dc8 160051E3 		cmp	r1, #22
 3609 2dcc 22C8A0E1 		mov	ip, r2, lsr #16
 3610 2dd0 F1FFFF1A 		bne	.L265
 3611 2dd4 2C34A0E1 		mov	r3, ip, lsr #8
 3612 2dd8 3F1081E2 		add	r1, r1, #63
 3613 2ddc 0B00A0E1 		mov	r0, fp
 3614 2de0 6531CDE5 		strb	r3, [sp, #357]
 3615 2de4 64C1CDE5 		strb	ip, [sp, #356]
 3616 2de8 FEFFFFEB 		bl	comm_send_ch
 3617 2dec 0B00A0E1 		mov	r0, fp
 3618 2df0 6010DDE5 		ldrb	r1, [sp, #96]	@ zero_extendqisi2
 3619 2df4 FEFFFFEB 		bl	comm_send_ch
 3620 2df8 0B00A0E1 		mov	r0, fp
 3621 2dfc 6110DDE5 		ldrb	r1, [sp, #97]	@ zero_extendqisi2
 3622 2e00 FEFFFFEB 		bl	comm_send_ch
 3623 2e04 0B00A0E1 		mov	r0, fp
 3624 2e08 6210DDE5 		ldrb	r1, [sp, #98]	@ zero_extendqisi2
 3625 2e0c FEFFFFEB 		bl	comm_send_ch
 3626 2e10 0B00A0E1 		mov	r0, fp
 3627 2e14 6310DDE5 		ldrb	r1, [sp, #99]	@ zero_extendqisi2
 3628 2e18 FEFFFFEB 		bl	comm_send_ch
 3629 2e1c 0B00A0E1 		mov	r0, fp
 3630 2e20 6410DDE5 		ldrb	r1, [sp, #100]	@ zero_extendqisi2
 3631 2e24 FEFFFFEB 		bl	comm_send_ch
 3632 2e28 6030DDE5 		ldrb	r3, [sp, #96]	@ zero_extendqisi2
 3633 2e2c 000053E3 		cmp	r3, #0
 3634 2e30 0B00000A 		beq	.L267
 3635 2e34 0040A0E3 		mov	r4, #0
 3636              	.L269:
 3637 2e38 5ACF8DE2 		add	ip, sp, #360
 3638 2e3c 04308CE0 		add	r3, ip, r4
 3639 2e40 031153E5 		ldrb	r1, [r3, #-259]	@ zero_extendqisi2
 3640 2e44 0B00A0E1 		mov	r0, fp
 3641 2e48 FEFFFFEB 		bl	comm_send_ch
 3642 2e4c 013084E2 		add	r3, r4, #1
 3643 2e50 0338A0E1 		mov	r3, r3, asl #16
 3644 2e54 6020DDE5 		ldrb	r2, [sp, #96]	@ zero_extendqisi2
 3645 2e58 2348A0E1 		mov	r4, r3, lsr #16
 3646 2e5c 040052E1 		cmp	r2, r4
 3647 2e60 F4FFFF8A 		bhi	.L269
 3648              	.L267:
 3649 2e64 6411DDE5 		ldrb	r1, [sp, #356]	@ zero_extendqisi2
 3650 2e68 0B00A0E1 		mov	r0, fp
 3651 2e6c FEFFFFEB 		bl	comm_send_ch
 3652 2e70 0B00A0E1 		mov	r0, fp
 3653 2e74 6511DDE5 		ldrb	r1, [sp, #357]	@ zero_extendqisi2
 3654 2e78 FEFFFFEB 		bl	comm_send_ch
 3655 2e7c 36FFFFEA 		b	.L270
 3656              	.L276:
 3657              		.align	2
 3658              	.L275:
 3659 2e80 00000000 		.word	global_data
 3660 2e84 00000000 		.word	m_mavlink_status.2143
 3661 2e88 00000000 		.word	mavlink_system
 3663              		.align	2
 3664              		.global	send_system_state
 3666              	send_system_state:
 3667              		@ Function supports interworking.
 3668              		@ args = 0, pretend = 0, frame = 316
 3669              		@ frame_needed = 0, uses_anonymous_args = 0
 3670 2e8c F04F2DE9 		stmfd	sp!, {r4, r5, r6, r7, r8, r9, sl, fp, lr}
 3671 2e90 102A9FE5 		ldr	r2, .L327
 3672 2e94 4FDF4DE2 		sub	sp, sp, #316
 3673 2e98 5C0292E5 		ldr	r0, [r2, #604]	@ float
 3674 2e9c FEFFFFEB 		bl	__fixunssfsi
 3675 2ea0 042A9FE5 		ldr	r2, .L327+4
 3676 2ea4 043A9FE5 		ldr	r3, .L327+8
 3677 2ea8 00E0D2E5 		ldrb	lr, [r2, #0]	@ zero_extendqisi2
 3678 2eac 0EC0D3E5 		ldrb	ip, [r3, #14]	@ zero_extendqisi2
 3679 2eb0 0140D2E5 		ldrb	r4, [r2, #1]	@ zero_extendqisi2
 3680 2eb4 0130A0E3 		mov	r3, #1
 3681 2eb8 0220A0E3 		mov	r2, #2
 3682 2ebc 3A30CDE5 		strb	r3, [sp, #58]
 3683 2ec0 023083E0 		add	r3, r3, r2
 3684 2ec4 3430CDE5 		strb	r3, [sp, #52]
 3685 2ec8 E0399FE5 		ldr	r3, .L327+8
 3686 2ecc 01508CE2 		add	r5, ip, #1
 3687 2ed0 0010A0E3 		mov	r1, #0
 3688 2ed4 3900CDE5 		strb	r0, [sp, #57]
 3689 2ed8 3B20CDE5 		strb	r2, [sp, #59]
 3690 2edc 36E0CDE5 		strb	lr, [sp, #54]
 3691 2ee0 3740CDE5 		strb	r4, [sp, #55]
 3692 2ee4 0E50C3E5 		strb	r5, [r3, #14]
 3693 2ee8 35C0CDE5 		strb	ip, [sp, #53]
 3694 2eec 3810CDE5 		strb	r1, [sp, #56]
 3695 2ef0 01C8A0E3 		mov	ip, #65536
 3696 2ef4 01C04CE2 		sub	ip, ip, #1
 3697 2ef8 34B08DE2 		add	fp, sp, #52
 3698              	.L278:
 3699 2efc 0B30D1E7 		ldrb	r3, [r1, fp]	@ zero_extendqisi2
 3700 2f00 0C3023E0 		eor	r3, r3, ip
 3701 2f04 FF3003E2 		and	r3, r3, #255
 3702 2f08 033223E0 		eor	r3, r3, r3, asl #4
 3703 2f0c FF3003E2 		and	r3, r3, #255
 3704 2f10 0324A0E1 		mov	r2, r3, asl #8
 3705 2f14 2C2482E1 		orr	r2, r2, ip, lsr #8
 3706 2f18 232222E0 		eor	r2, r2, r3, lsr #4
 3707 2f1c 832122E0 		eor	r2, r2, r3, asl #3
 3708 2f20 011081E2 		add	r1, r1, #1
 3709 2f24 0228A0E1 		mov	r2, r2, asl #16
 3710 2f28 080051E3 		cmp	r1, #8
 3711 2f2c 22C8A0E1 		mov	ip, r2, lsr #16
 3712 2f30 F1FFFF1A 		bne	.L278
 3713 2f34 2C34A0E1 		mov	r3, ip, lsr #8
 3714 2f38 0100A0E3 		mov	r0, #1
 3715 2f3c 4D1081E2 		add	r1, r1, #77
 3716 2f40 3931CDE5 		strb	r3, [sp, #313]
 3717 2f44 38C1CDE5 		strb	ip, [sp, #312]
 3718 2f48 FEFFFFEB 		bl	comm_send_ch
 3719 2f4c 0100A0E3 		mov	r0, #1
 3720 2f50 3410DDE5 		ldrb	r1, [sp, #52]	@ zero_extendqisi2
 3721 2f54 FEFFFFEB 		bl	comm_send_ch
 3722 2f58 0100A0E3 		mov	r0, #1
 3723 2f5c 3510DDE5 		ldrb	r1, [sp, #53]	@ zero_extendqisi2
 3724 2f60 FEFFFFEB 		bl	comm_send_ch
 3725 2f64 0100A0E3 		mov	r0, #1
 3726 2f68 3610DDE5 		ldrb	r1, [sp, #54]	@ zero_extendqisi2
 3727 2f6c FEFFFFEB 		bl	comm_send_ch
 3728 2f70 0100A0E3 		mov	r0, #1
 3729 2f74 3710DDE5 		ldrb	r1, [sp, #55]	@ zero_extendqisi2
 3730 2f78 FEFFFFEB 		bl	comm_send_ch
 3731 2f7c 0100A0E3 		mov	r0, #1
 3732 2f80 3810DDE5 		ldrb	r1, [sp, #56]	@ zero_extendqisi2
 3733 2f84 FEFFFFEB 		bl	comm_send_ch
 3734 2f88 3430DDE5 		ldrb	r3, [sp, #52]	@ zero_extendqisi2
 3735 2f8c 000053E3 		cmp	r3, #0
 3736 2f90 0B00000A 		beq	.L280
 3737 2f94 0040A0E3 		mov	r4, #0
 3738              	.L282:
 3739 2f98 4FCF8DE2 		add	ip, sp, #316
 3740 2f9c 04308CE0 		add	r3, ip, r4
 3741 2fa0 031153E5 		ldrb	r1, [r3, #-259]	@ zero_extendqisi2
 3742 2fa4 0100A0E3 		mov	r0, #1
 3743 2fa8 FEFFFFEB 		bl	comm_send_ch
 3744 2fac 013084E2 		add	r3, r4, #1
 3745 2fb0 0338A0E1 		mov	r3, r3, asl #16
 3746 2fb4 3420DDE5 		ldrb	r2, [sp, #52]	@ zero_extendqisi2
 3747 2fb8 2348A0E1 		mov	r4, r3, lsr #16
 3748 2fbc 040052E1 		cmp	r2, r4
 3749 2fc0 F4FFFF8A 		bhi	.L282
 3750              	.L280:
 3751 2fc4 0100A0E3 		mov	r0, #1
 3752 2fc8 3811DDE5 		ldrb	r1, [sp, #312]	@ zero_extendqisi2
 3753 2fcc FEFFFFEB 		bl	comm_send_ch
 3754 2fd0 3911DDE5 		ldrb	r1, [sp, #313]	@ zero_extendqisi2
 3755 2fd4 0100A0E3 		mov	r0, #1
 3756 2fd8 FEFFFFEB 		bl	comm_send_ch
 3757 2fdc C4289FE5 		ldr	r2, .L327
 3758 2fe0 5C0292E5 		ldr	r0, [r2, #604]	@ float
 3759 2fe4 FEFFFFEB 		bl	__fixunssfsi
 3760 2fe8 BC289FE5 		ldr	r2, .L327+4
 3761 2fec C0389FE5 		ldr	r3, .L327+12
 3762 2ff0 00E0D2E5 		ldrb	lr, [r2, #0]	@ zero_extendqisi2
 3763 2ff4 0EC0D3E5 		ldrb	ip, [r3, #14]	@ zero_extendqisi2
 3764 2ff8 0140D2E5 		ldrb	r4, [r2, #1]	@ zero_extendqisi2
 3765 2ffc 0130A0E3 		mov	r3, #1
 3766 3000 0220A0E3 		mov	r2, #2
 3767 3004 3A30CDE5 		strb	r3, [sp, #58]
 3768 3008 023083E0 		add	r3, r3, r2
 3769 300c 3430CDE5 		strb	r3, [sp, #52]
 3770 3010 9C389FE5 		ldr	r3, .L327+12
 3771 3014 01508CE2 		add	r5, ip, #1
 3772 3018 0010A0E3 		mov	r1, #0
 3773 301c 3900CDE5 		strb	r0, [sp, #57]
 3774 3020 3B20CDE5 		strb	r2, [sp, #59]
 3775 3024 36E0CDE5 		strb	lr, [sp, #54]
 3776 3028 3740CDE5 		strb	r4, [sp, #55]
 3777 302c 0E50C3E5 		strb	r5, [r3, #14]
 3778 3030 35C0CDE5 		strb	ip, [sp, #53]
 3779 3034 3810CDE5 		strb	r1, [sp, #56]
 3780 3038 01C8A0E3 		mov	ip, #65536
 3781 303c 01C04CE2 		sub	ip, ip, #1
 3782              	.L283:
 3783 3040 0B30D1E7 		ldrb	r3, [r1, fp]	@ zero_extendqisi2
 3784 3044 0C3023E0 		eor	r3, r3, ip
 3785 3048 FF3003E2 		and	r3, r3, #255
 3786 304c 033223E0 		eor	r3, r3, r3, asl #4
 3787 3050 FF3003E2 		and	r3, r3, #255
 3788 3054 0324A0E1 		mov	r2, r3, asl #8
 3789 3058 2C2482E1 		orr	r2, r2, ip, lsr #8
 3790 305c 232222E0 		eor	r2, r2, r3, lsr #4
 3791 3060 832122E0 		eor	r2, r2, r3, asl #3
 3792 3064 011081E2 		add	r1, r1, #1
 3793 3068 0228A0E1 		mov	r2, r2, asl #16
 3794 306c 080051E3 		cmp	r1, #8
 3795 3070 22C8A0E1 		mov	ip, r2, lsr #16
 3796 3074 F1FFFF1A 		bne	.L283
 3797 3078 2C34A0E1 		mov	r3, ip, lsr #8
 3798 307c 0000A0E3 		mov	r0, #0
 3799 3080 4D1081E2 		add	r1, r1, #77
 3800 3084 3931CDE5 		strb	r3, [sp, #313]
 3801 3088 38C1CDE5 		strb	ip, [sp, #312]
 3802 308c FEFFFFEB 		bl	comm_send_ch
 3803 3090 0000A0E3 		mov	r0, #0
 3804 3094 3410DDE5 		ldrb	r1, [sp, #52]	@ zero_extendqisi2
 3805 3098 FEFFFFEB 		bl	comm_send_ch
 3806 309c 0000A0E3 		mov	r0, #0
 3807 30a0 3510DDE5 		ldrb	r1, [sp, #53]	@ zero_extendqisi2
 3808 30a4 FEFFFFEB 		bl	comm_send_ch
 3809 30a8 0000A0E3 		mov	r0, #0
 3810 30ac 3610DDE5 		ldrb	r1, [sp, #54]	@ zero_extendqisi2
 3811 30b0 FEFFFFEB 		bl	comm_send_ch
 3812 30b4 0000A0E3 		mov	r0, #0
 3813 30b8 3710DDE5 		ldrb	r1, [sp, #55]	@ zero_extendqisi2
 3814 30bc FEFFFFEB 		bl	comm_send_ch
 3815 30c0 0000A0E3 		mov	r0, #0
 3816 30c4 3810DDE5 		ldrb	r1, [sp, #56]	@ zero_extendqisi2
 3817 30c8 FEFFFFEB 		bl	comm_send_ch
 3818 30cc 3430DDE5 		ldrb	r3, [sp, #52]	@ zero_extendqisi2
 3819 30d0 000053E3 		cmp	r3, #0
 3820 30d4 0B00000A 		beq	.L285
 3821 30d8 0040A0E3 		mov	r4, #0
 3822              	.L287:
 3823 30dc 4FCF8DE2 		add	ip, sp, #316
 3824 30e0 04308CE0 		add	r3, ip, r4
 3825 30e4 031153E5 		ldrb	r1, [r3, #-259]	@ zero_extendqisi2
 3826 30e8 0000A0E3 		mov	r0, #0
 3827 30ec FEFFFFEB 		bl	comm_send_ch
 3828 30f0 013084E2 		add	r3, r4, #1
 3829 30f4 0338A0E1 		mov	r3, r3, asl #16
 3830 30f8 3420DDE5 		ldrb	r2, [sp, #52]	@ zero_extendqisi2
 3831 30fc 2348A0E1 		mov	r4, r3, lsr #16
 3832 3100 040052E1 		cmp	r2, r4
 3833 3104 F4FFFF8A 		bhi	.L287
 3834              	.L285:
 3835 3108 0000A0E3 		mov	r0, #0
 3836 310c 3811DDE5 		ldrb	r1, [sp, #312]	@ zero_extendqisi2
 3837 3110 FEFFFFEB 		bl	comm_send_ch
 3838 3114 3911DDE5 		ldrb	r1, [sp, #313]	@ zero_extendqisi2
 3839 3118 0000A0E3 		mov	r0, #0
 3840 311c FEFFFFEB 		bl	comm_send_ch
 3841 3120 80279FE5 		ldr	r2, .L327
 3842 3124 1A3EA0E3 		mov	r3, #416
 3843 3128 023083E2 		add	r3, r3, #2
 3844 312c B35092E1 		ldrh	r5, [r2, r3]
 3845 3130 70379FE5 		ldr	r3, .L327
 3846 3134 5CC1D3E5 		ldrb	ip, [r3, #348]	@ zero_extendqisi2
 3847 3138 1A2EA0E3 		mov	r2, #416
 3848 313c B26093E1 		ldrh	r6, [r3, r2]
 3849 3140 5081D3E5 		ldrb	r8, [r3, #336]	@ zero_extendqisi2
 3850 3144 54A1D3E5 		ldrb	sl, [r3, #340]	@ zero_extendqisi2
 3851 3148 6441D3E5 		ldrb	r4, [r3, #356]	@ zero_extendqisi2
 3852 314c 00C08DE5 		str	ip, [sp, #0]
 3853 3150 FEFFFFEB 		bl	communication_get_uart_drop_rate
 3854 3154 58279FE5 		ldr	r2, .L327+12
 3855 3158 4C379FE5 		ldr	r3, .L327+4
 3856 315c 0E20D2E5 		ldrb	r2, [r2, #14]	@ zero_extendqisi2
 3857 3160 0030D3E5 		ldrb	r3, [r3, #0]	@ zero_extendqisi2
 3858 3164 0C208DE5 		str	r2, [sp, #12]
 3859 3168 08308DE5 		str	r3, [sp, #8]
 3860 316c 0C309DE5 		ldr	r3, [sp, #12]
 3861 3170 34C79FE5 		ldr	ip, .L327+4
 3862 3174 017083E2 		add	r7, r3, #1
 3863 3178 2230A0E3 		mov	r3, #34
 3864 317c 01C0DCE5 		ldrb	ip, [ip, #1]	@ zero_extendqisi2
 3865 3180 3830CDE5 		strb	r3, [sp, #56]
 3866 3184 00309DE5 		ldr	r3, [sp, #0]
 3867 3188 0558A0E1 		mov	r5, r5, asl #16
 3868 318c 0448A0E1 		mov	r4, r4, asl #16
 3869 3190 04C08DE5 		str	ip, [sp, #4]
 3870 3194 252CA0E1 		mov	r2, r5, lsr #24
 3871 3198 24CCA0E1 		mov	ip, r4, lsr #24
 3872 319c 3B30CDE5 		strb	r3, [sp, #59]
 3873 31a0 0B30A0E3 		mov	r3, #11
 3874 31a4 0668A0E1 		mov	r6, r6, asl #16
 3875 31a8 0008A0E1 		mov	r0, r0, asl #16
 3876 31ac 3C20CDE5 		strb	r2, [sp, #60]
 3877 31b0 40C0CDE5 		strb	ip, [sp, #64]
 3878 31b4 3430CDE5 		strb	r3, [sp, #52]
 3879 31b8 04109DE9 		ldmib	sp, {r2, ip}	@ phole ldm
 3880 31bc F0369FE5 		ldr	r3, .L327+12
 3881 31c0 261CA0E1 		mov	r1, r6, lsr #24
 3882 31c4 20ECA0E1 		mov	lr, r0, lsr #24
 3883 31c8 2558A0E1 		mov	r5, r5, lsr #16
 3884 31cc 2668A0E1 		mov	r6, r6, lsr #16
 3885 31d0 2448A0E1 		mov	r4, r4, lsr #16
 3886 31d4 2008A0E1 		mov	r0, r0, lsr #16
 3887 31d8 3E10CDE5 		strb	r1, [sp, #62]
 3888 31dc 36C0CDE5 		strb	ip, [sp, #54]
 3889 31e0 3980CDE5 		strb	r8, [sp, #57]
 3890 31e4 3AA0CDE5 		strb	sl, [sp, #58]
 3891 31e8 3D50CDE5 		strb	r5, [sp, #61]
 3892 31ec 3F60CDE5 		strb	r6, [sp, #63]
 3893 31f0 4140CDE5 		strb	r4, [sp, #65]
 3894 31f4 42E0CDE5 		strb	lr, [sp, #66]
 3895 31f8 4300CDE5 		strb	r0, [sp, #67]
 3896 31fc 3720CDE5 		strb	r2, [sp, #55]
 3897 3200 0E70C3E5 		strb	r7, [r3, #14]
 3898 3204 0CC09DE5 		ldr	ip, [sp, #12]
 3899 3208 35C0CDE5 		strb	ip, [sp, #53]
 3900 320c 01C8A0E3 		mov	ip, #65536
 3901 3210 01C04CE2 		sub	ip, ip, #1
 3902 3214 0010A0E3 		mov	r1, #0
 3903              	.L288:
 3904 3218 0B30D1E7 		ldrb	r3, [r1, fp]	@ zero_extendqisi2
 3905 321c 0C3023E0 		eor	r3, r3, ip
 3906 3220 FF3003E2 		and	r3, r3, #255
 3907 3224 033223E0 		eor	r3, r3, r3, asl #4
 3908 3228 FF3003E2 		and	r3, r3, #255
 3909 322c 0324A0E1 		mov	r2, r3, asl #8
 3910 3230 2C2482E1 		orr	r2, r2, ip, lsr #8
 3911 3234 232222E0 		eor	r2, r2, r3, lsr #4
 3912 3238 832122E0 		eor	r2, r2, r3, asl #3
 3913 323c 011081E2 		add	r1, r1, #1
 3914 3240 0228A0E1 		mov	r2, r2, asl #16
 3915 3244 100051E3 		cmp	r1, #16
 3916 3248 22C8A0E1 		mov	ip, r2, lsr #16
 3917 324c F1FFFF1A 		bne	.L288
 3918 3250 2C34A0E1 		mov	r3, ip, lsr #8
 3919 3254 0000A0E3 		mov	r0, #0
 3920 3258 451081E2 		add	r1, r1, #69
 3921 325c 3931CDE5 		strb	r3, [sp, #313]
 3922 3260 38C1CDE5 		strb	ip, [sp, #312]
 3923 3264 FEFFFFEB 		bl	comm_send_ch
 3924 3268 0000A0E3 		mov	r0, #0
 3925 326c 3410DDE5 		ldrb	r1, [sp, #52]	@ zero_extendqisi2
 3926 3270 FEFFFFEB 		bl	comm_send_ch
 3927 3274 0000A0E3 		mov	r0, #0
 3928 3278 3510DDE5 		ldrb	r1, [sp, #53]	@ zero_extendqisi2
 3929 327c FEFFFFEB 		bl	comm_send_ch
 3930 3280 0000A0E3 		mov	r0, #0
 3931 3284 3610DDE5 		ldrb	r1, [sp, #54]	@ zero_extendqisi2
 3932 3288 FEFFFFEB 		bl	comm_send_ch
 3933 328c 0000A0E3 		mov	r0, #0
 3934 3290 3710DDE5 		ldrb	r1, [sp, #55]	@ zero_extendqisi2
 3935 3294 FEFFFFEB 		bl	comm_send_ch
 3936 3298 0000A0E3 		mov	r0, #0
 3937 329c 3810DDE5 		ldrb	r1, [sp, #56]	@ zero_extendqisi2
 3938 32a0 FEFFFFEB 		bl	comm_send_ch
 3939 32a4 3430DDE5 		ldrb	r3, [sp, #52]	@ zero_extendqisi2
 3940 32a8 000053E3 		cmp	r3, #0
 3941 32ac 0B00000A 		beq	.L290
 3942 32b0 0040A0E3 		mov	r4, #0
 3943              	.L292:
 3944 32b4 4F2F8DE2 		add	r2, sp, #316
 3945 32b8 043082E0 		add	r3, r2, r4
 3946 32bc 031153E5 		ldrb	r1, [r3, #-259]	@ zero_extendqisi2
 3947 32c0 0000A0E3 		mov	r0, #0
 3948 32c4 FEFFFFEB 		bl	comm_send_ch
 3949 32c8 013084E2 		add	r3, r4, #1
 3950 32cc 0338A0E1 		mov	r3, r3, asl #16
 3951 32d0 3420DDE5 		ldrb	r2, [sp, #52]	@ zero_extendqisi2
 3952 32d4 2348A0E1 		mov	r4, r3, lsr #16
 3953 32d8 040052E1 		cmp	r2, r4
 3954 32dc F4FFFF8A 		bhi	.L292
 3955              	.L290:
 3956 32e0 0000A0E3 		mov	r0, #0
 3957 32e4 3811DDE5 		ldrb	r1, [sp, #312]	@ zero_extendqisi2
 3958 32e8 FEFFFFEB 		bl	comm_send_ch
 3959 32ec 3911DDE5 		ldrb	r1, [sp, #313]	@ zero_extendqisi2
 3960 32f0 0000A0E3 		mov	r0, #0
 3961 32f4 FEFFFFEB 		bl	comm_send_ch
 3962 32f8 A8C59FE5 		ldr	ip, .L327
 3963 32fc 1A2EA0E3 		mov	r2, #416
 3964 3300 B2609CE1 		ldrh	r6, [ip, r2]
 3965 3304 1A3EA0E3 		mov	r3, #416
 3966 3308 5C21DCE5 		ldrb	r2, [ip, #348]	@ zero_extendqisi2
 3967 330c 023083E2 		add	r3, r3, #2
 3968 3310 B3509CE1 		ldrh	r5, [ip, r3]
 3969 3314 5081DCE5 		ldrb	r8, [ip, #336]	@ zero_extendqisi2
 3970 3318 54A1DCE5 		ldrb	sl, [ip, #340]	@ zero_extendqisi2
 3971 331c 6441DCE5 		ldrb	r4, [ip, #356]	@ zero_extendqisi2
 3972 3320 30208DE5 		str	r2, [sp, #48]
 3973 3324 FEFFFFEB 		bl	communication_get_uart_drop_rate
 3974 3328 80359FE5 		ldr	r3, .L327+8
 3975 332c 78C59FE5 		ldr	ip, .L327+4
 3976 3330 74259FE5 		ldr	r2, .L327+4
 3977 3334 0E90D3E5 		ldrb	r9, [r3, #14]	@ zero_extendqisi2
 3978 3338 2230A0E3 		mov	r3, #34
 3979 333c 00C0DCE5 		ldrb	ip, [ip, #0]	@ zero_extendqisi2
 3980 3340 0120D2E5 		ldrb	r2, [r2, #1]	@ zero_extendqisi2
 3981 3344 3830CDE5 		strb	r3, [sp, #56]
 3982 3348 30309DE5 		ldr	r3, [sp, #48]
 3983 334c 0558A0E1 		mov	r5, r5, asl #16
 3984 3350 0448A0E1 		mov	r4, r4, asl #16
 3985 3354 14C08DE5 		str	ip, [sp, #20]
 3986 3358 10208DE5 		str	r2, [sp, #16]
 3987 335c 24CCA0E1 		mov	ip, r4, lsr #24
 3988 3360 252CA0E1 		mov	r2, r5, lsr #24
 3989 3364 3B30CDE5 		strb	r3, [sp, #59]
 3990 3368 0B30A0E3 		mov	r3, #11
 3991 336c 0668A0E1 		mov	r6, r6, asl #16
 3992 3370 0008A0E1 		mov	r0, r0, asl #16
 3993 3374 3C20CDE5 		strb	r2, [sp, #60]
 3994 3378 40C0CDE5 		strb	ip, [sp, #64]
 3995 337c 3430CDE5 		strb	r3, [sp, #52]
 3996 3380 10208DE2 		add	r2, sp, #16
 3997 3384 041092E8 		ldmia	r2, {r2, ip}	@ phole ldm
 3998 3388 20359FE5 		ldr	r3, .L327+8
 3999 338c 261CA0E1 		mov	r1, r6, lsr #24
 4000 3390 20ECA0E1 		mov	lr, r0, lsr #24
 4001 3394 017089E2 		add	r7, r9, #1
 4002 3398 2558A0E1 		mov	r5, r5, lsr #16
 4003 339c 2668A0E1 		mov	r6, r6, lsr #16
 4004 33a0 2448A0E1 		mov	r4, r4, lsr #16
 4005 33a4 2008A0E1 		mov	r0, r0, lsr #16
 4006 33a8 3E10CDE5 		strb	r1, [sp, #62]
 4007 33ac 36C0CDE5 		strb	ip, [sp, #54]
 4008 33b0 3980CDE5 		strb	r8, [sp, #57]
 4009 33b4 3AA0CDE5 		strb	sl, [sp, #58]
 4010 33b8 3D50CDE5 		strb	r5, [sp, #61]
 4011 33bc 3F60CDE5 		strb	r6, [sp, #63]
 4012 33c0 4140CDE5 		strb	r4, [sp, #65]
 4013 33c4 42E0CDE5 		strb	lr, [sp, #66]
 4014 33c8 4300CDE5 		strb	r0, [sp, #67]
 4015 33cc 3720CDE5 		strb	r2, [sp, #55]
 4016 33d0 01C8A0E3 		mov	ip, #65536
 4017 33d4 0E70C3E5 		strb	r7, [r3, #14]
 4018 33d8 3590CDE5 		strb	r9, [sp, #53]
 4019 33dc 01C04CE2 		sub	ip, ip, #1
 4020 33e0 0010A0E3 		mov	r1, #0
 4021              	.L293:
 4022 33e4 0B30D1E7 		ldrb	r3, [r1, fp]	@ zero_extendqisi2
 4023 33e8 0C3023E0 		eor	r3, r3, ip
 4024 33ec FF3003E2 		and	r3, r3, #255
 4025 33f0 033223E0 		eor	r3, r3, r3, asl #4
 4026 33f4 FF3003E2 		and	r3, r3, #255
 4027 33f8 0324A0E1 		mov	r2, r3, asl #8
 4028 33fc 2C2482E1 		orr	r2, r2, ip, lsr #8
 4029 3400 232222E0 		eor	r2, r2, r3, lsr #4
 4030 3404 832122E0 		eor	r2, r2, r3, asl #3
 4031 3408 011081E2 		add	r1, r1, #1
 4032 340c 0228A0E1 		mov	r2, r2, asl #16
 4033 3410 100051E3 		cmp	r1, #16
 4034 3414 22C8A0E1 		mov	ip, r2, lsr #16
 4035 3418 F1FFFF1A 		bne	.L293
 4036 341c 2C34A0E1 		mov	r3, ip, lsr #8
 4037 3420 0100A0E3 		mov	r0, #1
 4038 3424 451081E2 		add	r1, r1, #69
 4039 3428 3931CDE5 		strb	r3, [sp, #313]
 4040 342c 38C1CDE5 		strb	ip, [sp, #312]
 4041 3430 FEFFFFEB 		bl	comm_send_ch
 4042 3434 0100A0E3 		mov	r0, #1
 4043 3438 3410DDE5 		ldrb	r1, [sp, #52]	@ zero_extendqisi2
 4044 343c FEFFFFEB 		bl	comm_send_ch
 4045 3440 0100A0E3 		mov	r0, #1
 4046 3444 3510DDE5 		ldrb	r1, [sp, #53]	@ zero_extendqisi2
 4047 3448 FEFFFFEB 		bl	comm_send_ch
 4048 344c 0100A0E3 		mov	r0, #1
 4049 3450 3610DDE5 		ldrb	r1, [sp, #54]	@ zero_extendqisi2
 4050 3454 FEFFFFEB 		bl	comm_send_ch
 4051 3458 0100A0E3 		mov	r0, #1
 4052 345c 3710DDE5 		ldrb	r1, [sp, #55]	@ zero_extendqisi2
 4053 3460 FEFFFFEB 		bl	comm_send_ch
 4054 3464 0100A0E3 		mov	r0, #1
 4055 3468 3810DDE5 		ldrb	r1, [sp, #56]	@ zero_extendqisi2
 4056 346c FEFFFFEB 		bl	comm_send_ch
 4057 3470 3430DDE5 		ldrb	r3, [sp, #52]	@ zero_extendqisi2
 4058 3474 000053E3 		cmp	r3, #0
 4059 3478 0B00000A 		beq	.L295
 4060 347c 0040A0E3 		mov	r4, #0
 4061              	.L297:
 4062 3480 4FCF8DE2 		add	ip, sp, #316
 4063 3484 04308CE0 		add	r3, ip, r4
 4064 3488 031153E5 		ldrb	r1, [r3, #-259]	@ zero_extendqisi2
 4065 348c 0100A0E3 		mov	r0, #1
 4066 3490 FEFFFFEB 		bl	comm_send_ch
 4067 3494 013084E2 		add	r3, r4, #1
 4068 3498 0338A0E1 		mov	r3, r3, asl #16
 4069 349c 3420DDE5 		ldrb	r2, [sp, #52]	@ zero_extendqisi2
 4070 34a0 2348A0E1 		mov	r4, r3, lsr #16
 4071 34a4 040052E1 		cmp	r2, r4
 4072 34a8 F4FFFF8A 		bhi	.L297
 4073              	.L295:
 4074 34ac 0100A0E3 		mov	r0, #1
 4075 34b0 3811DDE5 		ldrb	r1, [sp, #312]	@ zero_extendqisi2
 4076 34b4 FEFFFFEB 		bl	comm_send_ch
 4077 34b8 0100A0E3 		mov	r0, #1
 4078 34bc 3911DDE5 		ldrb	r1, [sp, #313]	@ zero_extendqisi2
 4079 34c0 FEFFFFEB 		bl	comm_send_ch
 4080 34c4 A22EA0E3 		mov	r2, #2592
 4081 34c8 D8C39FE5 		ldr	ip, .L327
 4082 34cc 0210A0E1 		mov	r1, r2
 4083 34d0 0200A0E1 		mov	r0, r2
 4084 34d4 1A3EA0E3 		mov	r3, #416
 4085 34d8 023083E2 		add	r3, r3, #2
 4086 34dc 082082E2 		add	r2, r2, #8
 4087 34e0 0A1081E2 		add	r1, r1, #10
 4088 34e4 0C0080E2 		add	r0, r0, #12
 4089 34e8 B3509CE1 		ldrh	r5, [ip, r3]
 4090 34ec B2609CE1 		ldrh	r6, [ip, r2]
 4091 34f0 B1709CE1 		ldrh	r7, [ip, r1]
 4092 34f4 B0409CE1 		ldrh	r4, [ip, r0]
 4093 34f8 FEFFFFEB 		bl	communication_get_uart_drop_rate
 4094 34fc A8339FE5 		ldr	r3, .L327+4
 4095 3500 A8239FE5 		ldr	r2, .L327+8
 4096 3504 0030D3E5 		ldrb	r3, [r3, #0]	@ zero_extendqisi2
 4097 3508 9CC39FE5 		ldr	ip, .L327+4
 4098 350c 0E20D2E5 		ldrb	r2, [r2, #14]	@ zero_extendqisi2
 4099 3510 01C0DCE5 		ldrb	ip, [ip, #1]	@ zero_extendqisi2
 4100 3514 1C308DE5 		str	r3, [sp, #28]
 4101 3518 90339FE5 		ldr	r3, .L327+8
 4102 351c 20208DE5 		str	r2, [sp, #32]
 4103 3520 012082E2 		add	r2, r2, #1
 4104 3524 18C08DE5 		str	ip, [sp, #24]
 4105 3528 0558A0E1 		mov	r5, r5, asl #16
 4106 352c 0E20C3E5 		strb	r2, [r3, #14]
 4107 3530 7130E0E3 		mvn	r3, #113
 4108 3534 25CCA0E1 		mov	ip, r5, lsr #24
 4109 3538 3830CDE5 		strb	r3, [sp, #56]
 4110 353c 7E3083E2 		add	r3, r3, #126
 4111 3540 0448A0E1 		mov	r4, r4, asl #16
 4112 3544 0668A0E1 		mov	r6, r6, asl #16
 4113 3548 0778A0E1 		mov	r7, r7, asl #16
 4114 354c 0008A0E1 		mov	r0, r0, asl #16
 4115 3550 39C0CDE5 		strb	ip, [sp, #57]
 4116 3554 3430CDE5 		strb	r3, [sp, #52]
 4117 3558 18208DE2 		add	r2, sp, #24
 4118 355c 041092E8 		ldmia	r2, {r2, ip}	@ phole ldm
 4119 3560 20309DE5 		ldr	r3, [sp, #32]
 4120 3564 2418A0E1 		mov	r1, r4, lsr #16
 4121 3568 26ECA0E1 		mov	lr, r6, lsr #24
 4122 356c 244CA0E1 		mov	r4, r4, lsr #24
 4123 3570 278CA0E1 		mov	r8, r7, lsr #24
 4124 3574 20ACA0E1 		mov	sl, r0, lsr #24
 4125 3578 2558A0E1 		mov	r5, r5, lsr #16
 4126 357c 2668A0E1 		mov	r6, r6, lsr #16
 4127 3580 2778A0E1 		mov	r7, r7, lsr #16
 4128 3584 2008A0E1 		mov	r0, r0, lsr #16
 4129 3588 FF1001E2 		and	r1, r1, #255
 4130 358c 36C0CDE5 		strb	ip, [sp, #54]
 4131 3590 3A50CDE5 		strb	r5, [sp, #58]
 4132 3594 01C8A0E3 		mov	ip, #65536
 4133 3598 3BE0CDE5 		strb	lr, [sp, #59]
 4134 359c 3C60CDE5 		strb	r6, [sp, #60]
 4135 35a0 3D80CDE5 		strb	r8, [sp, #61]
 4136 35a4 3E70CDE5 		strb	r7, [sp, #62]
 4137 35a8 4140CDE5 		strb	r4, [sp, #65]
 4138 35ac 43A0CDE5 		strb	sl, [sp, #67]
 4139 35b0 4400CDE5 		strb	r0, [sp, #68]
 4140 35b4 3720CDE5 		strb	r2, [sp, #55]
 4141 35b8 3F40CDE5 		strb	r4, [sp, #63]
 4142 35bc 3530CDE5 		strb	r3, [sp, #53]
 4143 35c0 4210CDE5 		strb	r1, [sp, #66]
 4144 35c4 4010CDE5 		strb	r1, [sp, #64]
 4145 35c8 01C04CE2 		sub	ip, ip, #1
 4146 35cc 0010A0E3 		mov	r1, #0
 4147              	.L298:
 4148 35d0 0B30D1E7 		ldrb	r3, [r1, fp]	@ zero_extendqisi2
 4149 35d4 0C3023E0 		eor	r3, r3, ip
 4150 35d8 FF3003E2 		and	r3, r3, #255
 4151 35dc 033223E0 		eor	r3, r3, r3, asl #4
 4152 35e0 FF3003E2 		and	r3, r3, #255
 4153 35e4 0324A0E1 		mov	r2, r3, asl #8
 4154 35e8 2C2482E1 		orr	r2, r2, ip, lsr #8
 4155 35ec 232222E0 		eor	r2, r2, r3, lsr #4
 4156 35f0 832122E0 		eor	r2, r2, r3, asl #3
 4157 35f4 011081E2 		add	r1, r1, #1
 4158 35f8 0228A0E1 		mov	r2, r2, asl #16
 4159 35fc 110051E3 		cmp	r1, #17
 4160 3600 22C8A0E1 		mov	ip, r2, lsr #16
 4161 3604 F1FFFF1A 		bne	.L298
 4162 3608 2C34A0E1 		mov	r3, ip, lsr #8
 4163 360c 0100A0E3 		mov	r0, #1
 4164 3610 441081E2 		add	r1, r1, #68
 4165 3614 3931CDE5 		strb	r3, [sp, #313]
 4166 3618 38C1CDE5 		strb	ip, [sp, #312]
 4167 361c FEFFFFEB 		bl	comm_send_ch
 4168 3620 0100A0E3 		mov	r0, #1
 4169 3624 3410DDE5 		ldrb	r1, [sp, #52]	@ zero_extendqisi2
 4170 3628 FEFFFFEB 		bl	comm_send_ch
 4171 362c 0100A0E3 		mov	r0, #1
 4172 3630 3510DDE5 		ldrb	r1, [sp, #53]	@ zero_extendqisi2
 4173 3634 FEFFFFEB 		bl	comm_send_ch
 4174 3638 0100A0E3 		mov	r0, #1
 4175 363c 3610DDE5 		ldrb	r1, [sp, #54]	@ zero_extendqisi2
 4176 3640 FEFFFFEB 		bl	comm_send_ch
 4177 3644 0100A0E3 		mov	r0, #1
 4178 3648 3710DDE5 		ldrb	r1, [sp, #55]	@ zero_extendqisi2
 4179 364c FEFFFFEB 		bl	comm_send_ch
 4180 3650 0100A0E3 		mov	r0, #1
 4181 3654 3810DDE5 		ldrb	r1, [sp, #56]	@ zero_extendqisi2
 4182 3658 FEFFFFEB 		bl	comm_send_ch
 4183 365c 3430DDE5 		ldrb	r3, [sp, #52]	@ zero_extendqisi2
 4184 3660 000053E3 		cmp	r3, #0
 4185 3664 0B00000A 		beq	.L300
 4186 3668 0040A0E3 		mov	r4, #0
 4187              	.L302:
 4188 366c 4FCF8DE2 		add	ip, sp, #316
 4189 3670 04308CE0 		add	r3, ip, r4
 4190 3674 031153E5 		ldrb	r1, [r3, #-259]	@ zero_extendqisi2
 4191 3678 0100A0E3 		mov	r0, #1
 4192 367c FEFFFFEB 		bl	comm_send_ch
 4193 3680 013084E2 		add	r3, r4, #1
 4194 3684 0338A0E1 		mov	r3, r3, asl #16
 4195 3688 3420DDE5 		ldrb	r2, [sp, #52]	@ zero_extendqisi2
 4196 368c 2348A0E1 		mov	r4, r3, lsr #16
 4197 3690 040052E1 		cmp	r2, r4
 4198 3694 F4FFFF8A 		bhi	.L302
 4199              	.L300:
 4200 3698 0100A0E3 		mov	r0, #1
 4201 369c 3811DDE5 		ldrb	r1, [sp, #312]	@ zero_extendqisi2
 4202 36a0 FEFFFFEB 		bl	comm_send_ch
 4203 36a4 0100A0E3 		mov	r0, #1
 4204 36a8 3911DDE5 		ldrb	r1, [sp, #313]	@ zero_extendqisi2
 4205 36ac FEFFFFEB 		bl	comm_send_ch
 4206 36b0 A21EA0E3 		mov	r1, #2592
 4207 36b4 ECC19FE5 		ldr	ip, .L327
 4208 36b8 0100A0E1 		mov	r0, r1
 4209 36bc 0130A0E1 		mov	r3, r1
 4210 36c0 1A2EA0E3 		mov	r2, #416
 4211 36c4 022082E2 		add	r2, r2, #2
 4212 36c8 081081E2 		add	r1, r1, #8
 4213 36cc 0C3083E2 		add	r3, r3, #12
 4214 36d0 0A0080E2 		add	r0, r0, #10
 4215 36d4 B3409CE1 		ldrh	r4, [ip, r3]
 4216 36d8 B2509CE1 		ldrh	r5, [ip, r2]
 4217 36dc B1609CE1 		ldrh	r6, [ip, r1]
 4218 36e0 B0709CE1 		ldrh	r7, [ip, r0]
 4219 36e4 FEFFFFEB 		bl	communication_get_uart_drop_rate
 4220 36e8 BC319FE5 		ldr	r3, .L327+4
 4221 36ec C0219FE5 		ldr	r2, .L327+12
 4222 36f0 0130D3E5 		ldrb	r3, [r3, #1]	@ zero_extendqisi2
 4223 36f4 B0C19FE5 		ldr	ip, .L327+4
 4224 36f8 0E20D2E5 		ldrb	r2, [r2, #14]	@ zero_extendqisi2
 4225 36fc 00C0DCE5 		ldrb	ip, [ip, #0]	@ zero_extendqisi2
 4226 3700 24308DE5 		str	r3, [sp, #36]
 4227 3704 A8319FE5 		ldr	r3, .L327+12
 4228 3708 2C208DE5 		str	r2, [sp, #44]
 4229 370c 012082E2 		add	r2, r2, #1
 4230 3710 28C08DE5 		str	ip, [sp, #40]
 4231 3714 0558A0E1 		mov	r5, r5, asl #16
 4232 3718 0E20C3E5 		strb	r2, [r3, #14]
 4233 371c 7130E0E3 		mvn	r3, #113
 4234 3720 25CCA0E1 		mov	ip, r5, lsr #24
 4235 3724 3830CDE5 		strb	r3, [sp, #56]
 4236 3728 7E3083E2 		add	r3, r3, #126
 4237 372c 0448A0E1 		mov	r4, r4, asl #16
 4238 3730 0668A0E1 		mov	r6, r6, asl #16
 4239 3734 0778A0E1 		mov	r7, r7, asl #16
 4240 3738 0008A0E1 		mov	r0, r0, asl #16
 4241 373c 39C0CDE5 		strb	ip, [sp, #57]
 4242 3740 3430CDE5 		strb	r3, [sp, #52]
 4243 3744 24208DE2 		add	r2, sp, #36
 4244 3748 041092E8 		ldmia	r2, {r2, ip}	@ phole ldm
 4245 374c 2C309DE5 		ldr	r3, [sp, #44]
 4246 3750 2418A0E1 		mov	r1, r4, lsr #16
 4247 3754 26ECA0E1 		mov	lr, r6, lsr #24
 4248 3758 244CA0E1 		mov	r4, r4, lsr #24
 4249 375c 278CA0E1 		mov	r8, r7, lsr #24
 4250 3760 20ACA0E1 		mov	sl, r0, lsr #24
 4251 3764 2558A0E1 		mov	r5, r5, lsr #16
 4252 3768 2668A0E1 		mov	r6, r6, lsr #16
 4253 376c 2778A0E1 		mov	r7, r7, lsr #16
 4254 3770 2008A0E1 		mov	r0, r0, lsr #16
 4255 3774 FF1001E2 		and	r1, r1, #255
 4256 3778 36C0CDE5 		strb	ip, [sp, #54]
 4257 377c 3A50CDE5 		strb	r5, [sp, #58]
 4258 3780 01C8A0E3 		mov	ip, #65536
 4259 3784 3BE0CDE5 		strb	lr, [sp, #59]
 4260 3788 3C60CDE5 		strb	r6, [sp, #60]
 4261 378c 3D80CDE5 		strb	r8, [sp, #61]
 4262 3790 3E70CDE5 		strb	r7, [sp, #62]
 4263 3794 4140CDE5 		strb	r4, [sp, #65]
 4264 3798 43A0CDE5 		strb	sl, [sp, #67]
 4265 379c 4400CDE5 		strb	r0, [sp, #68]
 4266 37a0 3720CDE5 		strb	r2, [sp, #55]
 4267 37a4 3F40CDE5 		strb	r4, [sp, #63]
 4268 37a8 3530CDE5 		strb	r3, [sp, #53]
 4269 37ac 4210CDE5 		strb	r1, [sp, #66]
 4270 37b0 4010CDE5 		strb	r1, [sp, #64]
 4271 37b4 01C04CE2 		sub	ip, ip, #1
 4272 37b8 0010A0E3 		mov	r1, #0
 4273              	.L303:
 4274 37bc 0B30D1E7 		ldrb	r3, [r1, fp]	@ zero_extendqisi2
 4275 37c0 0C3023E0 		eor	r3, r3, ip
 4276 37c4 FF3003E2 		and	r3, r3, #255
 4277 37c8 033223E0 		eor	r3, r3, r3, asl #4
 4278 37cc FF3003E2 		and	r3, r3, #255
 4279 37d0 0324A0E1 		mov	r2, r3, asl #8
 4280 37d4 2C2482E1 		orr	r2, r2, ip, lsr #8
 4281 37d8 232222E0 		eor	r2, r2, r3, lsr #4
 4282 37dc 832122E0 		eor	r2, r2, r3, asl #3
 4283 37e0 011081E2 		add	r1, r1, #1
 4284 37e4 0228A0E1 		mov	r2, r2, asl #16
 4285 37e8 110051E3 		cmp	r1, #17
 4286 37ec 22C8A0E1 		mov	ip, r2, lsr #16
 4287 37f0 F1FFFF1A 		bne	.L303
 4288 37f4 2C34A0E1 		mov	r3, ip, lsr #8
 4289 37f8 0000A0E3 		mov	r0, #0
 4290 37fc 441081E2 		add	r1, r1, #68
 4291 3800 3931CDE5 		strb	r3, [sp, #313]
 4292 3804 38C1CDE5 		strb	ip, [sp, #312]
 4293 3808 FEFFFFEB 		bl	comm_send_ch
 4294 380c 0000A0E3 		mov	r0, #0
 4295 3810 3410DDE5 		ldrb	r1, [sp, #52]	@ zero_extendqisi2
 4296 3814 FEFFFFEB 		bl	comm_send_ch
 4297 3818 0000A0E3 		mov	r0, #0
 4298 381c 3510DDE5 		ldrb	r1, [sp, #53]	@ zero_extendqisi2
 4299 3820 FEFFFFEB 		bl	comm_send_ch
 4300 3824 0000A0E3 		mov	r0, #0
 4301 3828 3610DDE5 		ldrb	r1, [sp, #54]	@ zero_extendqisi2
 4302 382c FEFFFFEB 		bl	comm_send_ch
 4303 3830 0000A0E3 		mov	r0, #0
 4304 3834 3710DDE5 		ldrb	r1, [sp, #55]	@ zero_extendqisi2
 4305 3838 FEFFFFEB 		bl	comm_send_ch
 4306 383c 0000A0E3 		mov	r0, #0
 4307 3840 3810DDE5 		ldrb	r1, [sp, #56]	@ zero_extendqisi2
 4308 3844 FEFFFFEB 		bl	comm_send_ch
 4309 3848 3430DDE5 		ldrb	r3, [sp, #52]	@ zero_extendqisi2
 4310 384c 000053E3 		cmp	r3, #0
 4311 3850 0B00000A 		beq	.L305
 4312 3854 0040A0E3 		mov	r4, #0
 4313              	.L307:
 4314 3858 4FCF8DE2 		add	ip, sp, #316
 4315 385c 04308CE0 		add	r3, ip, r4
 4316 3860 031153E5 		ldrb	r1, [r3, #-259]	@ zero_extendqisi2
 4317 3864 0000A0E3 		mov	r0, #0
 4318 3868 FEFFFFEB 		bl	comm_send_ch
 4319 386c 013084E2 		add	r3, r4, #1
 4320 3870 0338A0E1 		mov	r3, r3, asl #16
 4321 3874 3420DDE5 		ldrb	r2, [sp, #52]	@ zero_extendqisi2
 4322 3878 2348A0E1 		mov	r4, r3, lsr #16
 4323 387c 040052E1 		cmp	r2, r4
 4324 3880 F4FFFF8A 		bhi	.L307
 4325              	.L305:
 4326 3884 3811DDE5 		ldrb	r1, [sp, #312]	@ zero_extendqisi2
 4327 3888 0000A0E3 		mov	r0, #0
 4328 388c FEFFFFEB 		bl	comm_send_ch
 4329 3890 0000A0E3 		mov	r0, #0
 4330 3894 3911DDE5 		ldrb	r1, [sp, #313]	@ zero_extendqisi2
 4331 3898 FEFFFFEB 		bl	comm_send_ch
 4332 389c 4FDF8DE2 		add	sp, sp, #316
 4333 38a0 F04FBDE8 		ldmfd	sp!, {r4, r5, r6, r7, r8, r9, sl, fp, lr}
 4334 38a4 1EFF2FE1 		bx	lr
 4335              	.L328:
 4336              		.align	2
 4337              	.L327:
 4338 38a8 00000000 		.word	global_data
 4339 38ac 00000000 		.word	mavlink_system
 4340 38b0 14000000 		.word	m_mavlink_status.2143+20
 4341 38b4 00000000 		.word	m_mavlink_status.2143
 4343              		.bss
 4344              		.align	2
 4345              	m_mavlink_status.2143:
 4346 0000 00000000 		.space	80
 4346      00000000 
 4346      00000000 
 4346      00000000 
 4346      00000000 
 4347              		.align	2
 4348              	vel_est3.21098:
 4349 0050 00000000 		.space	12
 4349      00000000 
 4349      00000000 
 4350              		.align	2
 4351              	pos_est3.21097:
 4352 005c 00000000 		.space	12
 4352      00000000 
 4352      00000000 
 4353              		.align	2
 4354              	reset_countdown.20983:
 4355 0068 00000000 		.space	4
 4356              		.align	2
 4357              	next_exec_time:
 4358 006c 00000000 		.space	56
 4358      00000000 
 4358      00000000 
 4358      00000000 
 4358      00000000 
 4359              		.comm	mavlink_system,8,4
 4360              		.comm	global_param_id,4,4
 4361              		.comm	state_fly_id,4,4
 4362              		.comm	global_data,2684,4
 4363              		.comm	mag_axis,1,1
 4364              		.comm	bmp085_measurement_mode,1,1
 4365              		.comm	gps_device_mode,1,1
 4366              		.comm	yaw_pos_controller,32,4
 4367              		.comm	yaw_speed_controller,32,4
 4368              		.comm	nick_controller,32,4
 4369              		.comm	roll_controller,32,4
 4370              		.comm	fw_yaw_controller,32,4
 4371              		.comm	fw_nick_controller,32,4
 4372              		.comm	fw_roll_controller,32,4
 4373              		.comm	x_axis_controller,32,4
 4374              		.comm	y_axis_controller,32,4
 4375              		.comm	z_axis_controller,32,4
 4376              		.ident	"GCC: (GNU) 4.1.1 (WinARM)"
DEFINED SYMBOLS
                            *ABS*:00000000 common_mainloop_functions.c
C:\Users\Srdjan\AppData\Local\Temp/ccmgaaaa.s:7      .text:00000000 sync_state_parameters
C:\Users\Srdjan\AppData\Local\Temp/ccmgaaaa.s:11     .text:00000000 $a
C:\Users\Srdjan\AppData\Local\Temp/ccmgaaaa.s:26     .text:00000030 $d
                            *COM*:00000a7c global_data
C:\Users\Srdjan\AppData\Local\Temp/ccmgaaaa.s:31     .text:00000034 beep_on_low_voltage
C:\Users\Srdjan\AppData\Local\Temp/ccmgaaaa.s:35     .text:00000034 $a
C:\Users\Srdjan\AppData\Local\Temp/ccmgaaaa.s:64     .text:00000098 $d
C:\Users\Srdjan\AppData\Local\Temp/ccmgaaaa.s:69     .text:0000009c measure_peak_cpu_load
C:\Users\Srdjan\AppData\Local\Temp/ccmgaaaa.s:74     .text:0000009c $a
C:\Users\Srdjan\AppData\Local\Temp/ccmgaaaa.s:81     .text:000000a4 measure_avg_cpu_load
C:\Users\Srdjan\AppData\Local\Temp/ccmgaaaa.s:93     .text:000000ac us_run_init
C:\Users\Srdjan\AppData\Local\Temp/ccmgaaaa.s:110    .text:000000c8 $d
C:\Users\Srdjan\AppData\Local\Temp/ccmgaaaa.s:4357   .bss:0000006c next_exec_time
C:\Users\Srdjan\AppData\Local\Temp/ccmgaaaa.s:115    .text:000000cc us_run_every
C:\Users\Srdjan\AppData\Local\Temp/ccmgaaaa.s:119    .text:000000cc $a
C:\Users\Srdjan\AppData\Local\Temp/ccmgaaaa.s:138    .text:00000104 $d
C:\Users\Srdjan\AppData\Local\Temp/ccmgaaaa.s:151    .text:00000108 update_system_statemachine
C:\Users\Srdjan\AppData\Local\Temp/ccmgaaaa.s:155    .text:00000108 $a
C:\Users\Srdjan\AppData\Local\Temp/ccmgaaaa.s:166    .text:0000012c $d
C:\Users\Srdjan\AppData\Local\Temp/ccmgaaaa.s:172    .text:00000140 $a
C:\Users\Srdjan\AppData\Local\Temp/ccmgaaaa.s:281    .text:000002bc $d
C:\Users\Srdjan\AppData\Local\Temp/ccmgaaaa.s:299    .text:000002c8 adc_read
C:\Users\Srdjan\AppData\Local\Temp/ccmgaaaa.s:303    .text:000002c8 $a
C:\Users\Srdjan\AppData\Local\Temp/ccmgaaaa.s:432    .text:000004a8 $d
C:\Users\Srdjan\AppData\Local\Temp/ccmgaaaa.s:765    .text:000004cc handle_eeprom_write_request
C:\Users\Srdjan\AppData\Local\Temp/ccmgaaaa.s:769    .text:000004cc $a
C:\Users\Srdjan\AppData\Local\Temp/ccmgaaaa.s:787    .text:00000504 $d
C:\Users\Srdjan\AppData\Local\Temp/ccmgaaaa.s:793    .text:00000518 $a
C:\Users\Srdjan\AppData\Local\Temp/ccmgaaaa.s:1426   .text:00000edc $d
C:\Users\Srdjan\AppData\Local\Temp/ccmgaaaa.s:1638   .text:000011ec handle_reset_request
C:\Users\Srdjan\AppData\Local\Temp/ccmgaaaa.s:1642   .text:000011ec $a
C:\Users\Srdjan\AppData\Local\Temp/ccmgaaaa.s:1690   .text:0000128c $d
C:\Users\Srdjan\AppData\Local\Temp/ccmgaaaa.s:4354   .bss:00000068 reset_countdown.20983
C:\Users\Srdjan\AppData\Local\Temp/ccmgaaaa.s:1725   .text:000012a0 communication_send_controller_feedback
C:\Users\Srdjan\AppData\Local\Temp/ccmgaaaa.s:1729   .text:000012a0 $a
C:\Users\Srdjan\AppData\Local\Temp/ccmgaaaa.s:1816   .text:000013dc $d
                            *COM*:00000020 roll_controller
                            *COM*:00000020 nick_controller
                            *COM*:00000020 yaw_speed_controller
                            *COM*:00000020 x_axis_controller
                            *COM*:00000020 y_axis_controller
                            *COM*:00000020 z_axis_controller
                            *COM*:00000020 yaw_pos_controller
C:\Users\Srdjan\AppData\Local\Temp/ccmgaaaa.s:1836   .text:0000141c position_integrate
C:\Users\Srdjan\AppData\Local\Temp/ccmgaaaa.s:1840   .text:0000141c $a
C:\Users\Srdjan\AppData\Local\Temp/ccmgaaaa.s:1853   .text:00001440 control_camera_angle
C:\Users\Srdjan\AppData\Local\Temp/ccmgaaaa.s:1900   .text:000014e0 $d
C:\Users\Srdjan\AppData\Local\Temp/ccmgaaaa.s:1905   .text:000014e4 rc_to_255
C:\Users\Srdjan\AppData\Local\Temp/ccmgaaaa.s:1909   .text:000014e4 $a
C:\Users\Srdjan\AppData\Local\Temp/ccmgaaaa.s:1979   .text:000015e0 communication_send_attitude_position
C:\Users\Srdjan\AppData\Local\Temp/ccmgaaaa.s:2437   .text:00001cc4 $d
C:\Users\Srdjan\AppData\Local\Temp/ccmgaaaa.s:4345   .bss:00000000 m_mavlink_status.2143
                            *COM*:00000008 mavlink_system
C:\Users\Srdjan\AppData\Local\Temp/ccmgaaaa.s:2444   .text:00001cd0 communication_send_raw_data
C:\Users\Srdjan\AppData\Local\Temp/ccmgaaaa.s:2448   .text:00001cd0 $a
C:\Users\Srdjan\AppData\Local\Temp/ccmgaaaa.s:2681   .text:00002054 $d
C:\Users\Srdjan\AppData\Local\Temp/ccmgaaaa.s:2688   .text:00002060 camera_shutter_handling
C:\Users\Srdjan\AppData\Local\Temp/ccmgaaaa.s:2692   .text:00002060 $a
C:\Users\Srdjan\AppData\Local\Temp/ccmgaaaa.s:2941   .text:00002424 $d
C:\Users\Srdjan\AppData\Local\Temp/ccmgaaaa.s:2948   .text:00002430 fuse_vision_altitude_200hz
C:\Users\Srdjan\AppData\Local\Temp/ccmgaaaa.s:2952   .text:00002430 $a
C:\Users\Srdjan\AppData\Local\Temp/ccmgaaaa.s:3101   .text:00002660 $d
C:\Users\Srdjan\AppData\Local\Temp/ccmgaaaa.s:4351   .bss:0000005c pos_est3.21097
C:\Users\Srdjan\AppData\Local\Temp/ccmgaaaa.s:4348   .bss:00000050 vel_est3.21098
C:\Users\Srdjan\AppData\Local\Temp/ccmgaaaa.s:3110   .text:00002674 handle_controller_timeouts
C:\Users\Srdjan\AppData\Local\Temp/ccmgaaaa.s:3114   .text:00002674 $a
C:\Users\Srdjan\AppData\Local\Temp/ccmgaaaa.s:3431   .text:00002b30 $d
C:\Users\Srdjan\AppData\Local\Temp/ccmgaaaa.s:3438   .text:00002b3c communication_send_remote_control
C:\Users\Srdjan\AppData\Local\Temp/ccmgaaaa.s:3442   .text:00002b3c $a
C:\Users\Srdjan\AppData\Local\Temp/ccmgaaaa.s:3659   .text:00002e80 $d
C:\Users\Srdjan\AppData\Local\Temp/ccmgaaaa.s:3666   .text:00002e8c send_system_state
C:\Users\Srdjan\AppData\Local\Temp/ccmgaaaa.s:3670   .text:00002e8c $a
C:\Users\Srdjan\AppData\Local\Temp/ccmgaaaa.s:4338   .text:000038a8 $d
                            *COM*:00000004 global_param_id
                            *COM*:00000004 state_fly_id
                            *COM*:00000001 mag_axis
                            *COM*:00000001 bmp085_measurement_mode
                            *COM*:00000001 gps_device_mode
                            *COM*:00000020 fw_yaw_controller
                            *COM*:00000020 fw_nick_controller
                            *COM*:00000020 fw_roll_controller

UNDEFINED SYMBOLS
__fixunssfsi
debug_message_buffer
__floatsisf
__addsf3
__divsf3
__mulsf3
__extendsfdf2
__subdf3
__truncdfsf2
__muldf3
__fixunsdfsi
__ltsf2
__gtsf2
adc_get_value
param_write_all
param_read_all
memcpy
param_size_check
eeprom_check_start
__eqsf2
debug_message_buffer_sprintf
watchdog_wait_reset
debug_vect
body2navi
pwm_set_channel
ppm_get_channel
sys_time_clock_get_unix_offset
comm_send_ch
shutter_loop
shutter_get_seq
vision_buffer_buffer_camera_triggered
x_position_kalman3
y_position_kalman3
z_position_kalman3
communication_get_uart_drop_rate
