   1              		.file	"common_mainloop_functions.c"
   2              		.global	__fixunssfsi
   3              		.text
   4              		.align	2
   5              		.global	sync_state_parameters
   7              	sync_state_parameters:
   8              		@ Function supports interworking.
   9              		@ args = 0, pretend = 0, frame = 0
  10              		@ frame_needed = 0, uses_anonymous_args = 0
  11 0000 10402DE9 		stmfd	sp!, {r4, lr}
  12 0004 24409FE5 		ldr	r4, .L5
  13 0008 CC0394E5 		ldr	r0, [r4, #972]	@ float
  14 000c FEFFFFEB 		bl	__fixunssfsi
  15 0010 FF0000E2 		and	r0, r0, #255
  16 0014 0230A0E3 		mov	r3, #2
  17 0018 140050E3 		cmp	r0, #20
  18 001c 6001C4E5 		strb	r0, [r4, #352]
  19 0020 6231C405 		streqb	r3, [r4, #354]
  20 0024 6131C405 		streqb	r3, [r4, #353]
  21 0028 1040BDE8 		ldmfd	sp!, {r4, lr}
  22 002c 1EFF2FE1 		bx	lr
  23              	.L6:
  24              		.align	2
  25              	.L5:
  26 0030 00000000 		.word	global_data
  28              		.align	2
  29              		.global	beep_on_low_voltage
  31              	beep_on_low_voltage:
  32              		@ Function supports interworking.
  33              		@ args = 0, pretend = 0, frame = 0
  34              		@ frame_needed = 0, uses_anonymous_args = 0
  35 0034 5C109FE5 		ldr	r1, .L15
  36 0038 1A2EA0E3 		mov	r2, #416
  37 003c B20091E1 		ldrh	r0, [r1, r2]
  38 0040 233CA0E3 		mov	r3, #8960
  39 0044 273083E2 		add	r3, r3, #39
  40 0048 04E02DE5 		str	lr, [sp, #-4]!
  41 004c 0EE2A0E3 		mov	lr, #-536870912
  42 0050 030050E1 		cmp	r0, r3
  43 0054 0AE98EE2 		add	lr, lr, #163840
  44 0058 1C309E85 		ldrhi	r3, [lr, #28]
  45 005c 0EC2A0E3 		mov	ip, #-536870912
  46 0060 01348383 		orrhi	r3, r3, #16777216
  47 0064 0AC98CE2 		add	ip, ip, #163840
  48 0068 1C308E85 		strhi	r3, [lr, #28]
  49 006c 0700008A 		bhi	.L13
  50 0070 10309CE5 		ldr	r3, [ip, #16]
  51 0074 010413E3 		tst	r3, #16777216
  52 0078 1C309C15 		ldrne	r3, [ip, #28]
  53 007c 14309C05 		ldreq	r3, [ip, #20]
  54 0080 01348313 		orrne	r3, r3, #16777216
  55 0084 01348303 		orreq	r3, r3, #16777216
  56 0088 1C308C15 		strne	r3, [ip, #28]
  57 008c 14308C05 		streq	r3, [ip, #20]
  58              	.L13:
  59 0090 04E09DE4 		ldr	lr, [sp], #4
  60 0094 1EFF2FE1 		bx	lr
  61              	.L16:
  62              		.align	2
  63              	.L15:
  64 0098 00000000 		.word	global_data
  66              		.align	2
  67              		.global	measure_peak_cpu_load
  69              	measure_peak_cpu_load:
  70              		@ Function supports interworking.
  71              		@ args = 8, pretend = 0, frame = 0
  72              		@ frame_needed = 0, uses_anonymous_args = 0
  73              		@ link register save eliminated.
  74 009c 0000A0E3 		mov	r0, #0
  75              		@ lr needed for prologue
  76 00a0 1EFF2FE1 		bx	lr
  78              		.align	2
  79              		.global	measure_avg_cpu_load
  81              	measure_avg_cpu_load:
  82              		@ Function supports interworking.
  83              		@ args = 8, pretend = 0, frame = 0
  84              		@ frame_needed = 0, uses_anonymous_args = 0
  85              		@ link register save eliminated.
  86 00a4 0000A0E3 		mov	r0, #0
  87              		@ lr needed for prologue
  88 00a8 1EFF2FE1 		bx	lr
  90              		.align	2
  91              		.global	us_run_init
  93              	us_run_init:
  94              		@ Function supports interworking.
  95              		@ args = 0, pretend = 0, frame = 0
  96              		@ frame_needed = 0, uses_anonymous_args = 0
  97              		@ link register save eliminated.
  98 00ac 14309FE5 		ldr	r3, .L27
  99              		@ lr needed for prologue
 100 00b0 0010A0E3 		mov	r1, #0
 101 00b4 382083E2 		add	r2, r3, #56
 102              	.L22:
 103 00b8 041083E4 		str	r1, [r3], #4
 104 00bc 020053E1 		cmp	r3, r2
 105 00c0 FCFFFF1A 		bne	.L22
 106 00c4 1EFF2FE1 		bx	lr
 107              	.L28:
 108              		.align	2
 109              	.L27:
 110 00c8 6C000000 		.word	next_exec_time
 112              		.align	2
 113              		.global	us_run_every
 115              	us_run_every:
 116              		@ Function supports interworking.
 117              		@ args = 0, pretend = 0, frame = 0
 118              		@ frame_needed = 0, uses_anonymous_args = 0
 119 00cc 04E02DE5 		str	lr, [sp, #-4]!
 120 00d0 2CE09FE5 		ldr	lr, .L35
 121 00d4 01319EE7 		ldr	r3, [lr, r1, asl #2]
 122 00d8 020053E1 		cmp	r3, r2
 123 00dc 03C062E0 		rsb	ip, r2, r3
 124 00e0 002082E0 		add	r2, r2, r0
 125 00e4 0200009A 		bls	.L30
 126 00e8 0C0050E1 		cmp	r0, ip
 127 00ec 0000A0E3 		mov	r0, #0
 128 00f0 0100002A 		bcs	.L33
 129              	.L30:
 130 00f4 01218EE7 		str	r2, [lr, r1, asl #2]
 131 00f8 0100A0E3 		mov	r0, #1
 132              	.L33:
 133 00fc 04E09DE4 		ldr	lr, [sp], #4
 134 0100 1EFF2FE1 		bx	lr
 135              	.L36:
 136              		.align	2
 137              	.L35:
 138 0104 6C000000 		.word	next_exec_time
 140              		.section	.rodata.str1.4,"aMS",%progbits,1
 141              		.align	2
 142              	.LC0:
 143 0000 43524954 		.ascii	"CRITICAL! POSITION LOST\000"
 143      4943414C 
 143      2120504F 
 143      53495449 
 143      4F4E204C 
 144              		.align	2
 145              	.LC1:
 146 0018 454D4552 		.ascii	"EMERGENCY! MAYDAY! MAYDAY! LANDING!\000"
 146      47454E43 
 146      5921204D 
 146      41594441 
 146      5921204D 
 147              		.text
 148              		.align	2
 149              		.global	update_system_statemachine
 151              	update_system_statemachine:
 152              		@ Function supports interworking.
 153              		@ args = 0, pretend = 0, frame = 0
 154              		@ frame_needed = 0, uses_anonymous_args = 0
 155 0108 F0402DE9 		stmfd	sp!, {r4, r5, r6, r7, lr}
 156 010c A8519FE5 		ldr	r5, .L62
 157 0110 503195E5 		ldr	r3, [r5, #336]
 158 0114 023043E2 		sub	r3, r3, #2
 159 0118 0120A0E1 		mov	r2, r1
 160 011c 0010A0E1 		mov	r1, r0
 161 0120 040053E3 		cmp	r3, #4
 162 0124 03F19F97 		ldrls	pc, [pc, r3, asl #2]
 163 0128 270000EA 		b	.L38
 164              		.p2align 2
 165              	.L42:
 166 012c E8010000 		.word	.L39
 167 0130 40010000 		.word	.L40
 168 0134 40010000 		.word	.L40
 169 0138 40010000 		.word	.L40
 170 013c A4010000 		.word	.L41
 171              	.L40:
 172 0140 3331D5E5 		ldrb	r3, [r5, #307]	@ zero_extendqisi2
 173 0144 000053E3 		cmp	r3, #0
 174 0148 6CC19FE5 		ldr	ip, .L62
 175 014c 2D00000A 		beq	.L44
 176 0150 5C319CE5 		ldr	r3, [ip, #348]
 177 0154 050053E3 		cmp	r3, #5
 178 0158 01304302 		subeq	r3, r3, #1
 179 015c 5C318C05 		streq	r3, [ip, #348]
 180 0160 0B00000A 		beq	.L48
 181              	.L46:
 182 0164 5C3195E5 		ldr	r3, [r5, #348]
 183 0168 050053E3 		cmp	r3, #5
 184 016c 48119FE5 		ldr	r1, .L62
 185 0170 3E00000A 		beq	.L52
 186 0174 060053E3 		cmp	r3, #6
 187 0178 4200000A 		beq	.L56
 188 017c 040053E3 		cmp	r3, #4
 189 0180 0030A013 		movne	r3, #0
 190 0184 78328115 		strne	r3, [r1, #632]	@ float
 191 0188 74328115 		strne	r3, [r1, #628]	@ float
 192 018c 7C328115 		strne	r3, [r1, #636]	@ float
 193 0190 0300001A 		bne	.L41
 194              	.L48:
 195 0194 FE35A0E3 		mov	r3, #1065353216
 196 0198 783285E5 		str	r3, [r5, #632]	@ float
 197 019c 743285E5 		str	r3, [r5, #628]	@ float
 198 01a0 7C3285E5 		str	r3, [r5, #636]	@ float
 199              	.L41:
 200 01a4 FE35A0E3 		mov	r3, #1065353216
 201 01a8 703285E5 		str	r3, [r5, #624]	@ float
 202 01ac 803285E5 		str	r3, [r5, #640]	@ float
 203              	.L43:
 204 01b0 3231D5E5 		ldrb	r3, [r5, #306]	@ zero_extendqisi2
 205 01b4 000053E3 		cmp	r3, #0
 206 01b8 FC309F05 		ldreq	r3, .L62
 207 01bc 0020A003 		moveq	r2, #0
 208 01c0 70228305 		streq	r2, [r3, #624]	@ float
 209 01c4 F040BDE8 		ldmfd	sp!, {r4, r5, r6, r7, lr}
 210 01c8 1EFF2FE1 		bx	lr
 211              	.L38:
 212 01cc 0030A0E3 		mov	r3, #0
 213 01d0 703285E5 		str	r3, [r5, #624]	@ float
 214 01d4 743285E5 		str	r3, [r5, #628]	@ float
 215 01d8 7C3285E5 		str	r3, [r5, #636]	@ float
 216 01dc 783285E5 		str	r3, [r5, #632]	@ float
 217 01e0 803285E5 		str	r3, [r5, #640]	@ float
 218 01e4 F1FFFFEA 		b	.L43
 219              	.L39:
 220 01e8 0030A0E3 		mov	r3, #0
 221 01ec FE25A0E3 		mov	r2, #1065353216
 222 01f0 783285E5 		str	r3, [r5, #632]	@ float
 223 01f4 702285E5 		str	r2, [r5, #624]	@ float
 224 01f8 743285E5 		str	r3, [r5, #628]	@ float
 225 01fc 7C3285E5 		str	r3, [r5, #636]	@ float
 226 0200 802285E5 		str	r2, [r5, #640]	@ float
 227 0204 E9FFFFEA 		b	.L43
 228              	.L44:
 229 0208 5C319CE5 		ldr	r3, [ip, #348]
 230 020c 040053E3 		cmp	r3, #4
 231 0210 2200000A 		beq	.L61
 232 0214 050053E3 		cmp	r3, #5
 233 0218 D1FFFF1A 		bne	.L46
 234 021c A23E8CE2 		add	r3, ip, #2592
 235 0220 180093E8 		ldmia	r3, {r3-r4}
 236 0224 0160A0E1 		mov	r6, r1
 237 0228 0270A0E1 		mov	r7, r2
 238 022c F0029CE5 		ldr	r0, [ip, #752]	@ float
 239 0230 036056E0 		subs	r6, r6, r3
 240 0234 0470C7E0 		sbc	r7, r7, r4
 241 0238 FEFFFFEB 		bl	__fixunssfsi
 242 023c 000057E3 		cmp	r7, #0
 243 0240 800080E0 		add	r0, r0, r0, asl #1
 244 0244 0010A0E3 		mov	r1, #0
 245 0248 0200008A 		bhi	.L54
 246 024c 0700001A 		bne	.L52
 247 0250 000056E1 		cmp	r6, r0
 248 0254 0500009A 		bls	.L52
 249              	.L54:
 250 0258 0630A0E3 		mov	r3, #6
 251 025c 5C009FE5 		ldr	r0, .L62+4
 252 0260 3431C5E5 		strb	r3, [r5, #308]
 253 0264 5C3185E5 		str	r3, [r5, #348]
 254 0268 FEFFFFEB 		bl	debug_message_buffer
 255 026c BCFFFFEA 		b	.L46
 256              	.L52:
 257 0270 FE25A0E3 		mov	r2, #1065353216
 258 0274 0030A0E3 		mov	r3, #0
 259 0278 782285E5 		str	r2, [r5, #632]	@ float
 260 027c 743285E5 		str	r3, [r5, #628]	@ float
 261 0280 7C2285E5 		str	r2, [r5, #636]	@ float
 262 0284 C6FFFFEA 		b	.L41
 263              	.L56:
 264 0288 FE25A0E3 		mov	r2, #1065353216
 265 028c 0030A0E3 		mov	r3, #0
 266 0290 782281E5 		str	r2, [r1, #632]	@ float
 267 0294 743281E5 		str	r3, [r1, #628]	@ float
 268 0298 7C2281E5 		str	r2, [r1, #636]	@ float
 269 029c C0FFFFEA 		b	.L41
 270              	.L61:
 271 02a0 013083E2 		add	r3, r3, #1
 272 02a4 18009FE5 		ldr	r0, .L62+8
 273 02a8 201A8CE5 		str	r1, [ip, #2592]
 274 02ac 242A8CE5 		str	r2, [ip, #2596]
 275 02b0 5C318CE5 		str	r3, [ip, #348]
 276 02b4 FEFFFFEB 		bl	debug_message_buffer
 277 02b8 A9FFFFEA 		b	.L46
 278              	.L63:
 279              		.align	2
 280              	.L62:
 281 02bc 00000000 		.word	global_data
 282 02c0 18000000 		.word	.LC1
 283 02c4 00000000 		.word	.LC0
 285              		.global	__floatsisf
 286              		.global	__addsf3
 287              		.global	__divsf3
 288              		.global	__mulsf3
 289              		.global	__extendsfdf2
 290              		.global	__subdf3
 291              		.global	__truncdfsf2
 292              		.global	__muldf3
 293              		.global	__fixunsdfsi
 294              		.global	__ltsf2
 295              		.global	__gtsf2
 296              		.align	2
 297              		.global	adc_read
 299              	adc_read:
 300              		@ Function supports interworking.
 301              		@ args = 0, pretend = 0, frame = 0
 302              		@ frame_needed = 0, uses_anonymous_args = 0
 303 02c8 30402DE9 		stmfd	sp!, {r4, r5, lr}
 304 02cc 0300A0E3 		mov	r0, #3
 305 02d0 FEFFFFEB 		bl	adc_get_value
 306 02d4 0048A0E1 		mov	r4, r0, asl #16
 307 02d8 4448A0E1 		mov	r4, r4, asr #16
 308 02dc 0400A0E1 		mov	r0, r4
 309 02e0 FEFFFFEB 		bl	__floatsisf
 310 02e4 000054E3 		cmp	r4, #0
 311 02e8 660000BA 		blt	.L74
 312              	.L65:
 313 02ec 4314A0E3 		mov	r1, #1124073472
 314 02f0 9B1881E2 		add	r1, r1, #10158080
 315 02f4 FEFFFFEB 		bl	__divsf3
 316 02f8 B8119FE5 		ldr	r1, .L76+16
 317 02fc 0040A0E1 		mov	r4, r0
 318 0300 FEFFFFEB 		bl	__mulsf3
 319 0304 0010A0E1 		mov	r1, r0
 320 0308 0400A0E1 		mov	r0, r4
 321 030c FEFFFFEB 		bl	__mulsf3
 322 0310 0010A0E1 		mov	r1, r0
 323 0314 0400A0E1 		mov	r0, r4
 324 0318 FEFFFFEB 		bl	__mulsf3
 325 031c 0010A0E1 		mov	r1, r0
 326 0320 0400A0E1 		mov	r0, r4
 327 0324 FEFFFFEB 		bl	__mulsf3
 328 0328 6718E0E3 		mvn	r1, #6750208
 329 032c 8D1D41E2 		sub	r1, r1, #9024
 330 0330 0050A0E1 		mov	r5, r0
 331 0334 511141E2 		sub	r1, r1, #1073741844
 332 0338 0400A0E1 		mov	r0, r4
 333 033c FEFFFFEB 		bl	__mulsf3
 334 0340 0010A0E1 		mov	r1, r0
 335 0344 0400A0E1 		mov	r0, r4
 336 0348 FEFFFFEB 		bl	__mulsf3
 337 034c 0010A0E1 		mov	r1, r0
 338 0350 0400A0E1 		mov	r0, r4
 339 0354 FEFFFFEB 		bl	__mulsf3
 340 0358 0010A0E1 		mov	r1, r0
 341 035c 0500A0E1 		mov	r0, r5
 342 0360 FEFFFFEB 		bl	__addsf3
 343 0364 50119FE5 		ldr	r1, .L76+20
 344 0368 0050A0E1 		mov	r5, r0
 345 036c 0400A0E1 		mov	r0, r4
 346 0370 FEFFFFEB 		bl	__mulsf3
 347 0374 0010A0E1 		mov	r1, r0
 348 0378 0400A0E1 		mov	r0, r4
 349 037c FEFFFFEB 		bl	__mulsf3
 350 0380 0010A0E1 		mov	r1, r0
 351 0384 0500A0E1 		mov	r0, r5
 352 0388 FEFFFFEB 		bl	__addsf3
 353 038c 9B18A0E3 		mov	r1, #10158080
 354 0390 171B81E2 		add	r1, r1, #23552
 355 0394 0050A0E1 		mov	r5, r0
 356 0398 AB1181E2 		add	r1, r1, #-1073741782
 357 039c 0400A0E1 		mov	r0, r4
 358 03a0 FEFFFFEB 		bl	__mulsf3
 359 03a4 0010A0E1 		mov	r1, r0
 360 03a8 0500A0E1 		mov	r0, r5
 361 03ac FEFFFFEB 		bl	__addsf3
 362 03b0 F519A0E3 		mov	r1, #4014080
 363 03b4 3B1C81E2 		add	r1, r1, #15104
 364 03b8 E11181E2 		add	r1, r1, #1073741880
 365 03bc FEFFFFEB 		bl	__addsf3
 366 03c0 FEFFFFEB 		bl	__extendsfdf2
 367 03c4 DC208FE2 		adr	r2, .L76
 368 03c8 0C0092E8 		ldmia	r2, {r2-r3}
 369 03cc FEFFFFEB 		bl	__subdf3
 370 03d0 FEFFFFEB 		bl	__truncdfsf2
 371 03d4 E4509FE5 		ldr	r5, .L76+24
 372 03d8 D80985E5 		str	r0, [r5, #2520]	@ float
 373 03dc 0500A0E3 		mov	r0, #5
 374 03e0 FEFFFFEB 		bl	adc_get_value
 375 03e4 0048A0E1 		mov	r4, r0, asl #16
 376 03e8 4448A0E1 		mov	r4, r4, asr #16
 377 03ec 0400A0E1 		mov	r0, r4
 378 03f0 FEFFFFEB 		bl	__floatsisf
 379 03f4 000054E3 		cmp	r4, #0
 380 03f8 260000BA 		blt	.L75
 381              	.L66:
 382 03fc FEFFFFEB 		bl	__extendsfdf2
 383 0400 A8208FE2 		adr	r2, .L76+8
 384 0404 0C0092E8 		ldmia	r2, {r2-r3}
 385 0408 FEFFFFEB 		bl	__muldf3
 386 040c FEFFFFEB 		bl	__fixunsdfsi
 387 0410 1A3EA0E3 		mov	r3, #416
 388 0414 B30085E1 		strh	r0, [r5, r3]	@ movhi
 389 0418 D41995E5 		ldr	r1, [r5, #2516]	@ float
 390 041c A0009FE5 		ldr	r0, .L76+28
 391 0420 FEFFFFEB 		bl	__mulsf3
 392 0424 D81995E5 		ldr	r1, [r5, #2520]	@ float
 393 0428 0040A0E1 		mov	r4, r0
 394 042c 94009FE5 		ldr	r0, .L76+32
 395 0430 FEFFFFEB 		bl	__mulsf3
 396 0434 0010A0E1 		mov	r1, r0
 397 0438 0400A0E1 		mov	r0, r4
 398 043c FEFFFFEB 		bl	__addsf3
 399 0440 0040A0E1 		mov	r4, r0
 400 0444 FE15A0E3 		mov	r1, #1065353216
 401 0448 D44985E5 		str	r4, [r5, #2516]	@ float
 402 044c FEFFFFEB 		bl	__ltsf2
 403 0450 000050E3 		cmp	r0, #0
 404 0454 080000AA 		bge	.L67
 405 0458 0400A0E1 		mov	r0, r4
 406 045c 0010A0E3 		mov	r1, #0
 407 0460 FEFFFFEB 		bl	__gtsf2
 408 0464 000050E3 		cmp	r0, #0
 409 0468 0130A0C3 		movgt	r3, #1
 410 046c 2F31C5C5 		strgtb	r3, [r5, #303]
 411 0470 010000DA 		ble	.L67
 412              	.L73:
 413 0474 3040BDE8 		ldmfd	sp!, {r4, r5, lr}
 414 0478 1EFF2FE1 		bx	lr
 415              	.L67:
 416 047c 0030A0E3 		mov	r3, #0
 417 0480 2F31C5E5 		strb	r3, [r5, #303]
 418 0484 FAFFFFEA 		b	.L73
 419              	.L74:
 420 0488 4714A0E3 		mov	r1, #1191182336
 421 048c 021581E2 		add	r1, r1, #8388608
 422 0490 FEFFFFEB 		bl	__addsf3
 423 0494 94FFFFEA 		b	.L65
 424              	.L75:
 425 0498 4714A0E3 		mov	r1, #1191182336
 426 049c 021581E2 		add	r1, r1, #8388608
 427 04a0 FEFFFFEB 		bl	__addsf3
 428 04a4 D4FFFFEA 		b	.L66
 429              	.L77:
 430              		.align	2
 431              	.L76:
 432 04a8 9999B93F 		.word	1069128089
 433 04ac 9A999999 		.word	-1717986918
 434 04b0 F5282F40 		.word	1076832501
 435 04b4 295C8FC2 		.word	-1030792151
 436 04b8 EA30173E 		.word	1041707242
 437 04bc EDF46340 		.word	1080292589
 438 04c0 00000000 		.word	global_data
 439 04c4 9A99593F 		.word	1062836634
 440 04c8 9A99193E 		.word	1041865114
 442              		.section	.rodata.str1.4
 443              		.align	2
 444              	.LC2:
 445 003c 73746172 		.ascii	"start writing params to eeprom\000"
 445      74207772 
 445      6974696E 
 445      67207061 
 445      72616D73 
 446 005b 00       		.align	2
 447              	.LC3:
 448 005c 73746172 		.ascii	"start reading params from eeprom\000"
 448      74207265 
 448      6164696E 
 448      67207061 
 448      72616D73 
 449 007d 000000   		.align	2
 450              	.LC4:
 451 0080 70617261 		.ascii	"params reset to defaults\000"
 451      6D732072 
 451      65736574 
 451      20746F20 
 451      64656661 
 452 0099 000000   		.align	2
 453              	.LC5:
 454 009c 5359535F 		.ascii	"SYS_ID\000"
 454      494400
 455 00a3 00       		.align	2
 456              	.LC6:
 457 00a4 5359535F 		.ascii	"SYS_COMP_ID\000"
 457      434F4D50 
 457      5F494400 
 458              		.align	2
 459              	.LC7:
 460 00b0 5359535F 		.ascii	"SYS_TYPE\000"
 460      54595045 
 460      00
 461 00b9 000000   		.align	2
 462              	.LC8:
 463 00bc 5359535F 		.ascii	"SYS_SW_VER\000"
 463      53575F56 
 463      455200
 464 00c7 00       		.align	2
 465              	.LC9:
 466 00c8 52435F53 		.ascii	"RC_SAFETY_CHAN\000"
 466      41464554 
 466      595F4348 
 466      414E00
 467 00d7 00       		.align	2
 468              	.LC10:
 469 00d8 55415254 		.ascii	"UART_0_BAUD\000"
 469      5F305F42 
 469      41554400 
 470              		.align	2
 471              	.LC11:
 472 00e4 55415254 		.ascii	"UART_1_BAUD\000"
 472      5F315F42 
 472      41554400 
 473              		.align	2
 474              	.LC12:
 475 00f0 52435F54 		.ascii	"RC_TUNE_CHAN1\000"
 475      554E455F 
 475      4348414E 
 475      3100
 476 00fe 0000     		.align	2
 477              	.LC13:
 478 0100 52435F54 		.ascii	"RC_TUNE_CHAN2\000"
 478      554E455F 
 478      4348414E 
 478      3200
 479 010e 0000     		.align	2
 480              	.LC14:
 481 0110 52435F54 		.ascii	"RC_TUNE_CHAN3\000"
 481      554E455F 
 481      4348414E 
 481      3300
 482 011e 0000     		.align	2
 483              	.LC15:
 484 0120 52435F54 		.ascii	"RC_TUNE_CHAN4\000"
 484      554E455F 
 484      4348414E 
 484      3400
 485 012e 0000     		.align	2
 486              	.LC16:
 487 0130 52435F54 		.ascii	"RC_THRUST_CHAN\000"
 487      48525553 
 487      545F4348 
 487      414E00
 488 013f 00       		.align	2
 489              	.LC17:
 490 0140 52435F59 		.ascii	"RC_YAW_CHAN\000"
 490      41575F43 
 490      48414E00 
 491              		.align	2
 492              	.LC18:
 493 014c 52435F52 		.ascii	"RC_ROLL_CHAN\000"
 493      4F4C4C5F 
 493      4348414E 
 493      00
 494 0159 000000   		.align	2
 495              	.LC19:
 496 015c 52435F54 		.ascii	"RC_TRIM_CHAN\000"
 496      52494D5F 
 496      4348414E 
 496      00
 497 0169 000000   		.align	2
 498              	.LC20:
 499 016c 52435F4E 		.ascii	"RC_NICK_CHAN\000"
 499      49434B5F 
 499      4348414E 
 499      00
 500 0179 000000   		.align	2
 501              	.LC21:
 502 017c 43414D5F 		.ascii	"CAM_INTERVAL\000"
 502      494E5445 
 502      5256414C 
 502      00
 503 0189 000000   		.align	2
 504              	.LC22:
 505 018c 43414D5F 		.ascii	"CAM_EXP\000"
 505      45585000 
 506              		.align	2
 507              	.LC23:
 508 0194 504F535F 		.ascii	"POS_SP_ACCEPT\000"
 508      53505F41 
 508      43434550 
 508      5400
 509 01a2 0000     		.align	2
 510              	.LC24:
 511 01a4 504F535F 		.ascii	"POS_TIMEOUT\000"
 511      54494D45 
 511      4F555400 
 512              		.align	2
 513              	.LC25:
 514 01b0 504F535F 		.ascii	"POS_SP_X\000"
 514      53505F58 
 514      00
 515 01b9 000000   		.align	2
 516              	.LC26:
 517 01bc 504F535F 		.ascii	"POS_SP_Y\000"
 517      53505F59 
 517      00
 518 01c5 000000   		.align	2
 519              	.LC27:
 520 01c8 504F535F 		.ascii	"POS_SP_Z\000"
 520      53505F5A 
 520      00
 521 01d1 000000   		.align	2
 522              	.LC28:
 523 01d4 504F535F 		.ascii	"POS_SP_YAW\000"
 523      53505F59 
 523      415700
 524 01df 00       		.align	2
 525              	.LC29:
 526 01e0 504F535F 		.ascii	"POS_YAW_TRACK\000"
 526      5941575F 
 526      54524143 
 526      4B00
 527 01ee 0000     		.align	2
 528              	.LC30:
 529 01f0 5049445F 		.ascii	"PID_ATT_P\000"
 529      4154545F 
 529      5000
 530 01fa 0000     		.align	2
 531              	.LC31:
 532 01fc 5049445F 		.ascii	"PID_ATT_I\000"
 532      4154545F 
 532      4900
 533 0206 0000     		.align	2
 534              	.LC32:
 535 0208 5049445F 		.ascii	"PID_ATT_D\000"
 535      4154545F 
 535      4400
 536 0212 0000     		.align	2
 537              	.LC33:
 538 0214 5049445F 		.ascii	"PID_ATT_LIM\000"
 538      4154545F 
 538      4C494D00 
 539              		.align	2
 540              	.LC34:
 541 0220 5049445F 		.ascii	"PID_ATT_AWU\000"
 541      4154545F 
 541      41575500 
 542              		.align	2
 543              	.LC35:
 544 022c 5049445F 		.ascii	"PID_YAWPOS_P\000"
 544      59415750 
 544      4F535F50 
 544      00
 545 0239 000000   		.align	2
 546              	.LC36:
 547 023c 5049445F 		.ascii	"PID_YAWPOS_I\000"
 547      59415750 
 547      4F535F49 
 547      00
 548 0249 000000   		.align	2
 549              	.LC37:
 550 024c 5049445F 		.ascii	"PID_YAWPOS_D\000"
 550      59415750 
 550      4F535F44 
 550      00
 551 0259 000000   		.align	2
 552              	.LC38:
 553 025c 5049445F 		.ascii	"PID_YAWPOS_LIM\000"
 553      59415750 
 553      4F535F4C 
 553      494D00
 554 026b 00       		.align	2
 555              	.LC39:
 556 026c 5049445F 		.ascii	"PID_YAWPOS_AWU\000"
 556      59415750 
 556      4F535F41 
 556      575500
 557 027b 00       		.align	2
 558              	.LC40:
 559 027c 5049445F 		.ascii	"PID_YAWSPEED_P\000"
 559      59415753 
 559      50454544 
 559      5F5000
 560 028b 00       		.align	2
 561              	.LC41:
 562 028c 5049445F 		.ascii	"PID_YAWSPEED_I\000"
 562      59415753 
 562      50454544 
 562      5F4900
 563 029b 00       		.align	2
 564              	.LC42:
 565 029c 5049445F 		.ascii	"PID_YAWSPEED_D\000"
 565      59415753 
 565      50454544 
 565      5F4400
 566 02ab 00       		.align	2
 567              	.LC43:
 568 02ac 5049445F 		.ascii	"PID_YAWSPE_LIM\000"
 568      59415753 
 568      50455F4C 
 568      494D00
 569 02bb 00       		.align	2
 570              	.LC44:
 571 02bc 5049445F 		.ascii	"PID_YAWSPE_AWU\000"
 571      59415753 
 571      50455F41 
 571      575500
 572 02cb 00       		.align	2
 573              	.LC45:
 574 02cc 5049445F 		.ascii	"PID_POS_P\000"
 574      504F535F 
 574      5000
 575 02d6 0000     		.align	2
 576              	.LC46:
 577 02d8 5049445F 		.ascii	"PID_POS_I\000"
 577      504F535F 
 577      4900
 578 02e2 0000     		.align	2
 579              	.LC47:
 580 02e4 5049445F 		.ascii	"PID_POS_D\000"
 580      504F535F 
 580      4400
 581 02ee 0000     		.align	2
 582              	.LC48:
 583 02f0 5049445F 		.ascii	"PID_POS_LIM\000"
 583      504F535F 
 583      4C494D00 
 584              		.align	2
 585              	.LC49:
 586 02fc 5049445F 		.ascii	"PID_POS_AWU\000"
 586      504F535F 
 586      41575500 
 587              		.align	2
 588              	.LC50:
 589 0308 5049445F 		.ascii	"PID_POS_Z_P\000"
 589      504F535F 
 589      5A5F5000 
 590              		.align	2
 591              	.LC51:
 592 0314 5049445F 		.ascii	"PID_POS_Z_I\000"
 592      504F535F 
 592      5A5F4900 
 593              		.align	2
 594              	.LC52:
 595 0320 5049445F 		.ascii	"PID_POS_Z_D\000"
 595      504F535F 
 595      5A5F4400 
 596              		.align	2
 597              	.LC53:
 598 032c 5049445F 		.ascii	"PID_POS_Z_LIM\000"
 598      504F535F 
 598      5A5F4C49 
 598      4D00
 599 033a 0000     		.align	2
 600              	.LC54:
 601 033c 5049445F 		.ascii	"PID_POS_Z_AWU\000"
 601      504F535F 
 601      5A5F4157 
 601      5500
 602 034a 0000     		.align	2
 603              	.LC55:
 604 034c 43414C5F 		.ascii	"CAL_GYRO_X\000"
 604      4759524F 
 604      5F5800
 605 0357 00       		.align	2
 606              	.LC56:
 607 0358 43414C5F 		.ascii	"CAL_GYRO_Y\000"
 607      4759524F 
 607      5F5900
 608 0363 00       		.align	2
 609              	.LC57:
 610 0364 43414C5F 		.ascii	"CAL_GYRO_Z\000"
 610      4759524F 
 610      5F5A00
 611 036f 00       		.align	2
 612              	.LC58:
 613 0370 43414C5F 		.ascii	"CAL_TEMP\000"
 613      54454D50 
 613      00
 614 0379 000000   		.align	2
 615              	.LC59:
 616 037c 43414C5F 		.ascii	"CAL_MAG_X\000"
 616      4D41475F 
 616      5800
 617 0386 0000     		.align	2
 618              	.LC60:
 619 0388 43414C5F 		.ascii	"CAL_MAG_Y\000"
 619      4D41475F 
 619      5900
 620 0392 0000     		.align	2
 621              	.LC61:
 622 0394 43414C5F 		.ascii	"CAL_MAG_Z\000"
 622      4D41475F 
 622      5A00
 623 039e 0000     		.align	2
 624              	.LC62:
 625 03a0 43414C5F 		.ascii	"CAL_FIT_GYRO_X\000"
 625      4649545F 
 625      4759524F 
 625      5F5800
 626 03af 00       		.align	2
 627              	.LC63:
 628 03b0 43414C5F 		.ascii	"CAL_FIT_GYRO_Y\000"
 628      4649545F 
 628      4759524F 
 628      5F5900
 629 03bf 00       		.align	2
 630              	.LC64:
 631 03c0 43414C5F 		.ascii	"CAL_FIT_GYRO_Z\000"
 631      4649545F 
 631      4759524F 
 631      5F5A00
 632 03cf 00       		.align	2
 633              	.LC65:
 634 03d0 43414C5F 		.ascii	"CAL_FIT_ACTIVE\000"
 634      4649545F 
 634      41435449 
 634      564500
 635 03df 00       		.align	2
 636              	.LC66:
 637 03e0 43414C5F 		.ascii	"CAL_PRES_DIFF\000"
 637      50524553 
 637      5F444946 
 637      4600
 638 03ee 0000     		.align	2
 639              	.LC67:
 640 03f0 43414C5F 		.ascii	"CAL_ACC_X\000"
 640      4143435F 
 640      5800
 641 03fa 0000     		.align	2
 642              	.LC68:
 643 03fc 43414C5F 		.ascii	"CAL_ACC_Y\000"
 643      4143435F 
 643      5900
 644 0406 0000     		.align	2
 645              	.LC69:
 646 0408 43414C5F 		.ascii	"CAL_ACC_Z\000"
 646      4143435F 
 646      5A00
 647 0412 0000     		.align	2
 648              	.LC70:
 649 0414 4143435F 		.ascii	"ACC_NAV_OFFS_X\000"
 649      4E41565F 
 649      4F464653 
 649      5F5800
 650 0423 00       		.align	2
 651              	.LC71:
 652 0424 4143435F 		.ascii	"ACC_NAV_OFFS_Y\000"
 652      4E41565F 
 652      4F464653 
 652      5F5900
 653 0433 00       		.align	2
 654              	.LC72:
 655 0434 4143435F 		.ascii	"ACC_NAV_OFFS_Z\000"
 655      4E41565F 
 655      4F464653 
 655      5F5A00
 656 0443 00       		.align	2
 657              	.LC73:
 658 0444 56454C5F 		.ascii	"VEL_OFFSET_X\000"
 658      4F464653 
 658      45545F58 
 658      00
 659 0451 000000   		.align	2
 660              	.LC74:
 661 0454 56454C5F 		.ascii	"VEL_OFFSET_Y\000"
 661      4F464653 
 661      45545F59 
 661      00
 662 0461 000000   		.align	2
 663              	.LC75:
 664 0464 56454C5F 		.ascii	"VEL_OFFSET_Z\000"
 664      4F464653 
 664      45545F5A 
 664      00
 665 0471 000000   		.align	2
 666              	.LC76:
 667 0474 56454C5F 		.ascii	"VEL_DAMP\000"
 667      44414D50 
 667      00
 668 047d 000000   		.align	2
 669              	.LC77:
 670 0480 4154545F 		.ascii	"ATT_KAL_KACC\000"
 670      4B414C5F 
 670      4B414343 
 670      00
 671 048d 000000   		.align	2
 672              	.LC78:
 673 0490 4154545F 		.ascii	"ATT_KAL_IYAW\000"
 673      4B414C5F 
 673      49594157 
 673      00
 674 049d 000000   		.align	2
 675              	.LC79:
 676 04a0 4154545F 		.ascii	"ATT_OFFSET_X\000"
 676      4F464653 
 676      45545F58 
 676      00
 677 04ad 000000   		.align	2
 678              	.LC80:
 679 04b0 4154545F 		.ascii	"ATT_OFFSET_Y\000"
 679      4F464653 
 679      45545F59 
 679      00
 680 04bd 000000   		.align	2
 681              	.LC81:
 682 04c0 4154545F 		.ascii	"ATT_OFFSET_Z\000"
 682      4F464653 
 682      45545F5A 
 682      00
 683 04cd 000000   		.align	2
 684              	.LC82:
 685 04d0 53454E44 		.ascii	"SEND_DEBUGCHAN\000"
 685      5F444542 
 685      55474348 
 685      414E00
 686 04df 00       		.align	2
 687              	.LC83:
 688 04e0 534C4F54 		.ascii	"SLOT_ATTITUDE\000"
 688      5F415454 
 688      49545544 
 688      4500
 689 04ee 0000     		.align	2
 690              	.LC84:
 691 04f0 534C4F54 		.ascii	"SLOT_RAW_IMU\000"
 691      5F524157 
 691      5F494D55 
 691      00
 692 04fd 000000   		.align	2
 693              	.LC85:
 694 0500 534C4F54 		.ascii	"SLOT_RC\000"
 694      5F524300 
 695              		.align	2
 696              	.LC86:
 697 0508 534C4F54 		.ascii	"SLOT_CONTROL\000"
 697      5F434F4E 
 697      54524F4C 
 697      00
 698 0515 000000   		.align	2
 699              	.LC87:
 700 0518 44454255 		.ascii	"DEBUG_1\000"
 700      475F3100 
 701              		.align	2
 702              	.LC88:
 703 0520 44454255 		.ascii	"DEBUG_2\000"
 703      475F3200 
 704              		.align	2
 705              	.LC89:
 706 0528 44454255 		.ascii	"DEBUG_3\000"
 706      475F3300 
 707              		.align	2
 708              	.LC90:
 709 0530 44454255 		.ascii	"DEBUG_4\000"
 709      475F3400 
 710              		.align	2
 711              	.LC91:
 712 0538 44454255 		.ascii	"DEBUG_5\000"
 712      475F3500 
 713              		.align	2
 714              	.LC92:
 715 0540 44454255 		.ascii	"DEBUG_6\000"
 715      475F3600 
 716              		.align	2
 717              	.LC93:
 718 0548 4D49585F 		.ascii	"MIX_REMOTE\000"
 718      52454D4F 
 718      544500
 719 0553 00       		.align	2
 720              	.LC94:
 721 0554 4D49585F 		.ascii	"MIX_POSITION\000"
 721      504F5349 
 721      54494F4E 
 721      00
 722 0561 000000   		.align	2
 723              	.LC95:
 724 0564 4D49585F 		.ascii	"MIX_Z_POSITION\000"
 724      5A5F504F 
 724      53495449 
 724      4F4E00
 725 0573 00       		.align	2
 726              	.LC96:
 727 0574 4D49585F 		.ascii	"MIX_POS_YAW\000"
 727      504F535F 
 727      59415700 
 728              		.align	2
 729              	.LC97:
 730 0580 4D49585F 		.ascii	"MIX_OFFSET\000"
 730      4F464653 
 730      455400
 731 058b 00       		.align	2
 732              	.LC98:
 733 058c 5649535F 		.ascii	"VIS_YAWCORR\000"
 733      59415743 
 733      4F525200 
 734              		.align	2
 735              	.LC99:
 736 0598 5649535F 		.ascii	"VIS_OUTL_TRESH\000"
 736      4F55544C 
 736      5F545245 
 736      534800
 737 05a7 00       		.align	2
 738              	.LC100:
 739 05a8 4750535F 		.ascii	"GPS_MODE\000"
 739      4D4F4445 
 739      00
 740 05b1 000000   		.align	2
 741              	.LC101:
 742 05b4 43414D5F 		.ascii	"CAM_ANG_X_OFF\000"
 742      414E475F 
 742      585F4F46 
 742      4600
 743 05c2 0000     		.align	2
 744              	.LC102:
 745 05c4 43414D5F 		.ascii	"CAM_ANG_X_FAC\000"
 745      414E475F 
 745      585F4641 
 745      4300
 746 05d2 0000     		.align	2
 747              	.LC103:
 748 05d4 43414D5F 		.ascii	"CAM_ANG_Y_OFF\000"
 748      414E475F 
 748      595F4F46 
 748      4600
 749 05e2 0000     		.align	2
 750              	.LC104:
 751 05e4 43414D5F 		.ascii	"CAM_ANG_Y_FAC\000"
 751      414E475F 
 751      595F4641 
 751      4300
 752 05f2 0000     		.align	2
 753              	.LC105:
 754 05f4 5359535F 		.ascii	"SYS_IMU_RESET\000"
 754      494D555F 
 754      52455345 
 754      5400
 755 0602 0000     		.align	2
 756              	.LC106:
 757 0604 63686563 		.ascii	"check true\000"
 757      6B207472 
 757      756500
 758 060f 00       		.align	2
 759              	.LC107:
 760 0610 63686563 		.ascii	"check false\000"
 760      6B206661 
 760      6C736500 
 761              		.text
 762              		.align	2
 763              		.global	handle_eeprom_write_request
 765              	handle_eeprom_write_request:
 766              		@ Function supports interworking.
 767              		@ args = 0, pretend = 0, frame = 0
 768              		@ frame_needed = 0, uses_anonymous_args = 0
 769 04cc F04F2DE9 		stmfd	sp!, {r4, r5, r6, r7, r8, r9, sl, fp, lr}
 770 04d0 04BA9FE5 		ldr	fp, .L92
 771 04d4 5C319BE5 		ldr	r3, [fp, #348]
 772 04d8 030053E3 		cmp	r3, #3
 773 04dc 0100000A 		beq	.L90
 774              	.L89:
 775 04e0 F04FBDE8 		ldmfd	sp!, {r4, r5, r6, r7, r8, r9, sl, fp, lr}
 776 04e4 1EFF2FE1 		bx	lr
 777              	.L90:
 778 04e8 64029BE5 		ldr	r0, [fp, #612]	@ float
 779 04ec FEFFFFEB 		bl	__fixunssfsi
 780 04f0 FF0000E2 		and	r0, r0, #255
 781 04f4 020040E2 		sub	r0, r0, #2
 782 04f8 040050E3 		cmp	r0, #4
 783 04fc 00F19F97 		ldrls	pc, [pc, r0, asl #2]
 784 0500 F6FFFFEA 		b	.L89
 785              		.p2align 2
 786              	.L86:
 787 0504 18050000 		.word	.L81
 788 0508 30050000 		.word	.L82
 789 050c 48050000 		.word	.L83
 790 0510 A00E0000 		.word	.L84
 791 0514 C00E0000 		.word	.L85
 792              	.L81:
 793 0518 C0099FE5 		ldr	r0, .L92+4
 794 051c FEFFFFEB 		bl	debug_message_buffer
 795 0520 FEFFFFEB 		bl	param_write_all
 796 0524 0030A0E3 		mov	r3, #0
 797 0528 64328BE5 		str	r3, [fp, #612]	@ float
 798 052c EBFFFFEA 		b	.L89
 799              	.L82:
 800 0530 FEFFFFEB 		bl	param_read_all
 801 0534 A8099FE5 		ldr	r0, .L92+8
 802 0538 FEFFFFEB 		bl	debug_message_buffer
 803 053c 0030A0E3 		mov	r3, #0
 804 0540 64328BE5 		str	r3, [fp, #612]	@ float
 805 0544 E5FFFFEA 		b	.L89
 806              	.L83:
 807 0548 0050A0E3 		mov	r5, #0
 808 054c 64528BE5 		str	r5, [fp, #612]	@ float
 809 0550 90099FE5 		ldr	r0, .L92+12
 810 0554 FEFFFFEB 		bl	debug_message_buffer
 811 0558 4234A0E3 		mov	r3, #1107296256
 812 055c 0A3783E2 		add	r3, r3, #2621440
 813 0560 54328BE5 		str	r3, [fp, #596]	@ float
 814 0564 80199FE5 		ldr	r1, .L92+16
 815 0568 0720A0E3 		mov	r2, #7
 816 056c 7C099FE5 		ldr	r0, .L92+20
 817 0570 FEFFFFEB 		bl	memcpy
 818 0574 4334A0E3 		mov	r3, #1124073472
 819 0578 123783E2 		add	r3, r3, #4718592
 820 057c 58328BE5 		str	r3, [fp, #600]	@ float
 821 0580 6C199FE5 		ldr	r1, .L92+24
 822 0584 0C20A0E3 		mov	r2, #12
 823 0588 68099FE5 		ldr	r0, .L92+28
 824 058c FEFFFFEB 		bl	memcpy
 825 0590 64199FE5 		ldr	r1, .L92+32
 826 0594 0920A0E3 		mov	r2, #9
 827 0598 5C528BE5 		str	r5, [fp, #604]	@ float
 828 059c 5C099FE5 		ldr	r0, .L92+36
 829 05a0 FEFFFFEB 		bl	memcpy
 830 05a4 1133A0E3 		mov	r3, #1140850688
 831 05a8 FA3883E2 		add	r3, r3, #16384000
 832 05ac 0171A0E3 		mov	r7, #1073741824
 833 05b0 0A7687E2 		add	r7, r7, #10485760
 834 05b4 60328BE5 		str	r3, [fp, #608]	@ float
 835 05b8 44199FE5 		ldr	r1, .L92+40
 836 05bc 0B20A0E3 		mov	r2, #11
 837 05c0 40099FE5 		ldr	r0, .L92+44
 838 05c4 4744A0E3 		mov	r4, #1191182336
 839 05c8 FEFFFFEB 		bl	memcpy
 840 05cc 614884E2 		add	r4, r4, #6356992
 841 05d0 34199FE5 		ldr	r1, .L92+48
 842 05d4 0F20A0E3 		mov	r2, #15
 843 05d8 A8738BE5 		str	r7, [fp, #936]	@ float
 844 05dc 2C099FE5 		ldr	r0, .L92+52
 845 05e0 FEFFFFEB 		bl	memcpy
 846 05e4 68428BE5 		str	r4, [fp, #616]	@ float
 847 05e8 24199FE5 		ldr	r1, .L92+56
 848 05ec 0C20A0E3 		mov	r2, #12
 849 05f0 20099FE5 		ldr	r0, .L92+60
 850 05f4 FEFFFFEB 		bl	memcpy
 851 05f8 6C428BE5 		str	r4, [fp, #620]	@ float
 852 05fc 18199FE5 		ldr	r1, .L92+64
 853 0600 0C20A0E3 		mov	r2, #12
 854 0604 14099FE5 		ldr	r0, .L92+68
 855 0608 FEFFFFEB 		bl	memcpy
 856 060c 0131A0E3 		mov	r3, #1073741824
 857 0610 0E3683E2 		add	r3, r3, #14680064
 858 0614 AC338BE5 		str	r3, [fp, #940]	@ float
 859 0618 04199FE5 		ldr	r1, .L92+72
 860 061c 0E20A0E3 		mov	r2, #14
 861 0620 00099FE5 		ldr	r0, .L92+76
 862 0624 FEFFFFEB 		bl	memcpy
 863 0628 FC189FE5 		ldr	r1, .L92+80
 864 062c 0E20A0E3 		mov	r2, #14
 865 0630 B0738BE5 		str	r7, [fp, #944]	@ float
 866 0634 F4089FE5 		ldr	r0, .L92+84
 867 0638 FEFFFFEB 		bl	memcpy
 868 063c 0131A0E3 		mov	r3, #1073741824
 869 0640 033583E2 		add	r3, r3, #12582912
 870 0644 B4338BE5 		str	r3, [fp, #948]	@ float
 871 0648 E4189FE5 		ldr	r1, .L92+88
 872 064c 0E20A0E3 		mov	r2, #14
 873 0650 E0089FE5 		ldr	r0, .L92+92
 874 0654 FEFFFFEB 		bl	memcpy
 875 0658 0181A0E3 		mov	r8, #1073741824
 876 065c 4134A0E3 		mov	r3, #1090519040
 877 0660 018588E2 		add	r8, r8, #4194304
 878 0664 B8338BE5 		str	r3, [fp, #952]	@ float
 879 0668 CC189FE5 		ldr	r1, .L92+96
 880 066c 0E20A0E3 		mov	r2, #14
 881 0670 C8089FE5 		ldr	r0, .L92+100
 882 0674 FEFFFFEB 		bl	memcpy
 883 0678 C4189FE5 		ldr	r1, .L92+104
 884 067c 0F20A0E3 		mov	r2, #15
 885 0680 BC838BE5 		str	r8, [fp, #956]	@ float
 886 0684 BC089FE5 		ldr	r0, .L92+108
 887 0688 FEFFFFEB 		bl	memcpy
 888 068c 0131A0E3 		mov	r3, #1073741824
 889 0690 023583E2 		add	r3, r3, #8388608
 890 0694 C0338BE5 		str	r3, [fp, #960]	@ float
 891 0698 0191A0E3 		mov	r9, #1073741824
 892 069c A8189FE5 		ldr	r1, .L92+112
 893 06a0 0C20A0E3 		mov	r2, #12
 894 06a4 A4089FE5 		ldr	r0, .L92+116
 895 06a8 FEFFFFEB 		bl	memcpy
 896 06ac A0189FE5 		ldr	r1, .L92+120
 897 06b0 0D20A0E3 		mov	r2, #13
 898 06b4 C4938BE5 		str	r9, [fp, #964]	@ float
 899 06b8 98089FE5 		ldr	r0, .L92+124
 900 06bc FE65A0E3 		mov	r6, #1065353216
 901 06c0 FEFFFFEB 		bl	memcpy
 902 06c4 90189FE5 		ldr	r1, .L92+128
 903 06c8 0D20A0E3 		mov	r2, #13
 904 06cc 84528BE5 		str	r5, [fp, #644]	@ float
 905 06d0 88089FE5 		ldr	r0, .L92+132
 906 06d4 FEFFFFEB 		bl	memcpy
 907 06d8 84189FE5 		ldr	r1, .L92+136
 908 06dc 0D20A0E3 		mov	r2, #13
 909 06e0 C8638BE5 		str	r6, [fp, #968]	@ float
 910 06e4 7C089FE5 		ldr	r0, .L92+140
 911 06e8 FEFFFFEB 		bl	memcpy
 912 06ec 4734A0E3 		mov	r3, #1191182336
 913 06f0 CA3A83E2 		add	r3, r3, #827392
 914 06f4 D0338BE5 		str	r3, [fp, #976]	@ float
 915 06f8 6C189FE5 		ldr	r1, .L92+144
 916 06fc 0D20A0E3 		mov	r2, #13
 917 0700 68089FE5 		ldr	r0, .L92+148
 918 0704 FEFFFFEB 		bl	memcpy
 919 0708 1133A0E3 		mov	r3, #1140850688
 920 070c 7A3883E2 		add	r3, r3, #7995392
 921 0710 D4338BE5 		str	r3, [fp, #980]	@ float
 922 0714 58189FE5 		ldr	r1, .L92+152
 923 0718 0820A0E3 		mov	r2, #8
 924 071c 54089FE5 		ldr	r0, .L92+156
 925 0720 FEFFFFEB 		bl	memcpy
 926 0724 50189FE5 		ldr	r1, .L92+160
 927 0728 0E20A0E3 		mov	r2, #14
 928 072c EC528BE5 		str	r5, [fp, #748]	@ float
 929 0730 48089FE5 		ldr	r0, .L92+164
 930 0734 FEFFFFEB 		bl	memcpy
 931 0738 4934A0E3 		mov	r3, #1224736768
 932 073c 3D3783E2 		add	r3, r3, #15990784
 933 0740 093B83E2 		add	r3, r3, #9216
 934 0744 F0328BE5 		str	r3, [fp, #752]	@ float
 935 0748 34189FE5 		ldr	r1, .L92+168
 936 074c 0C20A0E3 		mov	r2, #12
 937 0750 30089FE5 		ldr	r0, .L92+172
 938 0754 FEFFFFEB 		bl	memcpy
 939 0758 73C8E0E3 		mvn	ip, #7536640
 940 075c B338E0E3 		mvn	r3, #11730944
 941 0760 33CC4CE2 		sub	ip, ip, #13056
 942 0764 333C43E2 		sub	r3, r3, #13056
 943 0768 CBC14CE2 		sub	ip, ip, #-1073741774
 944 076c C93143E2 		sub	r3, r3, #1073741874
 945 0770 F8C28BE5 		str	ip, [fp, #760]	@ float
 946 0774 F4C28BE5 		str	ip, [fp, #756]	@ float
 947 0778 FC328BE5 		str	r3, [fp, #764]	@ float
 948 077c 08189FE5 		ldr	r1, .L92+176
 949 0780 0920A0E3 		mov	r2, #9
 950 0784 00538BE5 		str	r5, [fp, #768]	@ float
 951 0788 04538BE5 		str	r5, [fp, #772]	@ float
 952 078c EC508BE5 		str	r5, [fp, #236]	@ float
 953 0790 F0508BE5 		str	r5, [fp, #240]	@ float
 954 0794 F4508BE5 		str	r5, [fp, #244]	@ float
 955 0798 F0079FE5 		ldr	r0, .L92+180
 956 079c FEFFFFEB 		bl	memcpy
 957 07a0 EC179FE5 		ldr	r1, .L92+184
 958 07a4 0920A0E3 		mov	r2, #9
 959 07a8 E8079FE5 		ldr	r0, .L92+188
 960 07ac FEFFFFEB 		bl	memcpy
 961 07b0 E4179FE5 		ldr	r1, .L92+192
 962 07b4 0920A0E3 		mov	r2, #9
 963 07b8 E0079FE5 		ldr	r0, .L92+196
 964 07bc FEFFFFEB 		bl	memcpy
 965 07c0 DC179FE5 		ldr	r1, .L92+200
 966 07c4 0B20A0E3 		mov	r2, #11
 967 07c8 D8079FE5 		ldr	r0, .L92+204
 968 07cc FEFFFFEB 		bl	memcpy
 969 07d0 D4179FE5 		ldr	r1, .L92+208
 970 07d4 0E20A0E3 		mov	r2, #14
 971 07d8 D0079FE5 		ldr	r0, .L92+212
 972 07dc FEFFFFEB 		bl	memcpy
 973 07e0 4234A0E3 		mov	r3, #1107296256
 974 07e4 2D3783E2 		add	r3, r3, #11796480
 975 07e8 88328BE5 		str	r3, [fp, #648]	@ float
 976 07ec C0179FE5 		ldr	r1, .L92+216
 977 07f0 0A20A0E3 		mov	r2, #10
 978 07f4 BC079FE5 		ldr	r0, .L92+220
 979 07f8 FEFFFFEB 		bl	memcpy
 980 07fc 4234A0E3 		mov	r3, #1107296256
 981 0800 073683E2 		add	r3, r3, #7340032
 982 0804 8C328BE5 		str	r3, [fp, #652]	@ float
 983 0808 AC179FE5 		ldr	r1, .L92+224
 984 080c 0A20A0E3 		mov	r2, #10
 985 0810 A8079FE5 		ldr	r0, .L92+228
 986 0814 FEFFFFEB 		bl	memcpy
 987 0818 4134A0E3 		mov	r3, #1090519040
 988 081c 0F3683E2 		add	r3, r3, #15728640
 989 0820 90328BE5 		str	r3, [fp, #656]	@ float
 990 0824 98179FE5 		ldr	r1, .L92+232
 991 0828 0A20A0E3 		mov	r2, #10
 992 082c 94079FE5 		ldr	r0, .L92+236
 993 0830 FEFFFFEB 		bl	memcpy
 994 0834 4234A0E3 		mov	r3, #1107296256
 995 0838 323783E2 		add	r3, r3, #13107200
 996 083c 88479FE5 		ldr	r4, .L92+240
 997 0840 94328BE5 		str	r3, [fp, #660]	@ float
 998 0844 84179FE5 		ldr	r1, .L92+244
 999 0848 0C20A0E3 		mov	r2, #12
 1000 084c 80079FE5 		ldr	r0, .L92+248
 1001 0850 FEFFFFEB 		bl	memcpy
 1002 0854 98428BE5 		str	r4, [fp, #664]	@ float
 1003 0858 78179FE5 		ldr	r1, .L92+252
 1004 085c 0C20A0E3 		mov	r2, #12
 1005 0860 74079FE5 		ldr	r0, .L92+256
 1006 0864 FEFFFFEB 		bl	memcpy
 1007 0868 70179FE5 		ldr	r1, .L92+260
 1008 086c 0D20A0E3 		mov	r2, #13
 1009 0870 C4728BE5 		str	r7, [fp, #708]	@ float
 1010 0874 68079FE5 		ldr	r0, .L92+264
 1011 0878 FEFFFFEB 		bl	memcpy
 1012 087c 64379FE5 		ldr	r3, .L92+268
 1013 0880 64179FE5 		ldr	r1, .L92+272
 1014 0884 C8328BE5 		str	r3, [fp, #712]	@ float
 1015 0888 0D20A0E3 		mov	r2, #13
 1016 088c 5C079FE5 		ldr	r0, .L92+276
 1017 0890 FEFFFFEB 		bl	memcpy
 1018 0894 58179FE5 		ldr	r1, .L92+280
 1019 0898 0D20A0E3 		mov	r2, #13
 1020 089c CC628BE5 		str	r6, [fp, #716]	@ float
 1021 08a0 50079FE5 		ldr	r0, .L92+284
 1022 08a4 FEFFFFEB 		bl	memcpy
 1023 08a8 4C179FE5 		ldr	r1, .L92+288
 1024 08ac 0F20A0E3 		mov	r2, #15
 1025 08b0 D0828BE5 		str	r8, [fp, #720]	@ float
 1026 08b4 44079FE5 		ldr	r0, .L92+292
 1027 08b8 FEFFFFEB 		bl	memcpy
 1028 08bc 40179FE5 		ldr	r1, .L92+296
 1029 08c0 0F20A0E3 		mov	r2, #15
 1030 08c4 D4628BE5 		str	r6, [fp, #724]	@ float
 1031 08c8 38079FE5 		ldr	r0, .L92+300
 1032 08cc FEFFFFEB 		bl	memcpy
 1033 08d0 4134A0E3 		mov	r3, #1090519040
 1034 08d4 073683E2 		add	r3, r3, #7340032
 1035 08d8 D8328BE5 		str	r3, [fp, #728]	@ float
 1036 08dc 28179FE5 		ldr	r1, .L92+304
 1037 08e0 0F20A0E3 		mov	r2, #15
 1038 08e4 24079FE5 		ldr	r0, .L92+308
 1039 08e8 FEFFFFEB 		bl	memcpy
 1040 08ec 20179FE5 		ldr	r1, .L92+312
 1041 08f0 0F20A0E3 		mov	r2, #15
 1042 08f4 DC728BE5 		str	r7, [fp, #732]	@ float
 1043 08f8 18079FE5 		ldr	r0, .L92+316
 1044 08fc FEFFFFEB 		bl	memcpy
 1045 0900 14179FE5 		ldr	r1, .L92+320
 1046 0904 0F20A0E3 		mov	r2, #15
 1047 0908 E0528BE5 		str	r5, [fp, #736]	@ float
 1048 090c 0C079FE5 		ldr	r0, .L92+324
 1049 0910 FEFFFFEB 		bl	memcpy
 1050 0914 4234A0E3 		mov	r3, #1107296256
 1051 0918 123783E2 		add	r3, r3, #4718592
 1052 091c E4328BE5 		str	r3, [fp, #740]	@ float
 1053 0920 FC169FE5 		ldr	r1, .L92+328
 1054 0924 0F20A0E3 		mov	r2, #15
 1055 0928 F8069FE5 		ldr	r0, .L92+332
 1056 092c FEFFFFEB 		bl	memcpy
 1057 0930 F4169FE5 		ldr	r1, .L92+336
 1058 0934 0F20A0E3 		mov	r2, #15
 1059 0938 E8628BE5 		str	r6, [fp, #744]	@ float
 1060 093c EC069FE5 		ldr	r0, .L92+340
 1061 0940 FEFFFFEB 		bl	memcpy
 1062 0944 6639E0E3 		mvn	r3, #1671168
 1063 0948 663D43E2 		sub	r3, r3, #6528
 1064 094c 673143E2 		sub	r3, r3, #-1073741799
 1065 0950 DCA69FE5 		ldr	sl, .L92+344
 1066 0954 9C328BE5 		str	r3, [fp, #668]	@ float
 1067 0958 D8169FE5 		ldr	r1, .L92+348
 1068 095c 0A20A0E3 		mov	r2, #10
 1069 0960 D4069FE5 		ldr	r0, .L92+352
 1070 0964 FEFFFFEB 		bl	memcpy
 1071 0968 D0169FE5 		ldr	r1, .L92+356
 1072 096c 0A20A0E3 		mov	r2, #10
 1073 0970 A0A28BE5 		str	sl, [fp, #672]	@ float
 1074 0974 C8069FE5 		ldr	r0, .L92+360
 1075 0978 FEFFFFEB 		bl	memcpy
 1076 097c C4169FE5 		ldr	r1, .L92+364
 1077 0980 0A20A0E3 		mov	r2, #10
 1078 0984 A4928BE5 		str	r9, [fp, #676]	@ float
 1079 0988 BC069FE5 		ldr	r0, .L92+368
 1080 098c FEFFFFEB 		bl	memcpy
 1081 0990 B8169FE5 		ldr	r1, .L92+372
 1082 0994 0C20A0E3 		mov	r2, #12
 1083 0998 A8A28BE5 		str	sl, [fp, #680]	@ float
 1084 099c B0069FE5 		ldr	r0, .L92+376
 1085 09a0 FEFFFFEB 		bl	memcpy
 1086 09a4 AC169FE5 		ldr	r1, .L92+380
 1087 09a8 0C20A0E3 		mov	r2, #12
 1088 09ac AC728BE5 		str	r7, [fp, #684]	@ float
 1089 09b0 A4069FE5 		ldr	r0, .L92+384
 1090 09b4 FEFFFFEB 		bl	memcpy
 1091 09b8 3F34A0E3 		mov	r3, #1056964608
 1092 09bc B0328BE5 		str	r3, [fp, #688]	@ float
 1093 09c0 98169FE5 		ldr	r1, .L92+388
 1094 09c4 0C20A0E3 		mov	r2, #12
 1095 09c8 94069FE5 		ldr	r0, .L92+392
 1096 09cc FEFFFFEB 		bl	memcpy
 1097 09d0 B4428BE5 		str	r4, [fp, #692]	@ float
 1098 09d4 8C169FE5 		ldr	r1, .L92+396
 1099 09d8 0C20A0E3 		mov	r2, #12
 1100 09dc 88069FE5 		ldr	r0, .L92+400
 1101 09e0 FEFFFFEB 		bl	memcpy
 1102 09e4 84169FE5 		ldr	r1, .L92+404
 1103 09e8 0C20A0E3 		mov	r2, #12
 1104 09ec B8A28BE5 		str	sl, [fp, #696]	@ float
 1105 09f0 7C069FE5 		ldr	r0, .L92+408
 1106 09f4 FEFFFFEB 		bl	memcpy
 1107 09f8 BC428BE5 		str	r4, [fp, #700]	@ float
 1108 09fc 74169FE5 		ldr	r1, .L92+412
 1109 0a00 0E20A0E3 		mov	r2, #14
 1110 0a04 70069FE5 		ldr	r0, .L92+416
 1111 0a08 FEFFFFEB 		bl	memcpy
 1112 0a0c 6C169FE5 		ldr	r1, .L92+420
 1113 0a10 0E20A0E3 		mov	r2, #14
 1114 0a14 C0828BE5 		str	r8, [fp, #704]	@ float
 1115 0a18 64069FE5 		ldr	r0, .L92+424
 1116 0a1c FEFFFFEB 		bl	memcpy
 1117 0a20 4734A0E3 		mov	r3, #1191182336
 1118 0a24 5E3943E2 		sub	r3, r3, #1540096
 1119 0a28 2C338BE5 		str	r3, [fp, #812]	@ float
 1120 0a2c 54169FE5 		ldr	r1, .L92+428
 1121 0a30 0B20A0E3 		mov	r2, #11
 1122 0a34 50069FE5 		ldr	r0, .L92+432
 1123 0a38 FEFFFFEB 		bl	memcpy
 1124 0a3c 4634A0E3 		mov	r3, #1174405120
 1125 0a40 E93883E2 		add	r3, r3, #15269888
 1126 0a44 123B83E2 		add	r3, r3, #18432
 1127 0a48 30338BE5 		str	r3, [fp, #816]	@ float
 1128 0a4c 3C169FE5 		ldr	r1, .L92+436
 1129 0a50 0B20A0E3 		mov	r2, #11
 1130 0a54 38069FE5 		ldr	r0, .L92+440
 1131 0a58 FEFFFFEB 		bl	memcpy
 1132 0a5c 4634A0E3 		mov	r3, #1174405120
 1133 0a60 E93883E2 		add	r3, r3, #15269888
 1134 0a64 6A3C83E2 		add	r3, r3, #27136
 1135 0a68 34338BE5 		str	r3, [fp, #820]	@ float
 1136 0a6c 24169FE5 		ldr	r1, .L92+444
 1137 0a70 0B20A0E3 		mov	r2, #11
 1138 0a74 20069FE5 		ldr	r0, .L92+448
 1139 0a78 FEFFFFEB 		bl	memcpy
 1140 0a7c 4234A0E3 		mov	r3, #1107296256
 1141 0a80 38338BE5 		str	r3, [fp, #824]	@ float
 1142 0a84 14169FE5 		ldr	r1, .L92+452
 1143 0a88 0920A0E3 		mov	r2, #9
 1144 0a8c 10069FE5 		ldr	r0, .L92+456
 1145 0a90 FEFFFFEB 		bl	memcpy
 1146 0a94 0C169FE5 		ldr	r1, .L92+460
 1147 0a98 0A20A0E3 		mov	r2, #10
 1148 0a9c 08069FE5 		ldr	r0, .L92+464
 1149 0aa0 FEFFFFEB 		bl	memcpy
 1150 0aa4 04169FE5 		ldr	r1, .L92+468
 1151 0aa8 0A20A0E3 		mov	r2, #10
 1152 0aac 4C538BE5 		str	r5, [fp, #844]	@ float
 1153 0ab0 FC059FE5 		ldr	r0, .L92+472
 1154 0ab4 FEFFFFEB 		bl	memcpy
 1155 0ab8 F8159FE5 		ldr	r1, .L92+476
 1156 0abc 0A20A0E3 		mov	r2, #10
 1157 0ac0 50538BE5 		str	r5, [fp, #848]	@ float
 1158 0ac4 F0059FE5 		ldr	r0, .L92+480
 1159 0ac8 FEFFFFEB 		bl	memcpy
 1160 0acc EC359FE5 		ldr	r3, .L92+484
 1161 0ad0 ECC59FE5 		ldr	ip, .L92+488
 1162 0ad4 3C338BE5 		str	r3, [fp, #828]	@ float
 1163 0ad8 E8359FE5 		ldr	r3, .L92+492
 1164 0adc 40C38BE5 		str	ip, [fp, #832]	@ float
 1165 0ae0 44338BE5 		str	r3, [fp, #836]	@ float
 1166 0ae4 E0159FE5 		ldr	r1, .L92+496
 1167 0ae8 0F20A0E3 		mov	r2, #15
 1168 0aec 54538BE5 		str	r5, [fp, #852]	@ float
 1169 0af0 48538BE5 		str	r5, [fp, #840]	@ float
 1170 0af4 D4059FE5 		ldr	r0, .L92+500
 1171 0af8 FEFFFFEB 		bl	memcpy
 1172 0afc D0159FE5 		ldr	r1, .L92+504
 1173 0b00 0F20A0E3 		mov	r2, #15
 1174 0b04 CC059FE5 		ldr	r0, .L92+508
 1175 0b08 FEFFFFEB 		bl	memcpy
 1176 0b0c C8159FE5 		ldr	r1, .L92+512
 1177 0b10 0F20A0E3 		mov	r2, #15
 1178 0b14 C4059FE5 		ldr	r0, .L92+516
 1179 0b18 FEFFFFEB 		bl	memcpy
 1180 0b1c C0159FE5 		ldr	r1, .L92+520
 1181 0b20 0F20A0E3 		mov	r2, #15
 1182 0b24 BC059FE5 		ldr	r0, .L92+524
 1183 0b28 FEFFFFEB 		bl	memcpy
 1184 0b2c 4634A0E3 		mov	r3, #1174405120
 1185 0b30 713983E2 		add	r3, r3, #1851392
 1186 0b34 58338BE5 		str	r3, [fp, #856]	@ float
 1187 0b38 AC159FE5 		ldr	r1, .L92+528
 1188 0b3c 0E20A0E3 		mov	r2, #14
 1189 0b40 A8059FE5 		ldr	r0, .L92+532
 1190 0b44 FEFFFFEB 		bl	memcpy
 1191 0b48 A4159FE5 		ldr	r1, .L92+536
 1192 0b4c 0A20A0E3 		mov	r2, #10
 1193 0b50 5C538BE5 		str	r5, [fp, #860]	@ float
 1194 0b54 9C059FE5 		ldr	r0, .L92+540
 1195 0b58 FEFFFFEB 		bl	memcpy
 1196 0b5c 98159FE5 		ldr	r1, .L92+544
 1197 0b60 0A20A0E3 		mov	r2, #10
 1198 0b64 60538BE5 		str	r5, [fp, #864]	@ float
 1199 0b68 90059FE5 		ldr	r0, .L92+548
 1200 0b6c FEFFFFEB 		bl	memcpy
 1201 0b70 8C159FE5 		ldr	r1, .L92+552
 1202 0b74 0A20A0E3 		mov	r2, #10
 1203 0b78 64538BE5 		str	r5, [fp, #868]	@ float
 1204 0b7c 84059FE5 		ldr	r0, .L92+556
 1205 0b80 FEFFFFEB 		bl	memcpy
 1206 0b84 80159FE5 		ldr	r1, .L92+560
 1207 0b88 0F20A0E3 		mov	r2, #15
 1208 0b8c 68538BE5 		str	r5, [fp, #872]	@ float
 1209 0b90 78059FE5 		ldr	r0, .L92+564
 1210 0b94 FEFFFFEB 		bl	memcpy
 1211 0b98 74159FE5 		ldr	r1, .L92+568
 1212 0b9c 0F20A0E3 		mov	r2, #15
 1213 0ba0 6C538BE5 		str	r5, [fp, #876]	@ float
 1214 0ba4 6C059FE5 		ldr	r0, .L92+572
 1215 0ba8 FEFFFFEB 		bl	memcpy
 1216 0bac 3133A0E3 		mov	r3, #-1006632960
 1217 0bb0 7A3883E2 		add	r3, r3, #7995392
 1218 0bb4 70338BE5 		str	r3, [fp, #880]	@ float
 1219 0bb8 5C159FE5 		ldr	r1, .L92+576
 1220 0bbc 0F20A0E3 		mov	r2, #15
 1221 0bc0 58059FE5 		ldr	r0, .L92+580
 1222 0bc4 FEFFFFEB 		bl	memcpy
 1223 0bc8 54159FE5 		ldr	r1, .L92+584
 1224 0bcc 0D20A0E3 		mov	r2, #13
 1225 0bd0 14538BE5 		str	r5, [fp, #788]	@ float
 1226 0bd4 4C059FE5 		ldr	r0, .L92+588
 1227 0bd8 FEFFFFEB 		bl	memcpy
 1228 0bdc 48159FE5 		ldr	r1, .L92+592
 1229 0be0 0D20A0E3 		mov	r2, #13
 1230 0be4 18538BE5 		str	r5, [fp, #792]	@ float
 1231 0be8 40059FE5 		ldr	r0, .L92+596
 1232 0bec FEFFFFEB 		bl	memcpy
 1233 0bf0 3C159FE5 		ldr	r1, .L92+600
 1234 0bf4 0D20A0E3 		mov	r2, #13
 1235 0bf8 1C538BE5 		str	r5, [fp, #796]	@ float
 1236 0bfc 34059FE5 		ldr	r0, .L92+604
 1237 0c00 FEFFFFEB 		bl	memcpy
 1238 0c04 30359FE5 		ldr	r3, .L92+608
 1239 0c08 30159FE5 		ldr	r1, .L92+612
 1240 0c0c 20338BE5 		str	r3, [fp, #800]	@ float
 1241 0c10 0920A0E3 		mov	r2, #9
 1242 0c14 28059FE5 		ldr	r0, .L92+616
 1243 0c18 FEFFFFEB 		bl	memcpy
 1244 0c1c ED35A0E3 		mov	r3, #994050048
 1245 0c20 613983E2 		add	r3, r3, #1589248
 1246 0c24 4D3E83E2 		add	r3, r3, #1232
 1247 0c28 24338BE5 		str	r3, [fp, #804]	@ float
 1248 0c2c 14159FE5 		ldr	r1, .L92+620
 1249 0c30 0D20A0E3 		mov	r2, #13
 1250 0c34 10059FE5 		ldr	r0, .L92+624
 1251 0c38 FEFFFFEB 		bl	memcpy
 1252 0c3c 0C159FE5 		ldr	r1, .L92+628
 1253 0c40 0D20A0E3 		mov	r2, #13
 1254 0c44 28638BE5 		str	r6, [fp, #808]	@ float
 1255 0c48 04059FE5 		ldr	r0, .L92+632
 1256 0c4c FEFFFFEB 		bl	memcpy
 1257 0c50 00159FE5 		ldr	r1, .L92+636
 1258 0c54 0D20A0E3 		mov	r2, #13
 1259 0c58 08538BE5 		str	r5, [fp, #776]	@ float
 1260 0c5c F8049FE5 		ldr	r0, .L92+640
 1261 0c60 FEFFFFEB 		bl	memcpy
 1262 0c64 F4149FE5 		ldr	r1, .L92+644
 1263 0c68 0D20A0E3 		mov	r2, #13
 1264 0c6c 0C538BE5 		str	r5, [fp, #780]	@ float
 1265 0c70 EC049FE5 		ldr	r0, .L92+648
 1266 0c74 FEFFFFEB 		bl	memcpy
 1267 0c78 A33DE0E3 		mvn	r3, #10432
 1268 0c7c D53143E2 		sub	r3, r3, #1073741877
 1269 0c80 973743E2 		sub	r3, r3, #39583744
 1270 0c84 10338BE5 		str	r3, [fp, #784]	@ float
 1271 0c88 D8149FE5 		ldr	r1, .L92+652
 1272 0c8c 0D20A0E3 		mov	r2, #13
 1273 0c90 D4049FE5 		ldr	r0, .L92+656
 1274 0c94 FEFFFFEB 		bl	memcpy
 1275 0c98 D0149FE5 		ldr	r1, .L92+660
 1276 0c9c 0F20A0E3 		mov	r2, #15
 1277 0ca0 7C538BE5 		str	r5, [fp, #892]	@ float
 1278 0ca4 C8049FE5 		ldr	r0, .L92+664
 1279 0ca8 FEFFFFEB 		bl	memcpy
 1280 0cac C4149FE5 		ldr	r1, .L92+668
 1281 0cb0 0E20A0E3 		mov	r2, #14
 1282 0cb4 A4538BE5 		str	r5, [fp, #932]	@ float
 1283 0cb8 80638BE5 		str	r6, [fp, #896]	@ float
 1284 0cbc 84538BE5 		str	r5, [fp, #900]	@ float
 1285 0cc0 88538BE5 		str	r5, [fp, #904]	@ float
 1286 0cc4 8C538BE5 		str	r5, [fp, #908]	@ float
 1287 0cc8 90538BE5 		str	r5, [fp, #912]	@ float
 1288 0ccc 94538BE5 		str	r5, [fp, #916]	@ float
 1289 0cd0 98538BE5 		str	r5, [fp, #920]	@ float
 1290 0cd4 9C538BE5 		str	r5, [fp, #924]	@ float
 1291 0cd8 A0538BE5 		str	r5, [fp, #928]	@ float
 1292 0cdc 98049FE5 		ldr	r0, .L92+672
 1293 0ce0 98449FE5 		ldr	r4, .L92+676
 1294 0ce4 FEFFFFEB 		bl	memcpy
 1295 0ce8 94149FE5 		ldr	r1, .L92+680
 1296 0cec 0D20A0E3 		mov	r2, #13
 1297 0cf0 90049FE5 		ldr	r0, .L92+684
 1298 0cf4 FEFFFFEB 		bl	memcpy
 1299 0cf8 8C149FE5 		ldr	r1, .L92+688
 1300 0cfc 0820A0E3 		mov	r2, #8
 1301 0d00 88049FE5 		ldr	r0, .L92+692
 1302 0d04 FEFFFFEB 		bl	memcpy
 1303 0d08 0400A0E1 		mov	r0, r4
 1304 0d0c 80149FE5 		ldr	r1, .L92+696
 1305 0d10 0D20A0E3 		mov	r2, #13
 1306 0d14 FEFFFFEB 		bl	memcpy
 1307 0d18 0F0084E2 		add	r0, r4, #15
 1308 0d1c 74149FE5 		ldr	r1, .L92+700
 1309 0d20 0820A0E3 		mov	r2, #8
 1310 0d24 FEFFFFEB 		bl	memcpy
 1311 0d28 1E0084E2 		add	r0, r4, #30
 1312 0d2c 68149FE5 		ldr	r1, .L92+704
 1313 0d30 0820A0E3 		mov	r2, #8
 1314 0d34 FEFFFFEB 		bl	memcpy
 1315 0d38 2D0084E2 		add	r0, r4, #45
 1316 0d3c 5C149FE5 		ldr	r1, .L92+708
 1317 0d40 0820A0E3 		mov	r2, #8
 1318 0d44 FEFFFFEB 		bl	memcpy
 1319 0d48 3C0084E2 		add	r0, r4, #60
 1320 0d4c 50149FE5 		ldr	r1, .L92+712
 1321 0d50 0820A0E3 		mov	r2, #8
 1322 0d54 FEFFFFEB 		bl	memcpy
 1323 0d58 4B0084E2 		add	r0, r4, #75
 1324 0d5c 44149FE5 		ldr	r1, .L92+716
 1325 0d60 0820A0E3 		mov	r2, #8
 1326 0d64 FEFFFFEB 		bl	memcpy
 1327 0d68 5A0084E2 		add	r0, r4, #90
 1328 0d6c 38149FE5 		ldr	r1, .L92+720
 1329 0d70 0820A0E3 		mov	r2, #8
 1330 0d74 FEFFFFEB 		bl	memcpy
 1331 0d78 420E44E2 		sub	r0, r4, #1056
 1332 0d7c 2C149FE5 		ldr	r1, .L92+724
 1333 0d80 0B20A0E3 		mov	r2, #11
 1334 0d84 0A6604E5 		str	r6, [r4, #-1546]	@ float
 1335 0d88 090040E2 		sub	r0, r0, #9
 1336 0d8c FEFFFFEB 		bl	memcpy
 1337 0d90 410E44E2 		sub	r0, r4, #1040
 1338 0d94 18149FE5 		ldr	r1, .L92+728
 1339 0d98 0D20A0E3 		mov	r2, #13
 1340 0d9c 065604E5 		str	r5, [r4, #-1542]	@ float
 1341 0da0 0A0040E2 		sub	r0, r0, #10
 1342 0da4 FEFFFFEB 		bl	memcpy
 1343 0da8 010B44E2 		sub	r0, r4, #1024
 1344 0dac 04149FE5 		ldr	r1, .L92+732
 1345 0db0 0F20A0E3 		mov	r2, #15
 1346 0db4 025604E5 		str	r5, [r4, #-1538]	@ float
 1347 0db8 0B0040E2 		sub	r0, r0, #11
 1348 0dbc FEFFFFEB 		bl	memcpy
 1349 0dc0 FF0F44E2 		sub	r0, r4, #1020
 1350 0dc4 F0139FE5 		ldr	r1, .L92+736
 1351 0dc8 0C20A0E3 		mov	r2, #12
 1352 0dcc FE6504E5 		str	r6, [r4, #-1534]	@ float
 1353 0dd0 FEFFFFEB 		bl	memcpy
 1354 0dd4 FB0F44E2 		sub	r0, r4, #1004
 1355 0dd8 E0139FE5 		ldr	r1, .L92+740
 1356 0ddc 0B20A0E3 		mov	r2, #11
 1357 0de0 FA6504E5 		str	r6, [r4, #-1530]	@ float
 1358 0de4 010040E2 		sub	r0, r0, #1
 1359 0de8 FEFFFFEB 		bl	memcpy
 1360 0dec 5A0044E2 		sub	r0, r4, #90
 1361 0df0 CC139FE5 		ldr	r1, .L92+744
 1362 0df4 0C20A0E3 		mov	r2, #12
 1363 0df8 065504E5 		str	r5, [r4, #-1286]	@ float
 1364 0dfc FEFFFFEB 		bl	memcpy
 1365 0e00 4B0044E2 		sub	r0, r4, #75
 1366 0e04 BC139FE5 		ldr	r1, .L92+748
 1367 0e08 0F20A0E3 		mov	r2, #15
 1368 0e0c 02A504E5 		str	sl, [r4, #-1282]	@ float
 1369 0e10 FEFFFFEB 		bl	memcpy
 1370 0e14 F00084E2 		add	r0, r4, #240
 1371 0e18 AC139FE5 		ldr	r1, .L92+752
 1372 0e1c 0920A0E3 		mov	r2, #9
 1373 0e20 FEFFFFEB 		bl	memcpy
 1374 0e24 470F84E2 		add	r0, r4, #284
 1375 0e28 A0139FE5 		ldr	r1, .L92+756
 1376 0e2c 0E20A0E3 		mov	r2, #14
 1377 0e30 AE5404E5 		str	r5, [r4, #-1198]	@ float
 1378 0e34 010080E2 		add	r0, r0, #1
 1379 0e38 FEFFFFEB 		bl	memcpy
 1380 0e3c 4B0F84E2 		add	r0, r4, #300
 1381 0e40 8C139FE5 		ldr	r1, .L92+760
 1382 0e44 0E20A0E3 		mov	r2, #14
 1383 0e48 FEFFFFEB 		bl	memcpy
 1384 0e4c 4E0F84E2 		add	r0, r4, #312
 1385 0e50 80139FE5 		ldr	r1, .L92+764
 1386 0e54 0E20A0E3 		mov	r2, #14
 1387 0e58 030080E2 		add	r0, r0, #3
 1388 0e5c FEFFFFEB 		bl	memcpy
 1389 0e60 520F84E2 		add	r0, r4, #328
 1390 0e64 70139FE5 		ldr	r1, .L92+768
 1391 0e68 0E20A0E3 		mov	r2, #14
 1392 0e6c 020080E2 		add	r0, r0, #2
 1393 0e70 FEFFFFEB 		bl	memcpy
 1394 0e74 450E44E2 		sub	r0, r4, #1104
 1395 0e78 60139FE5 		ldr	r1, .L92+772
 1396 0e7c 0E20A0E3 		mov	r2, #14
 1397 0e80 165604E5 		str	r5, [r4, #-1558]	@ float
 1398 0e84 A25404E5 		str	r5, [r4, #-1186]	@ float
 1399 0e88 9E5404E5 		str	r5, [r4, #-1182]	@ float
 1400 0e8c 9A5404E5 		str	r5, [r4, #-1178]	@ float
 1401 0e90 965404E5 		str	r5, [r4, #-1174]	@ float
 1402 0e94 060040E2 		sub	r0, r0, #6
 1403 0e98 FEFFFFEB 		bl	memcpy
 1404 0e9c 8FFDFFEA 		b	.L89
 1405              	.L84:
 1406 0ea0 0030A0E3 		mov	r3, #0
 1407 0ea4 64328BE5 		str	r3, [fp, #612]	@ float
 1408 0ea8 FEFFFFEB 		bl	param_size_check
 1409 0eac 000050E3 		cmp	r0, #0
 1410 0eb0 0600001A 		bne	.L91
 1411 0eb4 28039FE5 		ldr	r0, .L92+776
 1412 0eb8 FEFFFFEB 		bl	debug_message_buffer
 1413 0ebc 87FDFFEA 		b	.L89
 1414              	.L85:
 1415 0ec0 0030A0E3 		mov	r3, #0
 1416 0ec4 64328BE5 		str	r3, [fp, #612]	@ float
 1417 0ec8 FEFFFFEB 		bl	eeprom_check_start
 1418 0ecc 83FDFFEA 		b	.L89
 1419              	.L91:
 1420 0ed0 10039FE5 		ldr	r0, .L92+780
 1421 0ed4 FEFFFFEB 		bl	debug_message_buffer
 1422 0ed8 80FDFFEA 		b	.L89
 1423              	.L93:
 1424              		.align	2
 1425              	.L92:
 1426 0edc 00000000 		.word	global_data
 1427 0ee0 3C000000 		.word	.LC2
 1428 0ee4 5C000000 		.word	.LC3
 1429 0ee8 80000000 		.word	.LC4
 1430 0eec 9C000000 		.word	.LC5
 1431 0ef0 E8030000 		.word	global_data+1000
 1432 0ef4 A4000000 		.word	.LC6
 1433 0ef8 F7030000 		.word	global_data+1015
 1434 0efc B0000000 		.word	.LC7
 1435 0f00 06040000 		.word	global_data+1030
 1436 0f04 BC000000 		.word	.LC8
 1437 0f08 15040000 		.word	global_data+1045
 1438 0f0c C8000000 		.word	.LC9
 1439 0f10 E3080000 		.word	global_data+2275
 1440 0f14 D8000000 		.word	.LC10
 1441 0f18 33040000 		.word	global_data+1075
 1442 0f1c E4000000 		.word	.LC11
 1443 0f20 42040000 		.word	global_data+1090
 1444 0f24 F0000000 		.word	.LC12
 1445 0f28 F2080000 		.word	global_data+2290
 1446 0f2c 00010000 		.word	.LC13
 1447 0f30 01090000 		.word	global_data+2305
 1448 0f34 10010000 		.word	.LC14
 1449 0f38 10090000 		.word	global_data+2320
 1450 0f3c 20010000 		.word	.LC15
 1451 0f40 1F090000 		.word	global_data+2335
 1452 0f44 30010000 		.word	.LC16
 1453 0f48 2E090000 		.word	global_data+2350
 1454 0f4c 40010000 		.word	.LC17
 1455 0f50 3D090000 		.word	global_data+2365
 1456 0f54 4C010000 		.word	.LC18
 1457 0f58 4C090000 		.word	global_data+2380
 1458 0f5c 5C010000 		.word	.LC19
 1459 0f60 9C040000 		.word	global_data+1180
 1460 0f64 6C010000 		.word	.LC20
 1461 0f68 5B090000 		.word	global_data+2395
 1462 0f6c 7C010000 		.word	.LC21
 1463 0f70 79090000 		.word	global_data+2425
 1464 0f74 8C010000 		.word	.LC22
 1465 0f78 88090000 		.word	global_data+2440
 1466 0f7c 94010000 		.word	.LC23
 1467 0f80 22060000 		.word	global_data+1570
 1468 0f84 A4010000 		.word	.LC24
 1469 0f88 31060000 		.word	global_data+1585
 1470 0f8c B0010000 		.word	.LC25
 1471 0f90 40060000 		.word	global_data+1600
 1472 0f94 BC010000 		.word	.LC26
 1473 0f98 4F060000 		.word	global_data+1615
 1474 0f9c C8010000 		.word	.LC27
 1475 0fa0 5E060000 		.word	global_data+1630
 1476 0fa4 D4010000 		.word	.LC28
 1477 0fa8 6D060000 		.word	global_data+1645
 1478 0fac E0010000 		.word	.LC29
 1479 0fb0 7C060000 		.word	global_data+1660
 1480 0fb4 F0010000 		.word	.LC30
 1481 0fb8 AB040000 		.word	global_data+1195
 1482 0fbc FC010000 		.word	.LC31
 1483 0fc0 BA040000 		.word	global_data+1210
 1484 0fc4 08020000 		.word	.LC32
 1485 0fc8 C9040000 		.word	global_data+1225
 1486 0fcc 9A99993E 		.word	1050253722
 1487 0fd0 14020000 		.word	.LC33
 1488 0fd4 D8040000 		.word	global_data+1240
 1489 0fd8 20020000 		.word	.LC34
 1490 0fdc E7040000 		.word	global_data+1255
 1491 0fe0 2C020000 		.word	.LC35
 1492 0fe4 8C050000 		.word	global_data+1420
 1493 0fe8 CDCCCC3D 		.word	1036831949
 1494 0fec 3C020000 		.word	.LC36
 1495 0ff0 9B050000 		.word	global_data+1435
 1496 0ff4 4C020000 		.word	.LC37
 1497 0ff8 AA050000 		.word	global_data+1450
 1498 0ffc 5C020000 		.word	.LC38
 1499 1000 B9050000 		.word	global_data+1465
 1500 1004 6C020000 		.word	.LC39
 1501 1008 C8050000 		.word	global_data+1480
 1502 100c 7C020000 		.word	.LC40
 1503 1010 D7050000 		.word	global_data+1495
 1504 1014 8C020000 		.word	.LC41
 1505 1018 E6050000 		.word	global_data+1510
 1506 101c 9C020000 		.word	.LC42
 1507 1020 F5050000 		.word	global_data+1525
 1508 1024 AC020000 		.word	.LC43
 1509 1028 04060000 		.word	global_data+1540
 1510 102c BC020000 		.word	.LC44
 1511 1030 13060000 		.word	global_data+1555
 1512 1034 CDCC4C3E 		.word	1045220557
 1513 1038 CC020000 		.word	.LC45
 1514 103c F6040000 		.word	global_data+1270
 1515 1040 D8020000 		.word	.LC46
 1516 1044 05050000 		.word	global_data+1285
 1517 1048 E4020000 		.word	.LC47
 1518 104c 14050000 		.word	global_data+1300
 1519 1050 F0020000 		.word	.LC48
 1520 1054 23050000 		.word	global_data+1315
 1521 1058 FC020000 		.word	.LC49
 1522 105c 32050000 		.word	global_data+1330
 1523 1060 08030000 		.word	.LC50
 1524 1064 41050000 		.word	global_data+1345
 1525 1068 14030000 		.word	.LC51
 1526 106c 50050000 		.word	global_data+1360
 1527 1070 20030000 		.word	.LC52
 1528 1074 5F050000 		.word	global_data+1375
 1529 1078 2C030000 		.word	.LC53
 1530 107c 6E050000 		.word	global_data+1390
 1531 1080 3C030000 		.word	.LC54
 1532 1084 7D050000 		.word	global_data+1405
 1533 1088 4C030000 		.word	.LC55
 1534 108c 12070000 		.word	global_data+1810
 1535 1090 58030000 		.word	.LC56
 1536 1094 21070000 		.word	global_data+1825
 1537 1098 64030000 		.word	.LC57
 1538 109c 30070000 		.word	global_data+1840
 1539 10a0 70030000 		.word	.LC58
 1540 10a4 3F070000 		.word	global_data+1855
 1541 10a8 7C030000 		.word	.LC59
 1542 10ac 8A070000 		.word	global_data+1930
 1543 10b0 88030000 		.word	.LC60
 1544 10b4 99070000 		.word	global_data+1945
 1545 10b8 94030000 		.word	.LC61
 1546 10bc A8070000 		.word	global_data+1960
 1547 10c0 8F11F646 		.word	1190531471
 1548 10c4 BC8EE546 		.word	1189449404
 1549 10c8 388EEB46 		.word	1189842488
 1550 10cc A0030000 		.word	.LC62
 1551 10d0 4E070000 		.word	global_data+1870
 1552 10d4 B0030000 		.word	.LC63
 1553 10d8 5D070000 		.word	global_data+1885
 1554 10dc C0030000 		.word	.LC64
 1555 10e0 6C070000 		.word	global_data+1900
 1556 10e4 D0030000 		.word	.LC65
 1557 10e8 7B070000 		.word	global_data+1915
 1558 10ec E0030000 		.word	.LC66
 1559 10f0 B7070000 		.word	global_data+1975
 1560 10f4 F0030000 		.word	.LC67
 1561 10f8 C6070000 		.word	global_data+1990
 1562 10fc FC030000 		.word	.LC68
 1563 1100 D5070000 		.word	global_data+2005
 1564 1104 08040000 		.word	.LC69
 1565 1108 E4070000 		.word	global_data+2020
 1566 110c 14040000 		.word	.LC70
 1567 1110 F3070000 		.word	global_data+2035
 1568 1114 24040000 		.word	.LC71
 1569 1118 02080000 		.word	global_data+2050
 1570 111c 34040000 		.word	.LC72
 1571 1120 11080000 		.word	global_data+2065
 1572 1124 44040000 		.word	.LC73
 1573 1128 B8060000 		.word	global_data+1720
 1574 112c 54040000 		.word	.LC74
 1575 1130 C7060000 		.word	global_data+1735
 1576 1134 64040000 		.word	.LC75
 1577 1138 D6060000 		.word	global_data+1750
 1578 113c 3333733F 		.word	1064514355
 1579 1140 74040000 		.word	.LC76
 1580 1144 E5060000 		.word	global_data+1765
 1581 1148 80040000 		.word	.LC77
 1582 114c F4060000 		.word	global_data+1780
 1583 1150 90040000 		.word	.LC78
 1584 1154 03070000 		.word	global_data+1795
 1585 1158 A0040000 		.word	.LC79
 1586 115c 8B060000 		.word	global_data+1675
 1587 1160 B0040000 		.word	.LC80
 1588 1164 9A060000 		.word	global_data+1690
 1589 1168 C0040000 		.word	.LC81
 1590 116c A9060000 		.word	global_data+1705
 1591 1170 D0040000 		.word	.LC82
 1592 1174 3E080000 		.word	global_data+2110
 1593 1178 E0040000 		.word	.LC83
 1594 117c 4D080000 		.word	global_data+2125
 1595 1180 7A080000 		.word	global_data+2170
 1596 1184 F0040000 		.word	.LC84
 1597 1188 5C080000 		.word	global_data+2140
 1598 118c 00050000 		.word	.LC85
 1599 1190 6B080000 		.word	global_data+2155
 1600 1194 08050000 		.word	.LC86
 1601 1198 18050000 		.word	.LC87
 1602 119c 20050000 		.word	.LC88
 1603 11a0 28050000 		.word	.LC89
 1604 11a4 30050000 		.word	.LC90
 1605 11a8 38050000 		.word	.LC91
 1606 11ac 40050000 		.word	.LC92
 1607 11b0 48050000 		.word	.LC93
 1608 11b4 54050000 		.word	.LC94
 1609 11b8 64050000 		.word	.LC95
 1610 11bc 74050000 		.word	.LC96
 1611 11c0 80050000 		.word	.LC97
 1612 11c4 8C050000 		.word	.LC98
 1613 11c8 98050000 		.word	.LC99
 1614 11cc A8050000 		.word	.LC100
 1615 11d0 B4050000 		.word	.LC101
 1616 11d4 C4050000 		.word	.LC102
 1617 11d8 D4050000 		.word	.LC103
 1618 11dc E4050000 		.word	.LC104
 1619 11e0 F4050000 		.word	.LC105
 1620 11e4 10060000 		.word	.LC107
 1621 11e8 04060000 		.word	.LC106
 1623              		.global	__eqsf2
 1624              		.section	.rodata.str1.4
 1625              		.align	2
 1626              	.LC108:
 1627 061c 52455345 		.ascii	"RESET command received\000"
 1627      5420636F 
 1627      6D6D616E 
 1627      64207265 
 1627      63656976 
 1628 0633 00       		.align	2
 1629              	.LC109:
 1630 0634 52455345 		.ascii	"RESET count down: %u\000"
 1630      5420636F 
 1630      756E7420 
 1630      646F776E 
 1630      3A202575 
 1631 0649 000000   		.align	2
 1632              	.LC110:
 1633 064c 52455345 		.ascii	"RESET command REFUSED (I'm flying!)\000"
 1633      5420636F 
 1633      6D6D616E 
 1633      64205245 
 1633      46555345 
 1634              		.text
 1635              		.align	2
 1636              		.global	handle_reset_request
 1638              	handle_reset_request:
 1639              		@ Function supports interworking.
 1640              		@ args = 0, pretend = 0, frame = 0
 1641              		@ frame_needed = 0, uses_anonymous_args = 0
 1642 11ec 30402DE9 		stmfd	sp!, {r4, r5, lr}
 1643 11f0 94409FE5 		ldr	r4, .L108
 1644 11f4 FE15A0E3 		mov	r1, #1065353216
 1645 11f8 640294E5 		ldr	r0, [r4, #612]	@ float
 1646 11fc FEFFFFEB 		bl	__eqsf2
 1647 1200 000050E3 		cmp	r0, #0
 1648 1204 0A00001A 		bne	.L95
 1649 1208 5C3194E5 		ldr	r3, [r4, #348]
 1650 120c 030053E3 		cmp	r3, #3
 1651 1210 78509FE5 		ldr	r5, .L108+4
 1652 1214 78009FE5 		ldr	r0, .L108+8
 1653 1218 0800000A 		beq	.L105
 1654 121c 6C209FE5 		ldr	r2, .L108+4
 1655 1220 0030A0E3 		mov	r3, #0
 1656 1224 0010A0E3 		mov	r1, #0
 1657 1228 003082E5 		str	r3, [r2, #0]
 1658 122c 641284E5 		str	r1, [r4, #612]	@ float
 1659 1230 FEFFFFEB 		bl	debug_message_buffer
 1660              	.L95:
 1661 1234 0000A0E3 		mov	r0, #0
 1662 1238 3040BDE8 		ldmfd	sp!, {r4, r5, lr}
 1663 123c 1EFF2FE1 		bx	lr
 1664              	.L105:
 1665 1240 003095E5 		ldr	r3, [r5, #0]
 1666 1244 000053E3 		cmp	r3, #0
 1667 1248 48009FE5 		ldr	r0, .L108+12
 1668 124c 0800000A 		beq	.L106
 1669 1250 010053E3 		cmp	r3, #1
 1670 1254 0A00000A 		beq	.L107
 1671              	.L102:
 1672 1258 003095E5 		ldr	r3, [r5, #0]
 1673 125c 013043E2 		sub	r3, r3, #1
 1674 1260 0310A0E1 		mov	r1, r3
 1675 1264 30009FE5 		ldr	r0, .L108+16
 1676 1268 003085E5 		str	r3, [r5, #0]
 1677 126c FEFFFFEB 		bl	debug_message_buffer_sprintf
 1678 1270 EFFFFFEA 		b	.L95
 1679              	.L106:
 1680 1274 FEFFFFEB 		bl	debug_message_buffer
 1681 1278 0730A0E3 		mov	r3, #7
 1682 127c 003085E5 		str	r3, [r5, #0]
 1683 1280 F4FFFFEA 		b	.L102
 1684              	.L107:
 1685 1284 FEFFFFEB 		bl	watchdog_wait_reset
 1686 1288 F2FFFFEA 		b	.L102
 1687              	.L109:
 1688              		.align	2
 1689              	.L108:
 1690 128c 00000000 		.word	global_data
 1691 1290 68000000 		.word	reset_countdown.21095
 1692 1294 4C060000 		.word	.LC110
 1693 1298 1C060000 		.word	.LC108
 1694 129c 34060000 		.word	.LC109
 1696              		.section	.rodata.str1.4
 1697              		.align	2
 1698              	.LC111:
 1699 0670 6174745F 		.ascii	"att_s_pos\000"
 1699      735F706F 
 1699      7300
 1700 067a 0000     		.align	2
 1701              	.LC112:
 1702 067c 6174745F 		.ascii	"att_s_rm\000"
 1702      735F726D 
 1702      00
 1703 0685 000000   		.align	2
 1704              	.LC113:
 1705 0688 6174745F 		.ascii	"att_s_off\000"
 1705      735F6F66 
 1705      6600
 1706 0692 0000     		.align	2
 1707              	.LC114:
 1708 0694 6174745F 		.ascii	"att_s\000"
 1708      7300
 1709 069a 0000     		.align	2
 1710              	.LC115:
 1711 069c 706F735F 		.ascii	"pos_sp\000"
 1711      737000
 1712 06a3 00       		.align	2
 1713              	.LC116:
 1714 06a4 696E745F 		.ascii	"int_att\000"
 1714      61747400 
 1715              		.align	2
 1716              	.LC117:
 1717 06ac 696E745F 		.ascii	"int_pos\000"
 1717      706F7300 
 1718              		.align	2
 1719              	.LC118:
 1720 06b4 696E745F 		.ascii	"int_yawp\000"
 1720      79617770 
 1720      00
 1721 06bd 000000   		.text
 1722              		.align	2
 1723              		.global	communication_send_controller_feedback
 1725              	communication_send_controller_feedback:
 1726              		@ Function supports interworking.
 1727              		@ args = 0, pretend = 0, frame = 36
 1728              		@ frame_needed = 0, uses_anonymous_args = 0
 1729 12a0 F0402DE9 		stmfd	sp!, {r4, r5, r6, r7, lr}
 1730 12a4 30419FE5 		ldr	r4, .L123
 1731 12a8 FE15A0E3 		mov	r1, #1065353216
 1732 12ac 24D04DE2 		sub	sp, sp, #36
 1733 12b0 8C0394E5 		ldr	r0, [r4, #908]	@ float
 1734 12b4 FEFFFFEB 		bl	__eqsf2
 1735 12b8 000050E3 		cmp	r0, #0
 1736 12bc D41084E2 		add	r1, r4, #212
 1737 12c0 18019FE5 		ldr	r0, .L123+4
 1738 12c4 3500000A 		beq	.L121
 1739              	.L111:
 1740 12c8 FE15A0E3 		mov	r1, #1065353216
 1741 12cc A00394E5 		ldr	r0, [r4, #928]	@ float
 1742 12d0 FEFFFFEB 		bl	__eqsf2
 1743 12d4 000050E3 		cmp	r0, #0
 1744 12d8 801084E2 		add	r1, r4, #128
 1745 12dc 00019FE5 		ldr	r0, .L123+8
 1746 12e0 2B00000A 		beq	.L122
 1747              	.L114:
 1748 12e4 940394E5 		ldr	r0, [r4, #916]	@ float
 1749 12e8 FE15A0E3 		mov	r1, #1065353216
 1750 12ec FEFFFFEB 		bl	__eqsf2
 1751 12f0 000050E3 		cmp	r0, #0
 1752 12f4 0070A0E3 		mov	r7, #0
 1753 12f8 0D60A0E1 		mov	r6, sp
 1754 12fc E4009FE5 		ldr	r0, .L123+12
 1755 1300 2000001A 		bne	.L120
 1756 1304 E0309FE5 		ldr	r3, .L123+16
 1757 1308 E0209FE5 		ldr	r2, .L123+20
 1758 130c 14C093E5 		ldr	ip, [r3, #20]	@ float
 1759 1310 DC309FE5 		ldr	r3, .L123+24
 1760 1314 141092E5 		ldr	r1, [r2, #20]	@ float
 1761 1318 142093E5 		ldr	r2, [r3, #20]	@ float
 1762 131c D4309FE5 		ldr	r3, .L123+28
 1763 1320 08208DE5 		str	r2, [sp, #8]	@ float
 1764 1324 D0209FE5 		ldr	r2, .L123+32
 1765 1328 145093E5 		ldr	r5, [r3, #20]	@ float
 1766 132c 144092E5 		ldr	r4, [r2, #20]	@ float
 1767 1330 C8309FE5 		ldr	r3, .L123+36
 1768 1334 C8209FE5 		ldr	r2, .L123+40
 1769 1338 00C08DE5 		str	ip, [sp, #0]	@ float
 1770 133c 04108DE5 		str	r1, [sp, #4]	@ float
 1771 1340 14E093E5 		ldr	lr, [r3, #20]	@ float
 1772 1344 14C092E5 		ldr	ip, [r2, #20]	@ float
 1773 1348 0E009DE8 		ldmia	sp, {r1, r2, r3}
 1774 134c 20E08DE5 		str	lr, [sp, #32]	@ float
 1775 1350 0CC08DE5 		str	ip, [sp, #12]	@ float
 1776 1354 18508DE5 		str	r5, [sp, #24]	@ float
 1777 1358 1C408DE5 		str	r4, [sp, #28]	@ float
 1778 135c 14708DE5 		str	r7, [sp, #20]	@ float
 1779 1360 10708DE5 		str	r7, [sp, #16]	@ float
 1780 1364 FEFFFFEB 		bl	debug_vect
 1781 1368 18C08DE2 		add	ip, sp, #24
 1782 136c 0E009CE8 		ldmia	ip, {r1, r2, r3}
 1783 1370 90009FE5 		ldr	r0, .L123+44
 1784 1374 FEFFFFEB 		bl	debug_vect
 1785 1378 0CC08DE2 		add	ip, sp, #12
 1786 137c 88009FE5 		ldr	r0, .L123+48
 1787 1380 0E009CE8 		ldmia	ip, {r1, r2, r3}
 1788 1384 FEFFFFEB 		bl	debug_vect
 1789              	.L120:
 1790 1388 24D08DE2 		add	sp, sp, #36
 1791 138c F040BDE8 		ldmfd	sp!, {r4, r5, r6, r7, lr}
 1792 1390 1EFF2FE1 		bx	lr
 1793              	.L122:
 1794 1394 0E0091E8 		ldmia	r1, {r1, r2, r3}
 1795 1398 FEFFFFEB 		bl	debug_vect
 1796 139c D0FFFFEA 		b	.L114
 1797              	.L121:
 1798 13a0 0E0091E8 		ldmia	r1, {r1, r2, r3}
 1799 13a4 FEFFFFEB 		bl	debug_vect
 1800 13a8 F8C084E2 		add	ip, r4, #248
 1801 13ac 0E009CE8 		ldmia	ip, {r1, r2, r3}
 1802 13b0 58009FE5 		ldr	r0, .L123+52
 1803 13b4 FEFFFFEB 		bl	debug_vect
 1804 13b8 41CF84E2 		add	ip, r4, #260
 1805 13bc 0E009CE8 		ldmia	ip, {r1, r2, r3}
 1806 13c0 4C009FE5 		ldr	r0, .L123+56
 1807 13c4 FEFFFFEB 		bl	debug_vect
 1808 13c8 11CE84E2 		add	ip, r4, #272
 1809 13cc 44009FE5 		ldr	r0, .L123+60
 1810 13d0 0E009CE8 		ldmia	ip, {r1, r2, r3}
 1811 13d4 FEFFFFEB 		bl	debug_vect
 1812 13d8 BAFFFFEA 		b	.L111
 1813              	.L124:
 1814              		.align	2
 1815              	.L123:
 1816 13dc 00000000 		.word	global_data
 1817 13e0 70060000 		.word	.LC111
 1818 13e4 9C060000 		.word	.LC115
 1819 13e8 A4060000 		.word	.LC116
 1820 13ec 00000000 		.word	roll_controller
 1821 13f0 00000000 		.word	nick_controller
 1822 13f4 00000000 		.word	yaw_speed_controller
 1823 13f8 00000000 		.word	x_axis_controller
 1824 13fc 00000000 		.word	y_axis_controller
 1825 1400 00000000 		.word	z_axis_controller
 1826 1404 00000000 		.word	yaw_pos_controller
 1827 1408 AC060000 		.word	.LC117
 1828 140c B4060000 		.word	.LC118
 1829 1410 7C060000 		.word	.LC112
 1830 1414 88060000 		.word	.LC113
 1831 1418 94060000 		.word	.LC114
 1833              		.align	2
 1834              		.global	position_integrate
 1836              	position_integrate:
 1837              		@ Function supports interworking.
 1838              		@ args = 0, pretend = 0, frame = 12
 1839              		@ frame_needed = 0, uses_anonymous_args = 0
 1840 141c 04E02DE5 		str	lr, [sp, #-4]!
 1841 1420 0CD04DE2 		sub	sp, sp, #12
 1842 1424 0010A0E1 		mov	r1, r0
 1843 1428 0D20A0E1 		mov	r2, sp
 1844 142c 0300A0E1 		mov	r0, r3
 1845 1430 FEFFFFEB 		bl	body2navi
 1846 1434 0CD08DE2 		add	sp, sp, #12
 1847 1438 04E09DE4 		ldr	lr, [sp], #4
 1848 143c 1EFF2FE1 		bx	lr
 1850              		.align	2
 1851              		.global	control_camera_angle
 1853              	control_camera_angle:
 1854              		@ Function supports interworking.
 1855              		@ args = 0, pretend = 0, frame = 0
 1856              		@ frame_needed = 0, uses_anonymous_args = 0
 1857 1440 F0402DE9 		stmfd	sp!, {r4, r5, r6, r7, lr}
 1858 1444 94409FE5 		ldr	r4, .L129
 1859 1448 0A76E0E3 		mvn	r7, #10485760
 1860 144c 5C1094E5 		ldr	r1, [r4, #92]	@ float
 1861 1450 DC0394E5 		ldr	r0, [r4, #988]	@ float
 1862 1454 997C47E2 		sub	r7, r7, #39168
 1863 1458 FEFFFFEB 		bl	__mulsf3
 1864 145c 337147E2 		sub	r7, r7, #-1073741812
 1865 1460 D81394E5 		ldr	r1, [r4, #984]	@ float
 1866 1464 4364A0E3 		mov	r6, #1124073472
 1867 1468 1153A0E3 		mov	r5, #1140850688
 1868 146c FEFFFFEB 		bl	__addsf3
 1869 1470 FA6886E2 		add	r6, r6, #16384000
 1870 1474 0710A0E1 		mov	r1, r7
 1871 1478 BB5885E2 		add	r5, r5, #12255232
 1872 147c FEFFFFEB 		bl	__divsf3
 1873 1480 025985E2 		add	r5, r5, #32768
 1874 1484 0610A0E1 		mov	r1, r6
 1875 1488 FEFFFFEB 		bl	__mulsf3
 1876 148c 0510A0E1 		mov	r1, r5
 1877 1490 FEFFFFEB 		bl	__addsf3
 1878 1494 FEFFFFEB 		bl	__fixunssfsi
 1879 1498 0410A0E3 		mov	r1, #4
 1880 149c FEFFFFEB 		bl	pwm_set_channel
 1881 14a0 601094E5 		ldr	r1, [r4, #96]	@ float
 1882 14a4 E40394E5 		ldr	r0, [r4, #996]	@ float
 1883 14a8 FEFFFFEB 		bl	__mulsf3
 1884 14ac E01394E5 		ldr	r1, [r4, #992]	@ float
 1885 14b0 FEFFFFEB 		bl	__addsf3
 1886 14b4 0710A0E1 		mov	r1, r7
 1887 14b8 FEFFFFEB 		bl	__divsf3
 1888 14bc 0610A0E1 		mov	r1, r6
 1889 14c0 FEFFFFEB 		bl	__mulsf3
 1890 14c4 0510A0E1 		mov	r1, r5
 1891 14c8 FEFFFFEB 		bl	__addsf3
 1892 14cc FEFFFFEB 		bl	__fixunssfsi
 1893 14d0 0510A0E3 		mov	r1, #5
 1894 14d4 FEFFFFEB 		bl	pwm_set_channel
 1895 14d8 F040BDE8 		ldmfd	sp!, {r4, r5, r6, r7, lr}
 1896 14dc 1EFF2FE1 		bx	lr
 1897              	.L130:
 1898              		.align	2
 1899              	.L129:
 1900 14e0 00000000 		.word	global_data
 1902              		.align	2
 1903              		.global	rc_to_255
 1905              	rc_to_255:
 1906              		@ Function supports interworking.
 1907              		@ args = 0, pretend = 0, frame = 0
 1908              		@ frame_needed = 0, uses_anonymous_args = 0
 1909 14e4 10402DE9 		stmfd	sp!, {r4, lr}
 1910 14e8 0040A0E1 		mov	r4, r0
 1911 14ec FEFFFFEB 		bl	ppm_get_channel
 1912 14f0 7B3EA0E3 		mov	r3, #1968
 1913 14f4 013083E2 		add	r3, r3, #1
 1914 14f8 030050E1 		cmp	r0, r3
 1915 14fc 0400A0E1 		mov	r0, r4
 1916 1500 0A0000DA 		ble	.L139
 1917 1504 0400A0E1 		mov	r0, r4
 1918 1508 FEFFFFEB 		bl	ppm_get_channel
 1919 150c 7B3EA0E3 		mov	r3, #1968
 1920 1510 013083E2 		add	r3, r3, #1
 1921 1514 030050E1 		cmp	r0, r3
 1922 1518 0400A0E1 		mov	r0, r4
 1923 151c 7F30A0E3 		mov	r3, #127
 1924 1520 1D0000DA 		ble	.L140
 1925              	.L135:
 1926 1524 0300A0E1 		mov	r0, r3
 1927 1528 1040BDE8 		ldmfd	sp!, {r4, lr}
 1928 152c 1EFF2FE1 		bx	lr
 1929              	.L139:
 1930 1530 FEFFFFEB 		bl	ppm_get_channel
 1931 1534 5D0E40E2 		sub	r0, r0, #1488
 1932 1538 0C0040E2 		sub	r0, r0, #12
 1933 153c FEFFFFEB 		bl	__floatsisf
 1934 1540 4314A0E3 		mov	r1, #1124073472
 1935 1544 FA1881E2 		add	r1, r1, #16384000
 1936 1548 FEFFFFEB 		bl	__divsf3
 1937 154c FE15A0E3 		mov	r1, #1065353216
 1938 1550 FEFFFFEB 		bl	__addsf3
 1939 1554 3F14A0E3 		mov	r1, #1056964608
 1940 1558 FEFFFFEB 		bl	__mulsf3
 1941 155c 4314A0E3 		mov	r1, #1124073472
 1942 1560 7F1881E2 		add	r1, r1, #8323072
 1943 1564 FEFFFFEB 		bl	__mulsf3
 1944 1568 0010A0E3 		mov	r1, #0
 1945 156c FEFFFFEB 		bl	__gtsf2
 1946 1570 000050E3 		cmp	r0, #0
 1947 1574 0030A0E3 		mov	r3, #0
 1948 1578 E9FFFFDA 		ble	.L135
 1949 157c 0400A0E1 		mov	r0, r4
 1950 1580 FEFFFFEB 		bl	ppm_get_channel
 1951 1584 7B3EA0E3 		mov	r3, #1968
 1952 1588 013083E2 		add	r3, r3, #1
 1953 158c 030050E1 		cmp	r0, r3
 1954 1590 0400A0E1 		mov	r0, r4
 1955 1594 7F30A0E3 		mov	r3, #127
 1956 1598 E1FFFFCA 		bgt	.L135
 1957              	.L140:
 1958 159c FEFFFFEB 		bl	ppm_get_channel
 1959 15a0 5D0E40E2 		sub	r0, r0, #1488
 1960 15a4 0C0040E2 		sub	r0, r0, #12
 1961 15a8 FEFFFFEB 		bl	__floatsisf
 1962 15ac 4314A0E3 		mov	r1, #1124073472
 1963 15b0 FA1881E2 		add	r1, r1, #16384000
 1964 15b4 FEFFFFEB 		bl	__divsf3
 1965 15b8 FE15A0E3 		mov	r1, #1065353216
 1966 15bc FEFFFFEB 		bl	__addsf3
 1967 15c0 3F14A0E3 		mov	r1, #1056964608
 1968 15c4 FEFFFFEB 		bl	__mulsf3
 1969 15c8 4314A0E3 		mov	r1, #1124073472
 1970 15cc 7F1881E2 		add	r1, r1, #8323072
 1971 15d0 FEFFFFEB 		bl	__mulsf3
 1972 15d4 FEFFFFEB 		bl	__fixunssfsi
 1973 15d8 FF3000E2 		and	r3, r0, #255
 1974 15dc D0FFFFEA 		b	.L135
 1976              		.align	2
 1977              		.global	camera_shutter_handling
 1979              	camera_shutter_handling:
 1980              		@ Function supports interworking.
 1981              		@ args = 0, pretend = 0, frame = 388
 1982              		@ frame_needed = 0, uses_anonymous_args = 0
 1983 15e0 F04F2DE9 		stmfd	sp!, {r4, r5, r6, r7, r8, r9, sl, fp, lr}
 1984 15e4 62DF4DE2 		sub	sp, sp, #392
 1985 15e8 0040A0E1 		mov	r4, r0
 1986 15ec 0150A0E1 		mov	r5, r1
 1987 15f0 FEFFFFEB 		bl	shutter_loop
 1988 15f4 000050E3 		cmp	r0, #0
 1989 15f8 0200001A 		bne	.L153
 1990              	.L149:
 1991 15fc 62DF8DE2 		add	sp, sp, #392
 1992 1600 F04FBDE8 		ldmfd	sp!, {r4, r5, r6, r7, r8, r9, sl, fp, lr}
 1993 1604 1EFF2FE1 		bx	lr
 1994              	.L153:
 1995 1608 FEFFFFEB 		bl	sys_time_clock_get_unix_offset
 1996 160c 047090E0 		adds	r7, r0, r4
 1997 1610 0580A1E0 		adc	r8, r1, r5
 1998 1614 FEFFFFEB 		bl	shutter_get_seq
 1999 1618 0420A0E1 		mov	r2, r4
 2000 161c 0530A0E1 		mov	r3, r5
 2001 1620 0810A0E1 		mov	r1, r8
 2002 1624 00008DE5 		str	r0, [sp, #0]
 2003 1628 0700A0E1 		mov	r0, r7
 2004 162c FEFFFFEB 		bl	vision_buffer_buffer_camera_triggered
 2005 1630 FEFFFFEB 		bl	shutter_get_seq
 2006 1634 68239FE5 		ldr	r2, .L154
 2007 1638 00B0A0E3 		mov	fp, #0
 2008 163c 283CA0E1 		mov	r3, r8, lsr #24
 2009 1640 601092E5 		ldr	r1, [r2, #96]	@ float
 2010 1644 5C308DE5 		str	r3, [sp, #92]
 2011 1648 60B08DE5 		str	fp, [sp, #96]
 2012 164c 643092E5 		ldr	r3, [r2, #100]	@ float
 2013 1650 58B08DE5 		str	fp, [sp, #88]
 2014 1654 50B08DE5 		str	fp, [sp, #80]
 2015 1658 D4B992E5 		ldr	fp, [r2, #2516]	@ float
 2016 165c 28E4A0E1 		mov	lr, r8, lsr #8
 2017 1660 5C4092E5 		ldr	r4, [r2, #92]	@ float
 2018 1664 4CE08DE5 		str	lr, [sp, #76]
 2019 1668 6CB08DE5 		str	fp, [sp, #108]	@ float
 2020 166c 01E0A0E1 		mov	lr, r1
 2021 1670 74B092E5 		ldr	fp, [r2, #116]	@ float
 2022 1674 0310A0E1 		mov	r1, r3
 2023 1678 7C3092E5 		ldr	r3, [r2, #124]	@ float
 2024 167c 782092E5 		ldr	r2, [r2, #120]	@ float
 2025 1680 74208DE5 		str	r2, [sp, #116]	@ float
 2026 1684 2028A0E1 		mov	r2, r0, lsr #16
 2027 1688 40208DE5 		str	r2, [sp, #64]
 2028 168c 2024A0E1 		mov	r2, r0, lsr #8
 2029 1690 3C208DE5 		str	r2, [sp, #60]
 2030 1694 442CA0E1 		mov	r2, r4, asr #24
 2031 1698 38208DE5 		str	r2, [sp, #56]
 2032 169c 4428A0E1 		mov	r2, r4, asr #16
 2033 16a0 34208DE5 		str	r2, [sp, #52]
 2034 16a4 4424A0E1 		mov	r2, r4, asr #8
 2035 16a8 30208DE5 		str	r2, [sp, #48]
 2036 16ac 4E2CA0E1 		mov	r2, lr, asr #24
 2037 16b0 2C208DE5 		str	r2, [sp, #44]
 2038 16b4 4E28A0E1 		mov	r2, lr, asr #16
 2039 16b8 28208DE5 		str	r2, [sp, #40]
 2040 16bc 4E24A0E1 		mov	r2, lr, asr #8
 2041 16c0 24208DE5 		str	r2, [sp, #36]
 2042 16c4 412CA0E1 		mov	r2, r1, asr #24
 2043 16c8 20208DE5 		str	r2, [sp, #32]
 2044 16cc 4128A0E1 		mov	r2, r1, asr #16
 2045 16d0 1C208DE5 		str	r2, [sp, #28]
 2046 16d4 4124A0E1 		mov	r2, r1, asr #8
 2047 16d8 28C8A0E1 		mov	ip, r8, lsr #16
 2048 16dc 18208DE5 		str	r2, [sp, #24]
 2049 16e0 6520A0E3 		mov	r2, #101
 2050 16e4 54C08DE5 		str	ip, [sp, #84]
 2051 16e8 8420CDE5 		strb	r2, [sp, #132]
 2052 16ec 5C20DDE5 		ldrb	r2, [sp, #92]	@ zero_extendqisi2
 2053 16f0 8520CDE5 		strb	r2, [sp, #133]
 2054 16f4 5420DDE5 		ldrb	r2, [sp, #84]	@ zero_extendqisi2
 2055 16f8 00C0A0E3 		mov	ip, #0
 2056 16fc 44808DE5 		str	r8, [sp, #68]
 2057 1700 48C08DE5 		str	ip, [sp, #72]
 2058 1704 78308DE5 		str	r3, [sp, #120]	@ float
 2059 1708 70B08DE5 		str	fp, [sp, #112]	@ float
 2060 170c 2734A0E1 		mov	r3, r7, lsr #8
 2061 1710 8620CDE5 		strb	r2, [sp, #134]
 2062 1714 4C20DDE5 		ldrb	r2, [sp, #76]	@ zero_extendqisi2
 2063 1718 083C83E1 		orr	r3, r3, r8, asl #24
 2064 171c 8720CDE5 		strb	r2, [sp, #135]
 2065 1720 8B30CDE5 		strb	r3, [sp, #139]
 2066 1724 4420DDE5 		ldrb	r2, [sp, #68]	@ zero_extendqisi2
 2067 1728 40309DE5 		ldr	r3, [sp, #64]
 2068 172c 20BCA0E1 		mov	fp, r0, lsr #24
 2069 1730 8820CDE5 		strb	r2, [sp, #136]
 2070 1734 8DB0CDE5 		strb	fp, [sp, #141]
 2071 1738 38208DE2 		add	r2, sp, #56
 2072 173c 040892E8 		ldmia	r2, {r2, fp}	@ phole ldm
 2073 1740 8E30CDE5 		strb	r3, [sp, #142]
 2074 1744 34309DE5 		ldr	r3, [sp, #52]
 2075 1748 2CC09DE5 		ldr	ip, [sp, #44]
 2076 174c 8FB0CDE5 		strb	fp, [sp, #143]
 2077 1750 9120CDE5 		strb	r2, [sp, #145]
 2078 1754 30B09DE5 		ldr	fp, [sp, #48]
 2079 1758 28209DE5 		ldr	r2, [sp, #40]
 2080 175c 9230CDE5 		strb	r3, [sp, #146]
 2081 1760 24309DE5 		ldr	r3, [sp, #36]
 2082 1764 279CA0E1 		mov	r9, r7, lsr #24
 2083 1768 2758A0E1 		mov	r5, r7, lsr #16
 2084 176c 93B0CDE5 		strb	fp, [sp, #147]
 2085 1770 95C0CDE5 		strb	ip, [sp, #149]
 2086 1774 20B09DE5 		ldr	fp, [sp, #32]
 2087 1778 1CC09DE5 		ldr	ip, [sp, #28]
 2088 177c 9620CDE5 		strb	r2, [sp, #150]
 2089 1780 9730CDE5 		strb	r3, [sp, #151]
 2090 1784 98E0CDE5 		strb	lr, [sp, #152]
 2091 1788 18229FE5 		ldr	r2, .L154+4
 2092 178c 18E09DE5 		ldr	lr, [sp, #24]
 2093 1790 10329FE5 		ldr	r3, .L154+4
 2094 1794 089489E1 		orr	r9, r9, r8, asl #8
 2095 1798 085885E1 		orr	r5, r5, r8, asl #16
 2096 179c 8990CDE5 		strb	r9, [sp, #137]
 2097 17a0 8A50CDE5 		strb	r5, [sp, #138]
 2098 17a4 8C70CDE5 		strb	r7, [sp, #140]
 2099 17a8 9000CDE5 		strb	r0, [sp, #144]
 2100 17ac 9440CDE5 		strb	r4, [sp, #148]
 2101 17b0 99B0CDE5 		strb	fp, [sp, #153]
 2102 17b4 9AC0CDE5 		strb	ip, [sp, #154]
 2103 17b8 9BE0CDE5 		strb	lr, [sp, #155]
 2104 17bc 0120D2E5 		ldrb	r2, [r2, #1]	@ zero_extendqisi2
 2105 17c0 0030D3E5 		ldrb	r3, [r3, #0]	@ zero_extendqisi2
 2106 17c4 64208DE5 		str	r2, [sp, #100]
 2107 17c8 68308DE5 		str	r3, [sp, #104]
 2108 17cc 9C10CDE5 		strb	r1, [sp, #156]
 2109 17d0 D4B19FE5 		ldr	fp, .L154+8
 2110 17d4 0EB0DBE5 		ldrb	fp, [fp, #14]	@ zero_extendqisi2
 2111 17d8 6C309DE5 		ldr	r3, [sp, #108]	@ float
 2112 17dc 78009DE5 		ldr	r0, [sp, #120]	@ float
 2113 17e0 01C08BE2 		add	ip, fp, #1
 2114 17e4 08C08DE5 		str	ip, [sp, #8]
 2115 17e8 43ECA0E1 		mov	lr, r3, asr #24
 2116 17ec 40CCA0E1 		mov	ip, r0, asr #24
 2117 17f0 04E08DE5 		str	lr, [sp, #4]
 2118 17f4 14C08DE5 		str	ip, [sp, #20]
 2119 17f8 40E8A0E1 		mov	lr, r0, asr #16
 2120 17fc 40C4A0E1 		mov	ip, r0, asr #8
 2121 1800 10E08DE5 		str	lr, [sp, #16]
 2122 1804 0CC08DE5 		str	ip, [sp, #12]
 2123 1808 9CE19FE5 		ldr	lr, .L154+8
 2124 180c 08C09DE5 		ldr	ip, [sp, #8]
 2125 1810 70209DE5 		ldr	r2, [sp, #112]	@ float
 2126 1814 74109DE5 		ldr	r1, [sp, #116]	@ float
 2127 1818 7CB08DE5 		str	fp, [sp, #124]
 2128 181c 0EC0CEE5 		strb	ip, [lr, #14]
 2129 1820 04E09DE5 		ldr	lr, [sp, #4]
 2130 1824 4348A0E1 		mov	r4, r3, asr #16
 2131 1828 4354A0E1 		mov	r5, r3, asr #8
 2132 182c 426CA0E1 		mov	r6, r2, asr #24
 2133 1830 4278A0E1 		mov	r7, r2, asr #16
 2134 1834 4284A0E1 		mov	r8, r2, asr #8
 2135 1838 A030CDE5 		strb	r3, [sp, #160]
 2136 183c A420CDE5 		strb	r2, [sp, #164]
 2137 1840 10309DE5 		ldr	r3, [sp, #16]
 2138 1844 14209DE5 		ldr	r2, [sp, #20]
 2139 1848 41B4A0E1 		mov	fp, r1, asr #8
 2140 184c 41ACA0E1 		mov	sl, r1, asr #24
 2141 1850 4198A0E1 		mov	r9, r1, asr #16
 2142 1854 9DE0CDE5 		strb	lr, [sp, #157]
 2143 1858 A7B0CDE5 		strb	fp, [sp, #167]
 2144 185c A810CDE5 		strb	r1, [sp, #168]
 2145 1860 A920CDE5 		strb	r2, [sp, #169]
 2146 1864 9E40CDE5 		strb	r4, [sp, #158]
 2147 1868 9F50CDE5 		strb	r5, [sp, #159]
 2148 186c A160CDE5 		strb	r6, [sp, #161]
 2149 1870 A270CDE5 		strb	r7, [sp, #162]
 2150 1874 A380CDE5 		strb	r8, [sp, #163]
 2151 1878 A5A0CDE5 		strb	sl, [sp, #165]
 2152 187c A690CDE5 		strb	r9, [sp, #166]
 2153 1880 AA30CDE5 		strb	r3, [sp, #170]
 2154 1884 68C09DE5 		ldr	ip, [sp, #104]
 2155 1888 0CB09DE5 		ldr	fp, [sp, #12]
 2156 188c 64E09DE5 		ldr	lr, [sp, #100]
 2157 1890 7C209DE5 		ldr	r2, [sp, #124]
 2158 1894 2830A0E3 		mov	r3, #40
 2159 1898 82C0CDE5 		strb	ip, [sp, #130]
 2160 189c ABB0CDE5 		strb	fp, [sp, #171]
 2161 18a0 01C8A0E3 		mov	ip, #65536
 2162 18a4 8030CDE5 		strb	r3, [sp, #128]
 2163 18a8 83E0CDE5 		strb	lr, [sp, #131]
 2164 18ac 8120CDE5 		strb	r2, [sp, #129]
 2165 18b0 AC00CDE5 		strb	r0, [sp, #172]
 2166 18b4 01C04CE2 		sub	ip, ip, #1
 2167 18b8 80008DE2 		add	r0, sp, #128
 2168 18bc 0010A0E3 		mov	r1, #0
 2169              	.L144:
 2170 18c0 0030D1E7 		ldrb	r3, [r1, r0]	@ zero_extendqisi2
 2171 18c4 0C3023E0 		eor	r3, r3, ip
 2172 18c8 FF3003E2 		and	r3, r3, #255
 2173 18cc 033223E0 		eor	r3, r3, r3, asl #4
 2174 18d0 FF3003E2 		and	r3, r3, #255
 2175 18d4 0324A0E1 		mov	r2, r3, asl #8
 2176 18d8 2C2482E1 		orr	r2, r2, ip, lsr #8
 2177 18dc 232222E0 		eor	r2, r2, r3, lsr #4
 2178 18e0 832122E0 		eor	r2, r2, r3, asl #3
 2179 18e4 011081E2 		add	r1, r1, #1
 2180 18e8 0228A0E1 		mov	r2, r2, asl #16
 2181 18ec 2D0051E3 		cmp	r1, #45
 2182 18f0 22C8A0E1 		mov	ip, r2, lsr #16
 2183 18f4 F1FFFF1A 		bne	.L144
 2184 18f8 2C34A0E1 		mov	r3, ip, lsr #8
 2185 18fc 0000A0E3 		mov	r0, #0
 2186 1900 281081E2 		add	r1, r1, #40
 2187 1904 8531CDE5 		strb	r3, [sp, #389]
 2188 1908 84C1CDE5 		strb	ip, [sp, #388]
 2189 190c FEFFFFEB 		bl	comm_send_ch
 2190 1910 0000A0E3 		mov	r0, #0
 2191 1914 8010DDE5 		ldrb	r1, [sp, #128]	@ zero_extendqisi2
 2192 1918 FEFFFFEB 		bl	comm_send_ch
 2193 191c 0000A0E3 		mov	r0, #0
 2194 1920 8110DDE5 		ldrb	r1, [sp, #129]	@ zero_extendqisi2
 2195 1924 FEFFFFEB 		bl	comm_send_ch
 2196 1928 0000A0E3 		mov	r0, #0
 2197 192c 8210DDE5 		ldrb	r1, [sp, #130]	@ zero_extendqisi2
 2198 1930 FEFFFFEB 		bl	comm_send_ch
 2199 1934 0000A0E3 		mov	r0, #0
 2200 1938 8310DDE5 		ldrb	r1, [sp, #131]	@ zero_extendqisi2
 2201 193c FEFFFFEB 		bl	comm_send_ch
 2202 1940 0000A0E3 		mov	r0, #0
 2203 1944 8410DDE5 		ldrb	r1, [sp, #132]	@ zero_extendqisi2
 2204 1948 FEFFFFEB 		bl	comm_send_ch
 2205 194c 8030DDE5 		ldrb	r3, [sp, #128]	@ zero_extendqisi2
 2206 1950 000053E3 		cmp	r3, #0
 2207 1954 0B00000A 		beq	.L146
 2208 1958 0040A0E3 		mov	r4, #0
 2209              	.L148:
 2210 195c 62BF8DE2 		add	fp, sp, #392
 2211 1960 04308BE0 		add	r3, fp, r4
 2212 1964 031153E5 		ldrb	r1, [r3, #-259]	@ zero_extendqisi2
 2213 1968 0000A0E3 		mov	r0, #0
 2214 196c FEFFFFEB 		bl	comm_send_ch
 2215 1970 013084E2 		add	r3, r4, #1
 2216 1974 0338A0E1 		mov	r3, r3, asl #16
 2217 1978 8020DDE5 		ldrb	r2, [sp, #128]	@ zero_extendqisi2
 2218 197c 2348A0E1 		mov	r4, r3, lsr #16
 2219 1980 040052E1 		cmp	r2, r4
 2220 1984 F4FFFF8A 		bhi	.L148
 2221              	.L146:
 2222 1988 8411DDE5 		ldrb	r1, [sp, #388]	@ zero_extendqisi2
 2223 198c 0000A0E3 		mov	r0, #0
 2224 1990 FEFFFFEB 		bl	comm_send_ch
 2225 1994 0000A0E3 		mov	r0, #0
 2226 1998 8511DDE5 		ldrb	r1, [sp, #389]	@ zero_extendqisi2
 2227 199c FEFFFFEB 		bl	comm_send_ch
 2228 19a0 15FFFFEA 		b	.L149
 2229              	.L155:
 2230              		.align	2
 2231              	.L154:
 2232 19a4 00000000 		.word	global_data
 2233 19a8 00000000 		.word	mavlink_system
 2234 19ac 00000000 		.word	m_mavlink_status.2143
 2236              		.align	2
 2237              		.global	fuse_vision_altitude_200hz
 2239              	fuse_vision_altitude_200hz:
 2240              		@ Function supports interworking.
 2241              		@ args = 0, pretend = 0, frame = 264
 2242              		@ frame_needed = 0, uses_anonymous_args = 0
 2243 19b0 F0452DE9 		stmfd	sp!, {r4, r5, r6, r7, r8, sl, lr}
 2244 19b4 24429FE5 		ldr	r4, .L170
 2245 19b8 24529FE5 		ldr	r5, .L170+4
 2246 19bc 24629FE5 		ldr	r6, .L170+8
 2247 19c0 42DF4DE2 		sub	sp, sp, #264
 2248 19c4 0400A0E1 		mov	r0, r4
 2249 19c8 0510A0E1 		mov	r1, r5
 2250 19cc 0620A0E1 		mov	r2, r6
 2251 19d0 FEFFFFEB 		bl	x_position_kalman3
 2252 19d4 9DAE44E2 		sub	sl, r4, #2512
 2253 19d8 0400A0E1 		mov	r0, r4
 2254 19dc 0510A0E1 		mov	r1, r5
 2255 19e0 0620A0E1 		mov	r2, r6
 2256 19e4 FEFFFFEB 		bl	y_position_kalman3
 2257 19e8 0CA04AE2 		sub	sl, sl, #12
 2258 19ec 0400A0E1 		mov	r0, r4
 2259 19f0 0510A0E1 		mov	r1, r5
 2260 19f4 0620A0E1 		mov	r2, r6
 2261 19f8 FEFFFFEB 		bl	z_position_kalman3
 2262 19fc 140A9AE5 		ldr	r0, [sl, #2580]
 2263 1a00 087095E5 		ldr	r7, [r5, #8]	@ float
 2264 1a04 083096E5 		ldr	r3, [r6, #8]	@ float
 2265 1a08 002095E5 		ldr	r2, [r5, #0]	@ float
 2266 1a0c 041095E5 		ldr	r1, [r5, #4]	@ float
 2267 1a10 00C096E5 		ldr	ip, [r6, #0]	@ float
 2268 1a14 04E096E5 		ldr	lr, [r6, #4]	@ float
 2269 1a18 000050E3 		cmp	r0, #0
 2270 1a1c 6C3904E5 		str	r3, [r4, #-2412]	@ float
 2271 1a20 682904E5 		str	r2, [r4, #-2408]	@ float
 2272 1a24 641904E5 		str	r1, [r4, #-2404]	@ float
 2273 1a28 7C708AE5 		str	r7, [sl, #124]	@ float
 2274 1a2c 74C904E5 		str	ip, [r4, #-2420]	@ float
 2275 1a30 6CE08AE5 		str	lr, [sl, #108]	@ float
 2276 1a34 5E00000A 		beq	.L157
 2277 1a38 7C039AE5 		ldr	r0, [sl, #892]	@ float
 2278 1a3c FEFFFFEB 		bl	__fixunssfsi
 2279 1a40 0C2A9AE5 		ldr	r2, [sl, #2572]
 2280 1a44 043A9AE5 		ldr	r3, [sl, #2564]
 2281 1a48 032052E0 		subs	r2, r2, r3
 2282 1a4c 0080A0E1 		mov	r8, r0
 2283 1a50 5C00004A 		bmi	.L160
 2284 1a54 0200A0E1 		mov	r0, r2
 2285 1a58 FEFFFFEB 		bl	__floatsisf
 2286              	.L159:
 2287 1a5c FF3008E2 		and	r3, r8, #255
 2288 1a60 84219FE5 		ldr	r2, .L170+12
 2289 1a64 033183E0 		add	r3, r3, r3, asl #2
 2290 1a68 032182E0 		add	r2, r2, r3, asl #2
 2291 1a6c 0E50D2E5 		ldrb	r5, [r2, #14]	@ zero_extendqisi2
 2292 1a70 78119FE5 		ldr	r1, .L170+16
 2293 1a74 01C085E2 		add	ip, r5, #1
 2294 1a78 0170D1E5 		ldrb	r7, [r1, #1]	@ zero_extendqisi2
 2295 1a7c 0060D1E5 		ldrb	r6, [r1, #0]	@ zero_extendqisi2
 2296 1a80 0030E0E3 		mvn	r3, #0
 2297 1a84 0EC0C2E5 		strb	ip, [r2, #14]
 2298 1a88 40E8A0E1 		mov	lr, r0, asr #16
 2299 1a8c 4044A0E1 		mov	r4, r0, asr #8
 2300 1a90 0430CDE5 		strb	r3, [sp, #4]
 2301 1a94 6420A0E3 		mov	r2, #100
 2302 1a98 063083E2 		add	r3, r3, #6
 2303 1a9c 401CA0E1 		mov	r1, r0, asr #24
 2304 1aa0 01C8A0E3 		mov	ip, #65536
 2305 1aa4 0520CDE5 		strb	r2, [sp, #5]
 2306 1aa8 07E0CDE5 		strb	lr, [sp, #7]
 2307 1aac 0840CDE5 		strb	r4, [sp, #8]
 2308 1ab0 0030CDE5 		strb	r3, [sp, #0]
 2309 1ab4 0260CDE5 		strb	r6, [sp, #2]
 2310 1ab8 0370CDE5 		strb	r7, [sp, #3]
 2311 1abc 0150CDE5 		strb	r5, [sp, #1]
 2312 1ac0 0610CDE5 		strb	r1, [sp, #6]
 2313 1ac4 0900CDE5 		strb	r0, [sp, #9]
 2314 1ac8 01C04CE2 		sub	ip, ip, #1
 2315 1acc 0D00A0E1 		mov	r0, sp
 2316 1ad0 0010A0E3 		mov	r1, #0
 2317              	.L161:
 2318 1ad4 0030D1E7 		ldrb	r3, [r1, r0]	@ zero_extendqisi2
 2319 1ad8 0C3023E0 		eor	r3, r3, ip
 2320 1adc FF3003E2 		and	r3, r3, #255
 2321 1ae0 033223E0 		eor	r3, r3, r3, asl #4
 2322 1ae4 FF3003E2 		and	r3, r3, #255
 2323 1ae8 0324A0E1 		mov	r2, r3, asl #8
 2324 1aec 2C2482E1 		orr	r2, r2, ip, lsr #8
 2325 1af0 232222E0 		eor	r2, r2, r3, lsr #4
 2326 1af4 832122E0 		eor	r2, r2, r3, asl #3
 2327 1af8 011081E2 		add	r1, r1, #1
 2328 1afc 0228A0E1 		mov	r2, r2, asl #16
 2329 1b00 0A0051E3 		cmp	r1, #10
 2330 1b04 22C8A0E1 		mov	ip, r2, lsr #16
 2331 1b08 F1FFFF1A 		bne	.L161
 2332 1b0c 2C34A0E1 		mov	r3, ip, lsr #8
 2333 1b10 4B1081E2 		add	r1, r1, #75
 2334 1b14 0800A0E1 		mov	r0, r8
 2335 1b18 0531CDE5 		strb	r3, [sp, #261]
 2336 1b1c 04C1CDE5 		strb	ip, [sp, #260]
 2337 1b20 FEFFFFEB 		bl	comm_send_ch
 2338 1b24 0800A0E1 		mov	r0, r8
 2339 1b28 0010DDE5 		ldrb	r1, [sp, #0]	@ zero_extendqisi2
 2340 1b2c FEFFFFEB 		bl	comm_send_ch
 2341 1b30 0800A0E1 		mov	r0, r8
 2342 1b34 0110DDE5 		ldrb	r1, [sp, #1]	@ zero_extendqisi2
 2343 1b38 FEFFFFEB 		bl	comm_send_ch
 2344 1b3c 0800A0E1 		mov	r0, r8
 2345 1b40 0210DDE5 		ldrb	r1, [sp, #2]	@ zero_extendqisi2
 2346 1b44 FEFFFFEB 		bl	comm_send_ch
 2347 1b48 0800A0E1 		mov	r0, r8
 2348 1b4c 0310DDE5 		ldrb	r1, [sp, #3]	@ zero_extendqisi2
 2349 1b50 FEFFFFEB 		bl	comm_send_ch
 2350 1b54 0800A0E1 		mov	r0, r8
 2351 1b58 0410DDE5 		ldrb	r1, [sp, #4]	@ zero_extendqisi2
 2352 1b5c FEFFFFEB 		bl	comm_send_ch
 2353 1b60 0030DDE5 		ldrb	r3, [sp, #0]	@ zero_extendqisi2
 2354 1b64 000053E3 		cmp	r3, #0
 2355 1b68 0B00000A 		beq	.L163
 2356 1b6c 0040A0E3 		mov	r4, #0
 2357              	.L165:
 2358 1b70 422F8DE2 		add	r2, sp, #264
 2359 1b74 043082E0 		add	r3, r2, r4
 2360 1b78 031153E5 		ldrb	r1, [r3, #-259]	@ zero_extendqisi2
 2361 1b7c 0800A0E1 		mov	r0, r8
 2362 1b80 FEFFFFEB 		bl	comm_send_ch
 2363 1b84 013084E2 		add	r3, r4, #1
 2364 1b88 0338A0E1 		mov	r3, r3, asl #16
 2365 1b8c 0020DDE5 		ldrb	r2, [sp, #0]	@ zero_extendqisi2
 2366 1b90 2348A0E1 		mov	r4, r3, lsr #16
 2367 1b94 040052E1 		cmp	r2, r4
 2368 1b98 F4FFFF8A 		bhi	.L165
 2369              	.L163:
 2370 1b9c 0411DDE5 		ldrb	r1, [sp, #260]	@ zero_extendqisi2
 2371 1ba0 0800A0E1 		mov	r0, r8
 2372 1ba4 FEFFFFEB 		bl	comm_send_ch
 2373 1ba8 0800A0E1 		mov	r0, r8
 2374 1bac 0511DDE5 		ldrb	r1, [sp, #261]	@ zero_extendqisi2
 2375 1bb0 FEFFFFEB 		bl	comm_send_ch
 2376              	.L157:
 2377 1bb4 0030A0E3 		mov	r3, #0
 2378 1bb8 143A8AE5 		str	r3, [sl, #2580]
 2379 1bbc 42DF8DE2 		add	sp, sp, #264
 2380 1bc0 F045BDE8 		ldmfd	sp!, {r4, r5, r6, r7, r8, sl, lr}
 2381 1bc4 1EFF2FE1 		bx	lr
 2382              	.L160:
 2383 1bc8 010002E2 		and	r0, r2, #1
 2384 1bcc A20080E1 		orr	r0, r0, r2, lsr #1
 2385 1bd0 FEFFFFEB 		bl	__floatsisf
 2386 1bd4 0010A0E1 		mov	r1, r0
 2387 1bd8 FEFFFFEB 		bl	__addsf3
 2388 1bdc 9EFFFFEA 		b	.L159
 2389              	.L171:
 2390              		.align	2
 2391              	.L170:
 2392 1be0 DC090000 		.word	global_data+2524
 2393 1be4 5C000000 		.word	pos_est3.21209
 2394 1be8 50000000 		.word	vel_est3.21210
 2395 1bec 00000000 		.word	m_mavlink_status.2143
 2396 1bf0 00000000 		.word	mavlink_system
 2398              		.align	2
 2399              		.global	handle_controller_timeouts
 2401              	handle_controller_timeouts:
 2402              		@ Function supports interworking.
 2403              		@ args = 0, pretend = 0, frame = 320
 2404              		@ frame_needed = 0, uses_anonymous_args = 0
 2405 1bf4 F04F2DE9 		stmfd	sp!, {r4, r5, r6, r7, r8, r9, sl, fp, lr}
 2406 1bf8 B0249FE5 		ldr	r2, .L212
 2407 1bfc B0B49FE5 		ldr	fp, .L212+4
 2408 1c00 0E20D2E5 		ldrb	r2, [r2, #14]	@ zero_extendqisi2
 2409 1c04 80309BE5 		ldr	r3, [fp, #128]	@ float
 2410 1c08 05DD4DE2 		sub	sp, sp, #320
 2411 1c0c 24208DE5 		str	r2, [sp, #36]
 2412 1c10 0320A0E1 		mov	r2, r3
 2413 1c14 9C349FE5 		ldr	r3, .L212+8
 2414 1c18 0030D3E5 		ldrb	r3, [r3, #0]	@ zero_extendqisi2
 2415 1c1c 20308DE5 		str	r3, [sp, #32]
 2416 1c20 90349FE5 		ldr	r3, .L212+8
 2417 1c24 0130D3E5 		ldrb	r3, [r3, #1]	@ zero_extendqisi2
 2418 1c28 84C09BE5 		ldr	ip, [fp, #132]	@ float
 2419 1c2c 1C308DE5 		str	r3, [sp, #28]
 2420 1c30 24309DE5 		ldr	r3, [sp, #36]
 2421 1c34 0C50A0E1 		mov	r5, ip
 2422 1c38 88E09BE5 		ldr	lr, [fp, #136]	@ float
 2423 1c3c 013083E2 		add	r3, r3, #1
 2424 1c40 8C409BE5 		ldr	r4, [fp, #140]	@ float
 2425 1c44 00308DE5 		str	r3, [sp, #0]
 2426 1c48 453CA0E1 		mov	r3, r5, asr #24
 2427 1c4c 0E60A0E1 		mov	r6, lr
 2428 1c50 18308DE5 		str	r3, [sp, #24]
 2429 1c54 4538A0E1 		mov	r3, r5, asr #16
 2430 1c58 04C0A0E1 		mov	ip, r4
 2431 1c5c 14308DE5 		str	r3, [sp, #20]
 2432 1c60 4634A0E1 		mov	r3, r6, asr #8
 2433 1c64 10308DE5 		str	r3, [sp, #16]
 2434 1c68 4C3CA0E1 		mov	r3, ip, asr #24
 2435 1c6c 0C308DE5 		str	r3, [sp, #12]
 2436 1c70 4C38A0E1 		mov	r3, ip, asr #16
 2437 1c74 42ECA0E1 		mov	lr, r2, asr #24
 2438 1c78 4248A0E1 		mov	r4, r2, asr #16
 2439 1c7c 4274A0E1 		mov	r7, r2, asr #8
 2440 1c80 08308DE5 		str	r3, [sp, #8]
 2441 1c84 4020CDE5 		strb	r2, [sp, #64]
 2442 1c88 4C34A0E1 		mov	r3, ip, asr #8
 2443 1c8c 18209DE5 		ldr	r2, [sp, #24]
 2444 1c90 04308DE5 		str	r3, [sp, #4]
 2445 1c94 3330A0E3 		mov	r3, #51
 2446 1c98 3C30CDE5 		strb	r3, [sp, #60]
 2447 1c9c 4120CDE5 		strb	r2, [sp, #65]
 2448 1ca0 10208DE2 		add	r2, sp, #16
 2449 1ca4 0C0092E8 		ldmia	r2, {r2, r3}	@ phole ldm
 2450 1ca8 4594A0E1 		mov	r9, r5, asr #8
 2451 1cac 46ACA0E1 		mov	sl, r6, asr #24
 2452 1cb0 4688A0E1 		mov	r8, r6, asr #16
 2453 1cb4 4230CDE5 		strb	r3, [sp, #66]
 2454 1cb8 4450CDE5 		strb	r5, [sp, #68]
 2455 1cbc 3DE0CDE5 		strb	lr, [sp, #61]
 2456 1cc0 3E40CDE5 		strb	r4, [sp, #62]
 2457 1cc4 3F70CDE5 		strb	r7, [sp, #63]
 2458 1cc8 4390CDE5 		strb	r9, [sp, #67]
 2459 1ccc 45A0CDE5 		strb	sl, [sp, #69]
 2460 1cd0 4680CDE5 		strb	r8, [sp, #70]
 2461 1cd4 4720CDE5 		strb	r2, [sp, #71]
 2462 1cd8 0C309DE5 		ldr	r3, [sp, #12]
 2463 1cdc 4930CDE5 		strb	r3, [sp, #73]
 2464 1ce0 04309DE5 		ldr	r3, [sp, #4]
 2465 1ce4 08209DE5 		ldr	r2, [sp, #8]
 2466 1ce8 4B30CDE5 		strb	r3, [sp, #75]
 2467 1cec 1030A0E3 		mov	r3, #16
 2468 1cf0 4A20CDE5 		strb	r2, [sp, #74]
 2469 1cf4 3830CDE5 		strb	r3, [sp, #56]
 2470 1cf8 20209DE5 		ldr	r2, [sp, #32]
 2471 1cfc 1C309DE5 		ldr	r3, [sp, #28]
 2472 1d00 3A20CDE5 		strb	r2, [sp, #58]
 2473 1d04 3B30CDE5 		strb	r3, [sp, #59]
 2474 1d08 A0239FE5 		ldr	r2, .L212
 2475 1d0c 00309DE5 		ldr	r3, [sp, #0]
 2476 1d10 4860CDE5 		strb	r6, [sp, #72]
 2477 1d14 4CC0CDE5 		strb	ip, [sp, #76]
 2478 1d18 0E30C2E5 		strb	r3, [r2, #14]
 2479 1d1c 24209DE5 		ldr	r2, [sp, #36]
 2480 1d20 01C8A0E3 		mov	ip, #65536
 2481 1d24 3920CDE5 		strb	r2, [sp, #57]
 2482 1d28 0160A0E1 		mov	r6, r1
 2483 1d2c 0050A0E1 		mov	r5, r0
 2484 1d30 01C04CE2 		sub	ip, ip, #1
 2485 1d34 0010A0E3 		mov	r1, #0
 2486              	.L173:
 2487 1d38 382081E2 		add	r2, r1, #56
 2488 1d3c 0D30D2E7 		ldrb	r3, [r2, sp]	@ zero_extendqisi2
 2489 1d40 0C3023E0 		eor	r3, r3, ip
 2490 1d44 FF3003E2 		and	r3, r3, #255
 2491 1d48 033223E0 		eor	r3, r3, r3, asl #4
 2492 1d4c FF3003E2 		and	r3, r3, #255
 2493 1d50 0324A0E1 		mov	r2, r3, asl #8
 2494 1d54 2C2482E1 		orr	r2, r2, ip, lsr #8
 2495 1d58 232222E0 		eor	r2, r2, r3, lsr #4
 2496 1d5c 832122E0 		eor	r2, r2, r3, asl #3
 2497 1d60 011081E2 		add	r1, r1, #1
 2498 1d64 0228A0E1 		mov	r2, r2, asl #16
 2499 1d68 150051E3 		cmp	r1, #21
 2500 1d6c 22C8A0E1 		mov	ip, r2, lsr #16
 2501 1d70 F0FFFF1A 		bne	.L173
 2502 1d74 2C34A0E1 		mov	r3, ip, lsr #8
 2503 1d78 0000A0E3 		mov	r0, #0
 2504 1d7c 401081E2 		add	r1, r1, #64
 2505 1d80 3D31CDE5 		strb	r3, [sp, #317]
 2506 1d84 3CC1CDE5 		strb	ip, [sp, #316]
 2507 1d88 FEFFFFEB 		bl	comm_send_ch
 2508 1d8c 0000A0E3 		mov	r0, #0
 2509 1d90 3810DDE5 		ldrb	r1, [sp, #56]	@ zero_extendqisi2
 2510 1d94 FEFFFFEB 		bl	comm_send_ch
 2511 1d98 0000A0E3 		mov	r0, #0
 2512 1d9c 3910DDE5 		ldrb	r1, [sp, #57]	@ zero_extendqisi2
 2513 1da0 FEFFFFEB 		bl	comm_send_ch
 2514 1da4 0000A0E3 		mov	r0, #0
 2515 1da8 3A10DDE5 		ldrb	r1, [sp, #58]	@ zero_extendqisi2
 2516 1dac FEFFFFEB 		bl	comm_send_ch
 2517 1db0 0000A0E3 		mov	r0, #0
 2518 1db4 3B10DDE5 		ldrb	r1, [sp, #59]	@ zero_extendqisi2
 2519 1db8 FEFFFFEB 		bl	comm_send_ch
 2520 1dbc 0000A0E3 		mov	r0, #0
 2521 1dc0 3C10DDE5 		ldrb	r1, [sp, #60]	@ zero_extendqisi2
 2522 1dc4 FEFFFFEB 		bl	comm_send_ch
 2523 1dc8 3830DDE5 		ldrb	r3, [sp, #56]	@ zero_extendqisi2
 2524 1dcc 000053E3 		cmp	r3, #0
 2525 1dd0 0B00000A 		beq	.L175
 2526 1dd4 0040A0E3 		mov	r4, #0
 2527              	.L177:
 2528 1dd8 052D8DE2 		add	r2, sp, #320
 2529 1ddc 043082E0 		add	r3, r2, r4
 2530 1de0 031153E5 		ldrb	r1, [r3, #-259]	@ zero_extendqisi2
 2531 1de4 0000A0E3 		mov	r0, #0
 2532 1de8 FEFFFFEB 		bl	comm_send_ch
 2533 1dec 013084E2 		add	r3, r4, #1
 2534 1df0 0338A0E1 		mov	r3, r3, asl #16
 2535 1df4 3820DDE5 		ldrb	r2, [sp, #56]	@ zero_extendqisi2
 2536 1df8 2348A0E1 		mov	r4, r3, lsr #16
 2537 1dfc 040052E1 		cmp	r2, r4
 2538 1e00 F4FFFF8A 		bhi	.L177
 2539              	.L175:
 2540 1e04 0000A0E3 		mov	r0, #0
 2541 1e08 3C11DDE5 		ldrb	r1, [sp, #316]	@ zero_extendqisi2
 2542 1e0c FEFFFFEB 		bl	comm_send_ch
 2543 1e10 3D11DDE5 		ldrb	r1, [sp, #317]	@ zero_extendqisi2
 2544 1e14 0000A0E3 		mov	r0, #0
 2545 1e18 FEFFFFEB 		bl	comm_send_ch
 2546 1e1c 181A9BE5 		ldr	r1, [fp, #2584]
 2547 1e20 1C2A9BE5 		ldr	r2, [fp, #2588]
 2548 1e24 023091E1 		orrs	r3, r1, r2
 2549 1e28 0900000A 		beq	.L178
 2550 1e2c 80329FE5 		ldr	r3, .L212+4
 2551 1e30 0540A0E1 		mov	r4, r5
 2552 1e34 F00293E5 		ldr	r0, [r3, #752]	@ float
 2553 1e38 0650A0E1 		mov	r5, r6
 2554 1e3c 014054E0 		subs	r4, r4, r1
 2555 1e40 0250C5E0 		sbc	r5, r5, r2
 2556 1e44 FEFFFFEB 		bl	__fixunssfsi
 2557 1e48 000055E3 		cmp	r5, #0
 2558 1e4c 0010A0E3 		mov	r1, #0
 2559 1e50 8E00009A 		bls	.L210
 2560              	.L178:
 2561 1e54 0030A0E3 		mov	r3, #0
 2562 1e58 3331CBE5 		strb	r3, [fp, #307]
 2563 1e5c 2C31CBE5 		strb	r3, [fp, #300]
 2564              	.L182:
 2565 1e60 0140A0E3 		mov	r4, #1
 2566 1e64 74029BE5 		ldr	r0, [fp, #628]	@ float
 2567 1e68 0010A0E3 		mov	r1, #0
 2568 1e6c 3541CBE5 		strb	r4, [fp, #309]
 2569 1e70 FEFFFFEB 		bl	__gtsf2
 2570 1e74 38229FE5 		ldr	r2, .L212+4
 2571 1e78 000050E3 		cmp	r0, #0
 2572 1e7c 0030A0D3 		movle	r3, #0
 2573 1e80 3631C2D5 		strleb	r3, [r2, #310]
 2574 1e84 3641C2C5 		strgtb	r4, [r2, #310]
 2575 1e88 78029BE5 		ldr	r0, [fp, #632]	@ float
 2576 1e8c 0010A0E3 		mov	r1, #0
 2577 1e90 FEFFFFEB 		bl	__gtsf2
 2578 1e94 18229FE5 		ldr	r2, .L212+4
 2579 1e98 000050E3 		cmp	r0, #0
 2580 1e9c 0130A0C3 		movgt	r3, #1
 2581 1ea0 0030A0D3 		movle	r3, #0
 2582 1ea4 3731C2C5 		strgtb	r3, [r2, #311]
 2583 1ea8 3731C2D5 		strleb	r3, [r2, #311]
 2584 1eac 7C029BE5 		ldr	r0, [fp, #636]	@ float
 2585 1eb0 0010A0E3 		mov	r1, #0
 2586 1eb4 FEFFFFEB 		bl	__gtsf2
 2587 1eb8 F4219FE5 		ldr	r2, .L212+4
 2588 1ebc 000050E3 		cmp	r0, #0
 2589 1ec0 0130A0C3 		movgt	r3, #1
 2590 1ec4 0030A0D3 		movle	r3, #0
 2591 1ec8 3831C2C5 		strgtb	r3, [r2, #312]
 2592 1ecc 3831C2D5 		strleb	r3, [r2, #312]
 2593 1ed0 7C039BE5 		ldr	r0, [fp, #892]	@ float
 2594 1ed4 FEFFFFEB 		bl	__fixunssfsi
 2595 1ed8 2C21DBE5 		ldrb	r2, [fp, #300]	@ zero_extendqisi2
 2596 1edc 000052E3 		cmp	r2, #0
 2597 1ee0 CC319F05 		ldreq	r3, .L212+4
 2598 1ee4 3331D305 		ldreqb	r3, [r3, #307]	@ zero_extendqisi2
 2599 1ee8 0320A013 		movne	r2, #3
 2600 1eec 34208D15 		strne	r2, [sp, #52]
 2601 1ef0 30208D15 		strne	r2, [sp, #48]
 2602 1ef4 30308D05 		streq	r3, [sp, #48]
 2603 1ef8 34208D05 		streq	r2, [sp, #52]
 2604 1efc AC319FE5 		ldr	r3, .L212
 2605 1f00 FF2000E2 		and	r2, r0, #255
 2606 1f04 022182E0 		add	r2, r2, r2, asl #2
 2607 1f08 022183E0 		add	r2, r3, r2, asl #2
 2608 1f0c A4319FE5 		ldr	r3, .L212+8
 2609 1f10 0130D3E5 		ldrb	r3, [r3, #1]	@ zero_extendqisi2
 2610 1f14 0E60D2E5 		ldrb	r6, [r2, #14]	@ zero_extendqisi2
 2611 1f18 28308DE5 		str	r3, [sp, #40]
 2612 1f1c 94319FE5 		ldr	r3, .L212+8
 2613 1f20 0030D3E5 		ldrb	r3, [r3, #0]	@ zero_extendqisi2
 2614 1f24 011086E2 		add	r1, r6, #1
 2615 1f28 2C308DE5 		str	r3, [sp, #44]
 2616 1f2c 35C1DBE5 		ldrb	ip, [fp, #309]	@ zero_extendqisi2
 2617 1f30 3871DBE5 		ldrb	r7, [fp, #312]	@ zero_extendqisi2
 2618 1f34 36E1DBE5 		ldrb	lr, [fp, #310]	@ zero_extendqisi2
 2619 1f38 3741DBE5 		ldrb	r4, [fp, #311]	@ zero_extendqisi2
 2620 1f3c 3430A0E3 		mov	r3, #52
 2621 1f40 0090A0E1 		mov	r9, r0
 2622 1f44 2D01DBE5 		ldrb	r0, [fp, #301]	@ zero_extendqisi2
 2623 1f48 0E10C2E5 		strb	r1, [r2, #14]
 2624 1f4c 3C30CDE5 		strb	r3, [sp, #60]
 2625 1f50 30208DE2 		add	r2, sp, #48
 2626 1f54 0C0092E8 		ldmia	r2, {r2, r3}	@ phole ldm
 2627 1f58 3E30CDE5 		strb	r3, [sp, #62]
 2628 1f5c 0830A0E3 		mov	r3, #8
 2629 1f60 3D20CDE5 		strb	r2, [sp, #61]
 2630 1f64 3830CDE5 		strb	r3, [sp, #56]
 2631 1f68 2C209DE5 		ldr	r2, [sp, #44]
 2632 1f6c 28309DE5 		ldr	r3, [sp, #40]
 2633 1f70 0050A0E3 		mov	r5, #0
 2634 1f74 41C0CDE5 		strb	ip, [sp, #65]
 2635 1f78 3F00CDE5 		strb	r0, [sp, #63]
 2636 1f7c 42E0CDE5 		strb	lr, [sp, #66]
 2637 1f80 4340CDE5 		strb	r4, [sp, #67]
 2638 1f84 4470CDE5 		strb	r7, [sp, #68]
 2639 1f88 3A20CDE5 		strb	r2, [sp, #58]
 2640 1f8c 3B30CDE5 		strb	r3, [sp, #59]
 2641 1f90 4050CDE5 		strb	r5, [sp, #64]
 2642 1f94 01C8A0E3 		mov	ip, #65536
 2643 1f98 3960CDE5 		strb	r6, [sp, #57]
 2644 1f9c 01C04CE2 		sub	ip, ip, #1
 2645              	.L198:
 2646 1fa0 382085E2 		add	r2, r5, #56
 2647 1fa4 0D30D2E7 		ldrb	r3, [r2, sp]	@ zero_extendqisi2
 2648 1fa8 0C3023E0 		eor	r3, r3, ip
 2649 1fac FF3003E2 		and	r3, r3, #255
 2650 1fb0 033223E0 		eor	r3, r3, r3, asl #4
 2651 1fb4 FF3003E2 		and	r3, r3, #255
 2652 1fb8 0324A0E1 		mov	r2, r3, asl #8
 2653 1fbc 2C2482E1 		orr	r2, r2, ip, lsr #8
 2654 1fc0 232222E0 		eor	r2, r2, r3, lsr #4
 2655 1fc4 832122E0 		eor	r2, r2, r3, asl #3
 2656 1fc8 015085E2 		add	r5, r5, #1
 2657 1fcc 0228A0E1 		mov	r2, r2, asl #16
 2658 1fd0 0D0055E3 		cmp	r5, #13
 2659 1fd4 22C8A0E1 		mov	ip, r2, lsr #16
 2660 1fd8 F0FFFF1A 		bne	.L198
 2661 1fdc 2C34A0E1 		mov	r3, ip, lsr #8
 2662 1fe0 5510A0E3 		mov	r1, #85
 2663 1fe4 0900A0E1 		mov	r0, r9
 2664 1fe8 3D31CDE5 		strb	r3, [sp, #317]
 2665 1fec 3CC1CDE5 		strb	ip, [sp, #316]
 2666 1ff0 FEFFFFEB 		bl	comm_send_ch
 2667 1ff4 0900A0E1 		mov	r0, r9
 2668 1ff8 3810DDE5 		ldrb	r1, [sp, #56]	@ zero_extendqisi2
 2669 1ffc FEFFFFEB 		bl	comm_send_ch
 2670 2000 0900A0E1 		mov	r0, r9
 2671 2004 3910DDE5 		ldrb	r1, [sp, #57]	@ zero_extendqisi2
 2672 2008 FEFFFFEB 		bl	comm_send_ch
 2673 200c 0900A0E1 		mov	r0, r9
 2674 2010 3A10DDE5 		ldrb	r1, [sp, #58]	@ zero_extendqisi2
 2675 2014 FEFFFFEB 		bl	comm_send_ch
 2676 2018 0900A0E1 		mov	r0, r9
 2677 201c 3B10DDE5 		ldrb	r1, [sp, #59]	@ zero_extendqisi2
 2678 2020 FEFFFFEB 		bl	comm_send_ch
 2679 2024 0900A0E1 		mov	r0, r9
 2680 2028 3C10DDE5 		ldrb	r1, [sp, #60]	@ zero_extendqisi2
 2681 202c FEFFFFEB 		bl	comm_send_ch
 2682 2030 3830DDE5 		ldrb	r3, [sp, #56]	@ zero_extendqisi2
 2683 2034 000053E3 		cmp	r3, #0
 2684 2038 0B00000A 		beq	.L200
 2685 203c 0040A0E3 		mov	r4, #0
 2686              	.L202:
 2687 2040 052D8DE2 		add	r2, sp, #320
 2688 2044 043082E0 		add	r3, r2, r4
 2689 2048 031153E5 		ldrb	r1, [r3, #-259]	@ zero_extendqisi2
 2690 204c 0900A0E1 		mov	r0, r9
 2691 2050 FEFFFFEB 		bl	comm_send_ch
 2692 2054 013084E2 		add	r3, r4, #1
 2693 2058 0338A0E1 		mov	r3, r3, asl #16
 2694 205c 3820DDE5 		ldrb	r2, [sp, #56]	@ zero_extendqisi2
 2695 2060 2348A0E1 		mov	r4, r3, lsr #16
 2696 2064 040052E1 		cmp	r2, r4
 2697 2068 F4FFFF8A 		bhi	.L202
 2698              	.L200:
 2699 206c 3C11DDE5 		ldrb	r1, [sp, #316]	@ zero_extendqisi2
 2700 2070 0900A0E1 		mov	r0, r9
 2701 2074 FEFFFFEB 		bl	comm_send_ch
 2702 2078 0900A0E1 		mov	r0, r9
 2703 207c 3D11DDE5 		ldrb	r1, [sp, #317]	@ zero_extendqisi2
 2704 2080 FEFFFFEB 		bl	comm_send_ch
 2705 2084 05DD8DE2 		add	sp, sp, #320
 2706 2088 F04FBDE8 		ldmfd	sp!, {r4, r5, r6, r7, r8, r9, sl, fp, lr}
 2707 208c 1EFF2FE1 		bx	lr
 2708              	.L210:
 2709 2090 0300000A 		beq	.L211
 2710              	.L180:
 2711 2094 0130A0E3 		mov	r3, #1
 2712 2098 3331CBE5 		strb	r3, [fp, #307]
 2713 209c 2C31CBE5 		strb	r3, [fp, #300]
 2714 20a0 6EFFFFEA 		b	.L182
 2715              	.L211:
 2716 20a4 000054E1 		cmp	r4, r0
 2717 20a8 F9FFFF9A 		bls	.L180
 2718 20ac 68FFFFEA 		b	.L178
 2719              	.L213:
 2720              		.align	2
 2721              	.L212:
 2722 20b0 00000000 		.word	m_mavlink_status.2143
 2723 20b4 00000000 		.word	global_data
 2724 20b8 00000000 		.word	mavlink_system
 2726              		.align	2
 2727              		.global	communication_send_remote_control
 2729              	communication_send_remote_control:
 2730              		@ Function supports interworking.
 2731              		@ args = 0, pretend = 0, frame = 360
 2732              		@ frame_needed = 0, uses_anonymous_args = 0
 2733 20bc F04F2DE9 		stmfd	sp!, {r4, r5, r6, r7, r8, r9, sl, fp, lr}
 2734 20c0 38439FE5 		ldr	r4, .L231
 2735 20c4 5ADF4DE2 		sub	sp, sp, #360
 2736 20c8 FE15A0E3 		mov	r1, #1065353216
 2737 20cc 880394E5 		ldr	r0, [r4, #904]	@ float
 2738 20d0 FEFFFFEB 		bl	__eqsf2
 2739 20d4 000050E3 		cmp	r0, #0
 2740 20d8 0200000A 		beq	.L230
 2741              	.L226:
 2742 20dc 5ADF8DE2 		add	sp, sp, #360
 2743 20e0 F04FBDE8 		ldmfd	sp!, {r4, r5, r6, r7, r8, r9, sl, fp, lr}
 2744 20e4 1EFF2FE1 		bx	lr
 2745              	.L230:
 2746 20e8 7C0394E5 		ldr	r0, [r4, #892]	@ float
 2747 20ec FEFFFFEB 		bl	__fixunssfsi
 2748 20f0 00B0A0E1 		mov	fp, r0
 2749 20f4 0100A0E3 		mov	r0, #1
 2750 20f8 FEFFFFEB 		bl	ppm_get_channel
 2751 20fc 28008DE5 		str	r0, [sp, #40]
 2752 2100 0200A0E3 		mov	r0, #2
 2753 2104 FEFFFFEB 		bl	ppm_get_channel
 2754 2108 2C008DE5 		str	r0, [sp, #44]
 2755 210c 0300A0E3 		mov	r0, #3
 2756 2110 FEFFFFEB 		bl	ppm_get_channel
 2757 2114 30008DE5 		str	r0, [sp, #48]
 2758 2118 0400A0E3 		mov	r0, #4
 2759 211c FEFFFFEB 		bl	ppm_get_channel
 2760 2120 34008DE5 		str	r0, [sp, #52]
 2761 2124 0500A0E3 		mov	r0, #5
 2762 2128 FEFFFFEB 		bl	ppm_get_channel
 2763 212c 38008DE5 		str	r0, [sp, #56]
 2764 2130 0600A0E3 		mov	r0, #6
 2765 2134 FEFFFFEB 		bl	ppm_get_channel
 2766 2138 3C008DE5 		str	r0, [sp, #60]
 2767 213c 0700A0E3 		mov	r0, #7
 2768 2140 FEFFFFEB 		bl	ppm_get_channel
 2769 2144 40008DE5 		str	r0, [sp, #64]
 2770 2148 0800A0E3 		mov	r0, #8
 2771 214c FEFFFFEB 		bl	ppm_get_channel
 2772 2150 0040A0E1 		mov	r4, r0
 2773 2154 0100A0E3 		mov	r0, #1
 2774 2158 FEFFFFEB 		bl	ppm_get_channel
 2775 215c 28C09DE5 		ldr	ip, [sp, #40]
 2776 2160 0C88A0E1 		mov	r8, ip, asl #16
 2777 2164 2CC09DE5 		ldr	ip, [sp, #44]
 2778 2168 0C78A0E1 		mov	r7, ip, asl #16
 2779 216c 30C09DE5 		ldr	ip, [sp, #48]
 2780 2170 0C68A0E1 		mov	r6, ip, asl #16
 2781 2174 34C09DE5 		ldr	ip, [sp, #52]
 2782 2178 FF300BE2 		and	r3, fp, #255
 2783 217c 0C58A0E1 		mov	r5, ip, asl #16
 2784 2180 7C229FE5 		ldr	r2, .L231+4
 2785 2184 38C09DE5 		ldr	ip, [sp, #56]
 2786 2188 033183E0 		add	r3, r3, r3, asl #2
 2787 218c 032182E0 		add	r2, r2, r3, asl #2
 2788 2190 0CC8A0E1 		mov	ip, ip, asl #16
 2789 2194 0E30D2E5 		ldrb	r3, [r2, #14]	@ zero_extendqisi2
 2790 2198 1CC08DE5 		str	ip, [sp, #28]
 2791 219c 3CC09DE5 		ldr	ip, [sp, #60]
 2792 21a0 0CC8A0E1 		mov	ip, ip, asl #16
 2793 21a4 14C08DE5 		str	ip, [sp, #20]
 2794 21a8 40C09DE5 		ldr	ip, [sp, #64]
 2795 21ac 00308DE5 		str	r3, [sp, #0]
 2796 21b0 0CC8A0E1 		mov	ip, ip, asl #16
 2797 21b4 7B3EA0E3 		mov	r3, #1968
 2798 21b8 0CC08DE5 		str	ip, [sp, #12]
 2799 21bc 44129FE5 		ldr	r1, .L231+8
 2800 21c0 013083E2 		add	r3, r3, #1
 2801 21c4 030050E1 		cmp	r0, r3
 2802 21c8 263CA0E1 		mov	r3, r6, lsr #24
 2803 21cc 01C0D1E5 		ldrb	ip, [r1, #1]	@ zero_extendqisi2
 2804 21d0 0010D1E5 		ldrb	r1, [r1, #0]	@ zero_extendqisi2
 2805 21d4 24308DE5 		str	r3, [sp, #36]
 2806 21d8 253CA0E1 		mov	r3, r5, lsr #24
 2807 21dc 20308DE5 		str	r3, [sp, #32]
 2808 21e0 1C309DE5 		ldr	r3, [sp, #28]
 2809 21e4 233CA0E1 		mov	r3, r3, lsr #24
 2810 21e8 18308DE5 		str	r3, [sp, #24]
 2811 21ec 14309DE5 		ldr	r3, [sp, #20]
 2812 21f0 233CA0E1 		mov	r3, r3, lsr #24
 2813 21f4 10308DE5 		str	r3, [sp, #16]
 2814 21f8 0C309DE5 		ldr	r3, [sp, #12]
 2815 21fc 0448A0E1 		mov	r4, r4, asl #16
 2816 2200 233CA0E1 		mov	r3, r3, lsr #24
 2817 2204 08308DE5 		str	r3, [sp, #8]
 2818 2208 243CA0E1 		mov	r3, r4, lsr #24
 2819 220c 04308DE5 		str	r3, [sp, #4]
 2820 2210 00309DE5 		ldr	r3, [sp, #0]
 2821 2214 5C108DE5 		str	r1, [sp, #92]
 2822 2218 011083E2 		add	r1, r3, #1
 2823 221c 1C309DE5 		ldr	r3, [sp, #28]
 2824 2220 2338A0E1 		mov	r3, r3, lsr #16
 2825 2224 4C308DE5 		str	r3, [sp, #76]
 2826 2228 14309DE5 		ldr	r3, [sp, #20]
 2827 222c 2338A0E1 		mov	r3, r3, lsr #16
 2828 2230 48308DE5 		str	r3, [sp, #72]
 2829 2234 0C309DE5 		ldr	r3, [sp, #12]
 2830 2238 27ECA0E1 		mov	lr, r7, lsr #24
 2831 223c 2338A0E1 		mov	r3, r3, lsr #16
 2832 2240 2778A0E1 		mov	r7, r7, lsr #16
 2833 2244 2558A0E1 		mov	r5, r5, lsr #16
 2834 2248 58C08DE5 		str	ip, [sp, #88]
 2835 224c 54708DE5 		str	r7, [sp, #84]
 2836 2250 28CCA0E1 		mov	ip, r8, lsr #24
 2837 2254 50508DE5 		str	r5, [sp, #80]
 2838 2258 44308DE5 		str	r3, [sp, #68]
 2839 225c 0E10C2E5 		strb	r1, [r2, #14]
 2840 2260 2330A0E3 		mov	r3, #35
 2841 2264 65C0CDE5 		strb	ip, [sp, #101]
 2842 2268 54C09DE5 		ldr	ip, [sp, #84]
 2843 226c 6430CDE5 		strb	r3, [sp, #100]
 2844 2270 20309DE5 		ldr	r3, [sp, #32]
 2845 2274 24209DE5 		ldr	r2, [sp, #36]
 2846 2278 68C0CDE5 		strb	ip, [sp, #104]
 2847 227c 50C09DE5 		ldr	ip, [sp, #80]
 2848 2280 6B30CDE5 		strb	r3, [sp, #107]
 2849 2284 4C309DE5 		ldr	r3, [sp, #76]
 2850 2288 6920CDE5 		strb	r2, [sp, #105]
 2851 228c 6CC0CDE5 		strb	ip, [sp, #108]
 2852 2290 18209DE5 		ldr	r2, [sp, #24]
 2853 2294 10C09DE5 		ldr	ip, [sp, #16]
 2854 2298 6E30CDE5 		strb	r3, [sp, #110]
 2855 229c 08309DE5 		ldr	r3, [sp, #8]
 2856 22a0 6D20CDE5 		strb	r2, [sp, #109]
 2857 22a4 6FC0CDE5 		strb	ip, [sp, #111]
 2858 22a8 48209DE5 		ldr	r2, [sp, #72]
 2859 22ac 44C09DE5 		ldr	ip, [sp, #68]
 2860 22b0 7130CDE5 		strb	r3, [sp, #113]
 2861 22b4 1130A0E3 		mov	r3, #17
 2862 22b8 7020CDE5 		strb	r2, [sp, #112]
 2863 22bc 72C0CDE5 		strb	ip, [sp, #114]
 2864 22c0 04209DE5 		ldr	r2, [sp, #4]
 2865 22c4 6030CDE5 		strb	r3, [sp, #96]
 2866 22c8 58C09DE5 		ldr	ip, [sp, #88]
 2867 22cc 5C309DE5 		ldr	r3, [sp, #92]
 2868 22d0 FF00A0D3 		movle	r0, #255
 2869 22d4 0000A0C3 		movgt	r0, #0
 2870 22d8 2898A0E1 		mov	r9, r8, lsr #16
 2871 22dc 26A8A0E1 		mov	sl, r6, lsr #16
 2872 22e0 2448A0E1 		mov	r4, r4, lsr #16
 2873 22e4 7320CDE5 		strb	r2, [sp, #115]
 2874 22e8 7500CDE5 		strb	r0, [sp, #117]
 2875 22ec 6690CDE5 		strb	r9, [sp, #102]
 2876 22f0 67E0CDE5 		strb	lr, [sp, #103]
 2877 22f4 6AA0CDE5 		strb	sl, [sp, #106]
 2878 22f8 7440CDE5 		strb	r4, [sp, #116]
 2879 22fc 6230CDE5 		strb	r3, [sp, #98]
 2880 2300 63C0CDE5 		strb	ip, [sp, #99]
 2881 2304 00209DE5 		ldr	r2, [sp, #0]
 2882 2308 01C8A0E3 		mov	ip, #65536
 2883 230c 6120CDE5 		strb	r2, [sp, #97]
 2884 2310 01C04CE2 		sub	ip, ip, #1
 2885 2314 60008DE2 		add	r0, sp, #96
 2886 2318 0010A0E3 		mov	r1, #0
 2887              	.L221:
 2888 231c 0030D1E7 		ldrb	r3, [r1, r0]	@ zero_extendqisi2
 2889 2320 0C3023E0 		eor	r3, r3, ip
 2890 2324 FF3003E2 		and	r3, r3, #255
 2891 2328 033223E0 		eor	r3, r3, r3, asl #4
 2892 232c FF3003E2 		and	r3, r3, #255
 2893 2330 0324A0E1 		mov	r2, r3, asl #8
 2894 2334 2C2482E1 		orr	r2, r2, ip, lsr #8
 2895 2338 232222E0 		eor	r2, r2, r3, lsr #4
 2896 233c 832122E0 		eor	r2, r2, r3, asl #3
 2897 2340 011081E2 		add	r1, r1, #1
 2898 2344 0228A0E1 		mov	r2, r2, asl #16
 2899 2348 160051E3 		cmp	r1, #22
 2900 234c 22C8A0E1 		mov	ip, r2, lsr #16
 2901 2350 F1FFFF1A 		bne	.L221
 2902 2354 2C34A0E1 		mov	r3, ip, lsr #8
 2903 2358 3F1081E2 		add	r1, r1, #63
 2904 235c 0B00A0E1 		mov	r0, fp
 2905 2360 6531CDE5 		strb	r3, [sp, #357]
 2906 2364 64C1CDE5 		strb	ip, [sp, #356]
 2907 2368 FEFFFFEB 		bl	comm_send_ch
 2908 236c 0B00A0E1 		mov	r0, fp
 2909 2370 6010DDE5 		ldrb	r1, [sp, #96]	@ zero_extendqisi2
 2910 2374 FEFFFFEB 		bl	comm_send_ch
 2911 2378 0B00A0E1 		mov	r0, fp
 2912 237c 6110DDE5 		ldrb	r1, [sp, #97]	@ zero_extendqisi2
 2913 2380 FEFFFFEB 		bl	comm_send_ch
 2914 2384 0B00A0E1 		mov	r0, fp
 2915 2388 6210DDE5 		ldrb	r1, [sp, #98]	@ zero_extendqisi2
 2916 238c FEFFFFEB 		bl	comm_send_ch
 2917 2390 0B00A0E1 		mov	r0, fp
 2918 2394 6310DDE5 		ldrb	r1, [sp, #99]	@ zero_extendqisi2
 2919 2398 FEFFFFEB 		bl	comm_send_ch
 2920 239c 0B00A0E1 		mov	r0, fp
 2921 23a0 6410DDE5 		ldrb	r1, [sp, #100]	@ zero_extendqisi2
 2922 23a4 FEFFFFEB 		bl	comm_send_ch
 2923 23a8 6030DDE5 		ldrb	r3, [sp, #96]	@ zero_extendqisi2
 2924 23ac 000053E3 		cmp	r3, #0
 2925 23b0 0B00000A 		beq	.L223
 2926 23b4 0040A0E3 		mov	r4, #0
 2927              	.L225:
 2928 23b8 5ACF8DE2 		add	ip, sp, #360
 2929 23bc 04308CE0 		add	r3, ip, r4
 2930 23c0 031153E5 		ldrb	r1, [r3, #-259]	@ zero_extendqisi2
 2931 23c4 0B00A0E1 		mov	r0, fp
 2932 23c8 FEFFFFEB 		bl	comm_send_ch
 2933 23cc 013084E2 		add	r3, r4, #1
 2934 23d0 0338A0E1 		mov	r3, r3, asl #16
 2935 23d4 6020DDE5 		ldrb	r2, [sp, #96]	@ zero_extendqisi2
 2936 23d8 2348A0E1 		mov	r4, r3, lsr #16
 2937 23dc 040052E1 		cmp	r2, r4
 2938 23e0 F4FFFF8A 		bhi	.L225
 2939              	.L223:
 2940 23e4 6411DDE5 		ldrb	r1, [sp, #356]	@ zero_extendqisi2
 2941 23e8 0B00A0E1 		mov	r0, fp
 2942 23ec FEFFFFEB 		bl	comm_send_ch
 2943 23f0 0B00A0E1 		mov	r0, fp
 2944 23f4 6511DDE5 		ldrb	r1, [sp, #357]	@ zero_extendqisi2
 2945 23f8 FEFFFFEB 		bl	comm_send_ch
 2946 23fc 36FFFFEA 		b	.L226
 2947              	.L232:
 2948              		.align	2
 2949              	.L231:
 2950 2400 00000000 		.word	global_data
 2951 2404 00000000 		.word	m_mavlink_status.2143
 2952 2408 00000000 		.word	mavlink_system
 2954              		.align	2
 2955              		.global	communication_send_raw_data
 2957              	communication_send_raw_data:
 2958              		@ Function supports interworking.
 2959              		@ args = 0, pretend = 0, frame = 372
 2960              		@ frame_needed = 0, uses_anonymous_args = 0
 2961 240c F04F2DE9 		stmfd	sp!, {r4, r5, r6, r7, r8, r9, sl, fp, lr}
 2962 2410 78439FE5 		ldr	r4, .L247
 2963 2414 5DDF4DE2 		sub	sp, sp, #372
 2964 2418 0050A0E1 		mov	r5, r0
 2965 241c 0160A0E1 		mov	r6, r1
 2966 2420 840394E5 		ldr	r0, [r4, #900]	@ float
 2967 2424 FE15A0E3 		mov	r1, #1065353216
 2968 2428 FEFFFFEB 		bl	__eqsf2
 2969 242c 000050E3 		cmp	r0, #0
 2970 2430 0200000A 		beq	.L246
 2971              	.L242:
 2972 2434 5DDF8DE2 		add	sp, sp, #372
 2973 2438 F04FBDE8 		ldmfd	sp!, {r4, r5, r6, r7, r8, r9, sl, fp, lr}
 2974 243c 1EFF2FE1 		bx	lr
 2975              	.L246:
 2976 2440 7C0394E5 		ldr	r0, [r4, #892]	@ float
 2977 2444 FEFFFFEB 		bl	__fixunssfsi
 2978 2448 00B0A0E1 		mov	fp, r0
 2979 244c FEFFFFEB 		bl	sys_time_clock_get_unix_offset
 2980 2450 B071D4E1 		ldrh	r7, [r4, #16]
 2981 2454 BA21D4E1 		ldrh	r2, [r4, #26]
 2982 2458 0778A0E1 		mov	r7, r7, asl #16
 2983 245c 1C708DE5 		str	r7, [sp, #28]
 2984 2460 0228A0E1 		mov	r2, r2, asl #16
 2985 2464 057090E0 		adds	r7, r0, r5
 2986 2468 B402D4E1 		ldrh	r0, [r4, #36]
 2987 246c 2C208DE5 		str	r2, [sp, #44]
 2988 2470 B481D4E1 		ldrh	r8, [r4, #20]
 2989 2474 64008DE5 		str	r0, [sp, #100]
 2990 2478 2C009DE5 		ldr	r0, [sp, #44]
 2991 247c 0888A0E1 		mov	r8, r8, asl #16
 2992 2480 0C808DE5 		str	r8, [sp, #12]
 2993 2484 08239FE5 		ldr	r2, .L247+4
 2994 2488 200CA0E1 		mov	r0, r0, lsr #24
 2995 248c FF300BE2 		and	r3, fp, #255
 2996 2490 28008DE5 		str	r0, [sp, #40]
 2997 2494 033183E0 		add	r3, r3, r3, asl #2
 2998 2498 0C009DE5 		ldr	r0, [sp, #12]
 2999 249c B8E1D4E1 		ldrh	lr, [r4, #24]
 3000 24a0 033182E0 		add	r3, r2, r3, asl #2
 3001 24a4 0680A1E0 		adc	r8, r1, r6
 3002 24a8 BCC1D4E1 		ldrh	ip, [r4, #28]
 3003 24ac B291D4E1 		ldrh	r9, [r4, #18]
 3004 24b0 68308DE5 		str	r3, [sp, #104]
 3005 24b4 200CA0E1 		mov	r0, r0, lsr #24
 3006 24b8 0030A0E3 		mov	r3, #0
 3007 24bc B0A2D4E1 		ldrh	sl, [r4, #32]
 3008 24c0 0EE8A0E1 		mov	lr, lr, asl #16
 3009 24c4 48308DE5 		str	r3, [sp, #72]
 3010 24c8 08008DE5 		str	r0, [sp, #8]
 3011 24cc 1C309DE5 		ldr	r3, [sp, #28]
 3012 24d0 2804A0E1 		mov	r0, r8, lsr #8
 3013 24d4 0CC8A0E1 		mov	ip, ip, asl #16
 3014 24d8 0998A0E1 		mov	r9, r9, asl #16
 3015 24dc 2E6CA0E1 		mov	r6, lr, lsr #24
 3016 24e0 282CA0E1 		mov	r2, r8, lsr #24
 3017 24e4 34008DE5 		str	r0, [sp, #52]
 3018 24e8 2C009DE5 		ldr	r0, [sp, #44]
 3019 24ec 0AA8A0E1 		mov	sl, sl, asl #16
 3020 24f0 44208DE5 		str	r2, [sp, #68]
 3021 24f4 30608DE5 		str	r6, [sp, #48]
 3022 24f8 2C2CA0E1 		mov	r2, ip, lsr #24
 3023 24fc 296CA0E1 		mov	r6, r9, lsr #24
 3024 2500 233CA0E1 		mov	r3, r3, lsr #24
 3025 2504 20208DE5 		str	r2, [sp, #32]
 3026 2508 18308DE5 		str	r3, [sp, #24]
 3027 250c 2A2CA0E1 		mov	r2, sl, lsr #24
 3028 2510 10608DE5 		str	r6, [sp, #16]
 3029 2514 2838A0E1 		mov	r3, r8, lsr #16
 3030 2518 0060A0E3 		mov	r6, #0
 3031 251c 2008A0E1 		mov	r0, r0, lsr #16
 3032 2520 24C08DE5 		str	ip, [sp, #36]
 3033 2524 14908DE5 		str	r9, [sp, #20]
 3034 2528 B2C2D4E1 		ldrh	ip, [r4, #34]
 3035 252c 04048DE8 		stmia	sp, {r2, sl}	@ phole stm
 3036 2530 3C308DE5 		str	r3, [sp, #60]
 3037 2534 40608DE5 		str	r6, [sp, #64]
 3038 2538 38608DE5 		str	r6, [sp, #56]
 3039 253c 60008DE5 		str	r0, [sp, #96]
 3040 2540 24009DE5 		ldr	r0, [sp, #36]
 3041 2544 2008A0E1 		mov	r0, r0, lsr #16
 3042 2548 5C008DE5 		str	r0, [sp, #92]
 3043 254c 1C009DE5 		ldr	r0, [sp, #28]
 3044 2550 2008A0E1 		mov	r0, r0, lsr #16
 3045 2554 58008DE5 		str	r0, [sp, #88]
 3046 2558 14009DE5 		ldr	r0, [sp, #20]
 3047 255c 2008A0E1 		mov	r0, r0, lsr #16
 3048 2560 54008DE5 		str	r0, [sp, #84]
 3049 2564 0C009DE5 		ldr	r0, [sp, #12]
 3050 2568 2008A0E1 		mov	r0, r0, lsr #16
 3051 256c 50008DE5 		str	r0, [sp, #80]
 3052 2570 04009DE5 		ldr	r0, [sp, #4]
 3053 2574 2008A0E1 		mov	r0, r0, lsr #16
 3054 2578 4C008DE5 		str	r0, [sp, #76]
 3055 257c 1C00A0E3 		mov	r0, #28
 3056 2580 7000CDE5 		strb	r0, [sp, #112]
 3057 2584 4400DDE5 		ldrb	r0, [sp, #68]	@ zero_extendqisi2
 3058 2588 2734A0E1 		mov	r3, r7, lsr #8
 3059 258c 7100CDE5 		strb	r0, [sp, #113]
 3060 2590 3C00DDE5 		ldrb	r0, [sp, #60]	@ zero_extendqisi2
 3061 2594 083C83E1 		orr	r3, r3, r8, asl #24
 3062 2598 30209DE5 		ldr	r2, [sp, #48]
 3063 259c 7200CDE5 		strb	r0, [sp, #114]
 3064 25a0 7730CDE5 		strb	r3, [sp, #119]
 3065 25a4 3400DDE5 		ldrb	r0, [sp, #52]	@ zero_extendqisi2
 3066 25a8 28309DE5 		ldr	r3, [sp, #40]
 3067 25ac 06A0A0E1 		mov	sl, r6
 3068 25b0 7300CDE5 		strb	r0, [sp, #115]
 3069 25b4 60609DE5 		ldr	r6, [sp, #96]
 3070 25b8 20009DE5 		ldr	r0, [sp, #32]
 3071 25bc 7920CDE5 		strb	r2, [sp, #121]
 3072 25c0 7B30CDE5 		strb	r3, [sp, #123]
 3073 25c4 5C209DE5 		ldr	r2, [sp, #92]
 3074 25c8 18309DE5 		ldr	r3, [sp, #24]
 3075 25cc 275CA0E1 		mov	r5, r7, lsr #24
 3076 25d0 2718A0E1 		mov	r1, r7, lsr #16
 3077 25d4 085485E1 		orr	r5, r5, r8, asl #8
 3078 25d8 081881E1 		orr	r1, r1, r8, asl #16
 3079 25dc 2EE8A0E1 		mov	lr, lr, lsr #16
 3080 25e0 7550CDE5 		strb	r5, [sp, #117]
 3081 25e4 7610CDE5 		strb	r1, [sp, #118]
 3082 25e8 7AE0CDE5 		strb	lr, [sp, #122]
 3083 25ec 7C60CDE5 		strb	r6, [sp, #124]
 3084 25f0 7D00CDE5 		strb	r0, [sp, #125]
 3085 25f4 7E20CDE5 		strb	r2, [sp, #126]
 3086 25f8 7480CDE5 		strb	r8, [sp, #116]
 3087 25fc 7870CDE5 		strb	r7, [sp, #120]
 3088 2600 7F30CDE5 		strb	r3, [sp, #127]
 3089 2604 58609DE5 		ldr	r6, [sp, #88]
 3090 2608 10009DE5 		ldr	r0, [sp, #16]
 3091 260c 08309DE5 		ldr	r3, [sp, #8]
 3092 2610 8060CDE5 		strb	r6, [sp, #128]
 3093 2614 8100CDE5 		strb	r0, [sp, #129]
 3094 2618 54209DE5 		ldr	r2, [sp, #84]
 3095 261c 8330CDE5 		strb	r3, [sp, #131]
 3096 2620 50609DE5 		ldr	r6, [sp, #80]
 3097 2624 00009DE5 		ldr	r0, [sp, #0]
 3098 2628 4C309DE5 		ldr	r3, [sp, #76]
 3099 262c 8220CDE5 		strb	r2, [sp, #130]
 3100 2630 8460CDE5 		strb	r6, [sp, #132]
 3101 2634 5C219FE5 		ldr	r2, .L247+8
 3102 2638 8630CDE5 		strb	r3, [sp, #134]
 3103 263c 8500CDE5 		strb	r0, [sp, #133]
 3104 2640 68609DE5 		ldr	r6, [sp, #104]
 3105 2644 0140D2E5 		ldrb	r4, [r2, #1]	@ zero_extendqisi2
 3106 2648 0E00D6E5 		ldrb	r0, [r6, #14]	@ zero_extendqisi2
 3107 264c 00E0D2E5 		ldrb	lr, [r2, #0]	@ zero_extendqisi2
 3108 2650 64209DE5 		ldr	r2, [sp, #100]
 3109 2654 013080E2 		add	r3, r0, #1
 3110 2658 0258A0E1 		mov	r5, r2, asl #16
 3111 265c 0CC8A0E1 		mov	ip, ip, asl #16
 3112 2660 0E30C6E5 		strb	r3, [r6, #14]
 3113 2664 251CA0E1 		mov	r1, r5, lsr #24
 3114 2668 2C2CA0E1 		mov	r2, ip, lsr #24
 3115 266c 2558A0E1 		mov	r5, r5, lsr #16
 3116 2670 2CC8A0E1 		mov	ip, ip, lsr #16
 3117 2674 1A30A0E3 		mov	r3, #26
 3118 2678 88C0CDE5 		strb	ip, [sp, #136]
 3119 267c 8720CDE5 		strb	r2, [sp, #135]
 3120 2680 01C8A0E3 		mov	ip, #65536
 3121 2684 8A50CDE5 		strb	r5, [sp, #138]
 3122 2688 6C30CDE5 		strb	r3, [sp, #108]
 3123 268c 6EE0CDE5 		strb	lr, [sp, #110]
 3124 2690 6F40CDE5 		strb	r4, [sp, #111]
 3125 2694 8910CDE5 		strb	r1, [sp, #137]
 3126 2698 6D00CDE5 		strb	r0, [sp, #109]
 3127 269c 0890A0E1 		mov	r9, r8
 3128 26a0 01C04CE2 		sub	ip, ip, #1
 3129 26a4 6C008DE2 		add	r0, sp, #108
 3130 26a8 0A10A0E1 		mov	r1, sl
 3131              	.L237:
 3132 26ac 0030D1E7 		ldrb	r3, [r1, r0]	@ zero_extendqisi2
 3133 26b0 0C3023E0 		eor	r3, r3, ip
 3134 26b4 FF3003E2 		and	r3, r3, #255
 3135 26b8 033223E0 		eor	r3, r3, r3, asl #4
 3136 26bc FF3003E2 		and	r3, r3, #255
 3137 26c0 0324A0E1 		mov	r2, r3, asl #8
 3138 26c4 2C2482E1 		orr	r2, r2, ip, lsr #8
 3139 26c8 232222E0 		eor	r2, r2, r3, lsr #4
 3140 26cc 832122E0 		eor	r2, r2, r3, asl #3
 3141 26d0 011081E2 		add	r1, r1, #1
 3142 26d4 0228A0E1 		mov	r2, r2, asl #16
 3143 26d8 1F0051E3 		cmp	r1, #31
 3144 26dc 22C8A0E1 		mov	ip, r2, lsr #16
 3145 26e0 F1FFFF1A 		bne	.L237
 3146 26e4 2C34A0E1 		mov	r3, ip, lsr #8
 3147 26e8 361081E2 		add	r1, r1, #54
 3148 26ec 0B00A0E1 		mov	r0, fp
 3149 26f0 7131CDE5 		strb	r3, [sp, #369]
 3150 26f4 70C1CDE5 		strb	ip, [sp, #368]
 3151 26f8 FEFFFFEB 		bl	comm_send_ch
 3152 26fc 0B00A0E1 		mov	r0, fp
 3153 2700 6C10DDE5 		ldrb	r1, [sp, #108]	@ zero_extendqisi2
 3154 2704 FEFFFFEB 		bl	comm_send_ch
 3155 2708 0B00A0E1 		mov	r0, fp
 3156 270c 6D10DDE5 		ldrb	r1, [sp, #109]	@ zero_extendqisi2
 3157 2710 FEFFFFEB 		bl	comm_send_ch
 3158 2714 0B00A0E1 		mov	r0, fp
 3159 2718 6E10DDE5 		ldrb	r1, [sp, #110]	@ zero_extendqisi2
 3160 271c FEFFFFEB 		bl	comm_send_ch
 3161 2720 0B00A0E1 		mov	r0, fp
 3162 2724 6F10DDE5 		ldrb	r1, [sp, #111]	@ zero_extendqisi2
 3163 2728 FEFFFFEB 		bl	comm_send_ch
 3164 272c 0B00A0E1 		mov	r0, fp
 3165 2730 7010DDE5 		ldrb	r1, [sp, #112]	@ zero_extendqisi2
 3166 2734 FEFFFFEB 		bl	comm_send_ch
 3167 2738 6C30DDE5 		ldrb	r3, [sp, #108]	@ zero_extendqisi2
 3168 273c 000053E3 		cmp	r3, #0
 3169 2740 0B00000A 		beq	.L239
 3170 2744 0040A0E3 		mov	r4, #0
 3171              	.L241:
 3172 2748 5D6F8DE2 		add	r6, sp, #372
 3173 274c 043086E0 		add	r3, r6, r4
 3174 2750 031153E5 		ldrb	r1, [r3, #-259]	@ zero_extendqisi2
 3175 2754 0B00A0E1 		mov	r0, fp
 3176 2758 FEFFFFEB 		bl	comm_send_ch
 3177 275c 013084E2 		add	r3, r4, #1
 3178 2760 0338A0E1 		mov	r3, r3, asl #16
 3179 2764 6C20DDE5 		ldrb	r2, [sp, #108]	@ zero_extendqisi2
 3180 2768 2348A0E1 		mov	r4, r3, lsr #16
 3181 276c 040052E1 		cmp	r2, r4
 3182 2770 F4FFFF8A 		bhi	.L241
 3183              	.L239:
 3184 2774 7011DDE5 		ldrb	r1, [sp, #368]	@ zero_extendqisi2
 3185 2778 0B00A0E1 		mov	r0, fp
 3186 277c FEFFFFEB 		bl	comm_send_ch
 3187 2780 0B00A0E1 		mov	r0, fp
 3188 2784 7111DDE5 		ldrb	r1, [sp, #369]	@ zero_extendqisi2
 3189 2788 FEFFFFEB 		bl	comm_send_ch
 3190 278c 28FFFFEA 		b	.L242
 3191              	.L248:
 3192              		.align	2
 3193              	.L247:
 3194 2790 00000000 		.word	global_data
 3195 2794 00000000 		.word	m_mavlink_status.2143
 3196 2798 00000000 		.word	mavlink_system
 3198              		.align	2
 3199              		.global	communication_send_attitude_position
 3201              	communication_send_attitude_position:
 3202              		@ Function supports interworking.
 3203              		@ args = 0, pretend = 0, frame = 564
 3204              		@ frame_needed = 0, uses_anonymous_args = 0
 3205 279c F04F2DE9 		stmfd	sp!, {r4, r5, r6, r7, r8, r9, sl, fp, lr}
 3206 27a0 8DDF4DE2 		sub	sp, sp, #564
 3207 27a4 F8008DE5 		str	r0, [sp, #248]
 3208 27a8 FC108DE5 		str	r1, [sp, #252]
 3209 27ac 2C1A9FE5 		ldr	r1, .L283
 3210 27b0 800391E5 		ldr	r0, [r1, #896]	@ float
 3211 27b4 FE15A0E3 		mov	r1, #1065353216
 3212 27b8 FEFFFFEB 		bl	__eqsf2
 3213 27bc 000050E3 		cmp	r0, #0
 3214 27c0 D100000A 		beq	.L281
 3215              	.L250:
 3216 27c4 141A9FE5 		ldr	r1, .L283
 3217 27c8 A00391E5 		ldr	r0, [r1, #928]	@ float
 3218 27cc FE15A0E3 		mov	r1, #1065353216
 3219 27d0 FEFFFFEB 		bl	__eqsf2
 3220 27d4 000050E3 		cmp	r0, #0
 3221 27d8 005A9FE5 		ldr	r5, .L283
 3222 27dc 0200000A 		beq	.L282
 3223              	.L271:
 3224 27e0 8DDF8DE2 		add	sp, sp, #564
 3225 27e4 F04FBDE8 		ldmfd	sp!, {r4, r5, r6, r7, r8, r9, sl, fp, lr}
 3226 27e8 1EFF2FE1 		bx	lr
 3227              	.L282:
 3228 27ec FEFFFFEB 		bl	sys_time_clock_get_unix_offset
 3229 27f0 F8708DE2 		add	r7, sp, #248
 3230 27f4 800197E8 		ldmia	r7, {r7-r8}
 3231 27f8 743095E5 		ldr	r3, [r5, #116]	@ float
 3232 27fc 007097E0 		adds	r7, r7, r0
 3233 2800 0180A8E0 		adc	r8, r8, r1
 3234 2804 03B0A0E1 		mov	fp, r3
 3235 2808 782095E5 		ldr	r2, [r5, #120]	@ float
 3236 280c 2804A0E1 		mov	r0, r8, lsr #8
 3237 2810 30008DE5 		str	r0, [sp, #48]
 3238 2814 4B08A0E1 		mov	r0, fp, asr #16
 3239 2818 08218DE5 		str	r2, [sp, #264]	@ float
 3240 281c 2C008DE5 		str	r0, [sp, #44]
 3241 2820 4B04A0E1 		mov	r0, fp, asr #8
 3242 2824 28008DE5 		str	r0, [sp, #40]
 3243 2828 08019DE5 		ldr	r0, [sp, #264]
 3244 282c 400CA0E1 		mov	r0, r0, asr #24
 3245 2830 24008DE5 		str	r0, [sp, #36]
 3246 2834 08019DE5 		ldr	r0, [sp, #264]
 3247 2838 4008A0E1 		mov	r0, r0, asr #16
 3248 283c 7CC095E5 		ldr	ip, [r5, #124]	@ float
 3249 2840 20008DE5 		str	r0, [sp, #32]
 3250 2844 08019DE5 		ldr	r0, [sp, #264]
 3251 2848 04C18DE5 		str	ip, [sp, #260]	@ float
 3252 284c 4004A0E1 		mov	r0, r0, asr #8
 3253 2850 1C008DE5 		str	r0, [sp, #28]
 3254 2854 04019DE5 		ldr	r0, [sp, #260]
 3255 2858 400CA0E1 		mov	r0, r0, asr #24
 3256 285c 18008DE5 		str	r0, [sp, #24]
 3257 2860 04019DE5 		ldr	r0, [sp, #260]
 3258 2864 4008A0E1 		mov	r0, r0, asr #16
 3259 2868 68E095E5 		ldr	lr, [r5, #104]	@ float
 3260 286c 14008DE5 		str	r0, [sp, #20]
 3261 2870 04019DE5 		ldr	r0, [sp, #260]
 3262 2874 0EC0A0E1 		mov	ip, lr
 3263 2878 4004A0E1 		mov	r0, r0, asr #8
 3264 287c 6C4095E5 		ldr	r4, [r5, #108]	@ float
 3265 2880 10008DE5 		str	r0, [sp, #16]
 3266 2884 4C0CA0E1 		mov	r0, ip, asr #24
 3267 2888 705095E5 		ldr	r5, [r5, #112]	@ float
 3268 288c 0C008DE5 		str	r0, [sp, #12]
 3269 2890 4C08A0E1 		mov	r0, ip, asr #16
 3270 2894 0030A0E3 		mov	r3, #0
 3271 2898 282CA0E1 		mov	r2, r8, lsr #24
 3272 289c 00418DE5 		str	r4, [sp, #256]	@ float
 3273 28a0 08008DE5 		str	r0, [sp, #8]
 3274 28a4 2848A0E1 		mov	r4, r8, lsr #16
 3275 28a8 4C04A0E1 		mov	r0, ip, asr #8
 3276 28ac 28518DE5 		str	r5, [sp, #296]	@ float
 3277 28b0 40208DE5 		str	r2, [sp, #64]
 3278 28b4 44308DE5 		str	r3, [sp, #68]
 3279 28b8 38408DE5 		str	r4, [sp, #56]
 3280 28bc 3C308DE5 		str	r3, [sp, #60]
 3281 28c0 34308DE5 		str	r3, [sp, #52]
 3282 28c4 04008DE5 		str	r0, [sp, #4]
 3283 28c8 00019DE5 		ldr	r0, [sp, #256]
 3284 28cc 400CA0E1 		mov	r0, r0, asr #24
 3285 28d0 00008DE5 		str	r0, [sp, #0]
 3286 28d4 1F00A0E3 		mov	r0, #31
 3287 28d8 3001CDE5 		strb	r0, [sp, #304]
 3288 28dc 4000DDE5 		ldrb	r0, [sp, #64]	@ zero_extendqisi2
 3289 28e0 03A0A0E1 		mov	sl, r3
 3290 28e4 2718A0E1 		mov	r1, r7, lsr #16
 3291 28e8 2734A0E1 		mov	r3, r7, lsr #8
 3292 28ec 3101CDE5 		strb	r0, [sp, #305]
 3293 28f0 3800DDE5 		ldrb	r0, [sp, #56]	@ zero_extendqisi2
 3294 28f4 081881E1 		orr	r1, r1, r8, asl #16
 3295 28f8 083C83E1 		orr	r3, r3, r8, asl #24
 3296 28fc 28209DE5 		ldr	r2, [sp, #40]
 3297 2900 3201CDE5 		strb	r0, [sp, #306]
 3298 2904 3611CDE5 		strb	r1, [sp, #310]
 3299 2908 3000DDE5 		ldrb	r0, [sp, #48]	@ zero_extendqisi2
 3300 290c 2C109DE5 		ldr	r1, [sp, #44]
 3301 2910 3731CDE5 		strb	r3, [sp, #311]
 3302 2914 24309DE5 		ldr	r3, [sp, #36]
 3303 2918 275CA0E1 		mov	r5, r7, lsr #24
 3304 291c 085485E1 		orr	r5, r5, r8, asl #8
 3305 2920 20409DE5 		ldr	r4, [sp, #32]
 3306 2924 3301CDE5 		strb	r0, [sp, #307]
 3307 2928 3481CDE5 		strb	r8, [sp, #308]
 3308 292c 08019DE5 		ldr	r0, [sp, #264]
 3309 2930 3A11CDE5 		strb	r1, [sp, #314]
 3310 2934 3B21CDE5 		strb	r2, [sp, #315]
 3311 2938 18109DE5 		ldr	r1, [sp, #24]
 3312 293c 14209DE5 		ldr	r2, [sp, #20]
 3313 2940 3D31CDE5 		strb	r3, [sp, #317]
 3314 2944 0890A0E1 		mov	r9, r8
 3315 2948 10309DE5 		ldr	r3, [sp, #16]
 3316 294c 1C809DE5 		ldr	r8, [sp, #28]
 3317 2950 4BECA0E1 		mov	lr, fp, asr #24
 3318 2954 3551CDE5 		strb	r5, [sp, #309]
 3319 2958 3871CDE5 		strb	r7, [sp, #312]
 3320 295c 39E1CDE5 		strb	lr, [sp, #313]
 3321 2960 3E41CDE5 		strb	r4, [sp, #318]
 3322 2964 3F81CDE5 		strb	r8, [sp, #319]
 3323 2968 4001CDE5 		strb	r0, [sp, #320]
 3324 296c 4111CDE5 		strb	r1, [sp, #321]
 3325 2970 4221CDE5 		strb	r2, [sp, #322]
 3326 2974 3CB1CDE5 		strb	fp, [sp, #316]
 3327 2978 4331CDE5 		strb	r3, [sp, #323]
 3328 297c 04419DE5 		ldr	r4, [sp, #260]
 3329 2980 08008DE2 		add	r0, sp, #8
 3330 2984 010190E8 		ldmia	r0, {r0, r8}	@ phole ldm
 3331 2988 04109DE5 		ldr	r1, [sp, #4]
 3332 298c 00309DE5 		ldr	r3, [sp, #0]
 3333 2990 4441CDE5 		strb	r4, [sp, #324]
 3334 2994 4581CDE5 		strb	r8, [sp, #325]
 3335 2998 4601CDE5 		strb	r0, [sp, #326]
 3336 299c 4711CDE5 		strb	r1, [sp, #327]
 3337 29a0 48C1CDE5 		strb	ip, [sp, #328]
 3338 29a4 4931CDE5 		strb	r3, [sp, #329]
 3339 29a8 34489FE5 		ldr	r4, .L283+4
 3340 29ac 00819DE5 		ldr	r8, [sp, #256]
 3341 29b0 0E50D4E5 		ldrb	r5, [r4, #14]	@ zero_extendqisi2
 3342 29b4 2C289FE5 		ldr	r2, .L283+8
 3343 29b8 4818A0E1 		mov	r1, r8, asr #16
 3344 29bc 4804A0E1 		mov	r0, r8, asr #8
 3345 29c0 1C889FE5 		ldr	r8, .L283+4
 3346 29c4 0170D2E5 		ldrb	r7, [r2, #1]	@ zero_extendqisi2
 3347 29c8 0060D2E5 		ldrb	r6, [r2, #0]	@ zero_extendqisi2
 3348 29cc 013085E2 		add	r3, r5, #1
 3349 29d0 28219DE5 		ldr	r2, [sp, #296]	@ float
 3350 29d4 0E30C8E5 		strb	r3, [r8, #14]
 3351 29d8 42CCA0E1 		mov	ip, r2, asr #24
 3352 29dc 42E8A0E1 		mov	lr, r2, asr #16
 3353 29e0 4244A0E1 		mov	r4, r2, asr #8
 3354 29e4 4B01CDE5 		strb	r0, [sp, #331]
 3355 29e8 2030A0E3 		mov	r3, #32
 3356 29ec 00019DE5 		ldr	r0, [sp, #256]
 3357 29f0 4DC1CDE5 		strb	ip, [sp, #333]
 3358 29f4 4EE1CDE5 		strb	lr, [sp, #334]
 3359 29f8 01C8A0E3 		mov	ip, #65536
 3360 29fc 4F41CDE5 		strb	r4, [sp, #335]
 3361 2a00 5021CDE5 		strb	r2, [sp, #336]
 3362 2a04 2C31CDE5 		strb	r3, [sp, #300]
 3363 2a08 2E61CDE5 		strb	r6, [sp, #302]
 3364 2a0c 2F71CDE5 		strb	r7, [sp, #303]
 3365 2a10 2D51CDE5 		strb	r5, [sp, #301]
 3366 2a14 4A11CDE5 		strb	r1, [sp, #330]
 3367 2a18 4C01CDE5 		strb	r0, [sp, #332]
 3368 2a1c 01C04CE2 		sub	ip, ip, #1
 3369 2a20 4B0F8DE2 		add	r0, sp, #300
 3370 2a24 0A10A0E1 		mov	r1, sl
 3371              	.L266:
 3372 2a28 0030D1E7 		ldrb	r3, [r1, r0]	@ zero_extendqisi2
 3373 2a2c 0C3023E0 		eor	r3, r3, ip
 3374 2a30 FF3003E2 		and	r3, r3, #255
 3375 2a34 033223E0 		eor	r3, r3, r3, asl #4
 3376 2a38 FF3003E2 		and	r3, r3, #255
 3377 2a3c 0324A0E1 		mov	r2, r3, asl #8
 3378 2a40 2C2482E1 		orr	r2, r2, ip, lsr #8
 3379 2a44 232222E0 		eor	r2, r2, r3, lsr #4
 3380 2a48 832122E0 		eor	r2, r2, r3, asl #3
 3381 2a4c 011081E2 		add	r1, r1, #1
 3382 2a50 0228A0E1 		mov	r2, r2, asl #16
 3383 2a54 250051E3 		cmp	r1, #37
 3384 2a58 22C8A0E1 		mov	ip, r2, lsr #16
 3385 2a5c F1FFFF1A 		bne	.L266
 3386 2a60 2C34A0E1 		mov	r3, ip, lsr #8
 3387 2a64 0000A0E3 		mov	r0, #0
 3388 2a68 301081E2 		add	r1, r1, #48
 3389 2a6c 3132CDE5 		strb	r3, [sp, #561]
 3390 2a70 30C2CDE5 		strb	ip, [sp, #560]
 3391 2a74 FEFFFFEB 		bl	comm_send_ch
 3392 2a78 0000A0E3 		mov	r0, #0
 3393 2a7c 2C11DDE5 		ldrb	r1, [sp, #300]	@ zero_extendqisi2
 3394 2a80 FEFFFFEB 		bl	comm_send_ch
 3395 2a84 0000A0E3 		mov	r0, #0
 3396 2a88 2D11DDE5 		ldrb	r1, [sp, #301]	@ zero_extendqisi2
 3397 2a8c FEFFFFEB 		bl	comm_send_ch
 3398 2a90 0000A0E3 		mov	r0, #0
 3399 2a94 2E11DDE5 		ldrb	r1, [sp, #302]	@ zero_extendqisi2
 3400 2a98 FEFFFFEB 		bl	comm_send_ch
 3401 2a9c 0000A0E3 		mov	r0, #0
 3402 2aa0 2F11DDE5 		ldrb	r1, [sp, #303]	@ zero_extendqisi2
 3403 2aa4 FEFFFFEB 		bl	comm_send_ch
 3404 2aa8 0000A0E3 		mov	r0, #0
 3405 2aac 3011DDE5 		ldrb	r1, [sp, #304]	@ zero_extendqisi2
 3406 2ab0 FEFFFFEB 		bl	comm_send_ch
 3407 2ab4 2C31DDE5 		ldrb	r3, [sp, #300]	@ zero_extendqisi2
 3408 2ab8 000053E3 		cmp	r3, #0
 3409 2abc 0B00000A 		beq	.L268
 3410 2ac0 0040A0E3 		mov	r4, #0
 3411              	.L270:
 3412 2ac4 8D1F8DE2 		add	r1, sp, #564
 3413 2ac8 043081E0 		add	r3, r1, r4
 3414 2acc 031153E5 		ldrb	r1, [r3, #-259]	@ zero_extendqisi2
 3415 2ad0 0000A0E3 		mov	r0, #0
 3416 2ad4 FEFFFFEB 		bl	comm_send_ch
 3417 2ad8 013084E2 		add	r3, r4, #1
 3418 2adc 0338A0E1 		mov	r3, r3, asl #16
 3419 2ae0 2C21DDE5 		ldrb	r2, [sp, #300]	@ zero_extendqisi2
 3420 2ae4 2348A0E1 		mov	r4, r3, lsr #16
 3421 2ae8 040052E1 		cmp	r2, r4
 3422 2aec F4FFFF8A 		bhi	.L270
 3423              	.L268:
 3424 2af0 3012DDE5 		ldrb	r1, [sp, #560]	@ zero_extendqisi2
 3425 2af4 0000A0E3 		mov	r0, #0
 3426 2af8 FEFFFFEB 		bl	comm_send_ch
 3427 2afc 0000A0E3 		mov	r0, #0
 3428 2b00 3112DDE5 		ldrb	r1, [sp, #561]	@ zero_extendqisi2
 3429 2b04 FEFFFFEB 		bl	comm_send_ch
 3430 2b08 34FFFFEA 		b	.L271
 3431              	.L281:
 3432 2b0c FEFFFFEB 		bl	sys_time_clock_get_unix_offset
 3433 2b10 C8269FE5 		ldr	r2, .L283
 3434 2b14 F8908DE2 		add	r9, sp, #248
 3435 2b18 000699E8 		ldmia	r9, {r9-sl}
 3436 2b1c 009099E0 		adds	r9, r9, r0
 3437 2b20 7C0A92E5 		ldr	r0, [r2, #2684]
 3438 2b24 01A0AAE0 		adc	sl, sl, r1
 3439 2b28 FEFFFFEB 		bl	__floatsisf
 3440 2b2c AC369FE5 		ldr	r3, .L283
 3441 2b30 0050A0E1 		mov	r5, r0
 3442 2b34 800A93E5 		ldr	r0, [r3, #2688]
 3443 2b38 FEFFFFEB 		bl	__floatsisf
 3444 2b3c 9C469FE5 		ldr	r4, .L283
 3445 2b40 0060A0E1 		mov	r6, r0
 3446 2b44 840A94E5 		ldr	r0, [r4, #2692]
 3447 2b48 FEFFFFEB 		bl	__floatsisf
 3448 2b4c 8C869FE5 		ldr	r8, .L283
 3449 2b50 0040A0E1 		mov	r4, r0
 3450 2b54 880A98E5 		ldr	r0, [r8, #2696]
 3451 2b58 FEFFFFEB 		bl	__floatsisf
 3452 2b5c 2ACCA0E1 		mov	ip, sl, lsr #24
 3453 2b60 482098E5 		ldr	r2, [r8, #72]
 3454 2b64 F0C08DE5 		str	ip, [sp, #240]
 3455 2b68 00C0A0E3 		mov	ip, #0
 3456 2b6c 2A38A0E1 		mov	r3, sl, lsr #16
 3457 2b70 E4C08DE5 		str	ip, [sp, #228]
 3458 2b74 05C0A0E1 		mov	ip, r5
 3459 2b78 E8308DE5 		str	r3, [sp, #232]
 3460 2b7c 023182E2 		add	r3, r2, #-2147483648
 3461 2b80 4C2CA0E1 		mov	r2, ip, asr #24
 3462 2b84 DC208DE5 		str	r2, [sp, #220]
 3463 2b88 4C28A0E1 		mov	r2, ip, asr #16
 3464 2b8c D8208DE5 		str	r2, [sp, #216]
 3465 2b90 4C24A0E1 		mov	r2, ip, asr #8
 3466 2b94 D4208DE5 		str	r2, [sp, #212]
 3467 2b98 462CA0E1 		mov	r2, r6, asr #24
 3468 2b9c D0208DE5 		str	r2, [sp, #208]
 3469 2ba0 4628A0E1 		mov	r2, r6, asr #16
 3470 2ba4 CC208DE5 		str	r2, [sp, #204]
 3471 2ba8 4624A0E1 		mov	r2, r6, asr #8
 3472 2bac C8208DE5 		str	r2, [sp, #200]
 3473 2bb0 442CA0E1 		mov	r2, r4, asr #24
 3474 2bb4 C4208DE5 		str	r2, [sp, #196]
 3475 2bb8 4428A0E1 		mov	r2, r4, asr #16
 3476 2bbc 24018DE5 		str	r0, [sp, #292]	@ float
 3477 2bc0 C0208DE5 		str	r2, [sp, #192]
 3478 2bc4 4424A0E1 		mov	r2, r4, asr #8
 3479 2bc8 BC208DE5 		str	r2, [sp, #188]
 3480 2bcc 24219DE5 		ldr	r2, [sp, #292]
 3481 2bd0 422CA0E1 		mov	r2, r2, asr #24
 3482 2bd4 B8208DE5 		str	r2, [sp, #184]
 3483 2bd8 24219DE5 		ldr	r2, [sp, #292]
 3484 2bdc 4228A0E1 		mov	r2, r2, asr #16
 3485 2be0 B4208DE5 		str	r2, [sp, #180]
 3486 2be4 24219DE5 		ldr	r2, [sp, #292]
 3487 2be8 20318DE5 		str	r3, [sp, #288]	@ float
 3488 2bec 4224A0E1 		mov	r2, r2, asr #8
 3489 2bf0 B0208DE5 		str	r2, [sp, #176]
 3490 2bf4 20219DE5 		ldr	r2, [sp, #288]
 3491 2bf8 422CA0E1 		mov	r2, r2, asr #24
 3492 2bfc AC208DE5 		str	r2, [sp, #172]
 3493 2c00 20219DE5 		ldr	r2, [sp, #288]
 3494 2c04 0010A0E3 		mov	r1, #0
 3495 2c08 4228A0E1 		mov	r2, r2, asr #16
 3496 2c0c F4108DE5 		str	r1, [sp, #244]
 3497 2c10 EC108DE5 		str	r1, [sp, #236]
 3498 2c14 A8208DE5 		str	r2, [sp, #168]
 3499 2c18 441098E5 		ldr	r1, [r8, #68]	@ float
 3500 2c1c 20219DE5 		ldr	r2, [sp, #288]
 3501 2c20 1C118DE5 		str	r1, [sp, #284]	@ float
 3502 2c24 4224A0E1 		mov	r2, r2, asr #8
 3503 2c28 A4208DE5 		str	r2, [sp, #164]
 3504 2c2c 1C219DE5 		ldr	r2, [sp, #284]
 3505 2c30 2A84A0E1 		mov	r8, sl, lsr #8
 3506 2c34 422CA0E1 		mov	r2, r2, asr #24
 3507 2c38 E0808DE5 		str	r8, [sp, #224]
 3508 2c3c A0208DE5 		str	r2, [sp, #160]
 3509 2c40 1E20A0E3 		mov	r2, #30
 3510 2c44 3021CDE5 		strb	r2, [sp, #304]
 3511 2c48 F020DDE5 		ldrb	r2, [sp, #240]	@ zero_extendqisi2
 3512 2c4c 2934A0E1 		mov	r3, r9, lsr #8
 3513 2c50 3121CDE5 		strb	r2, [sp, #305]
 3514 2c54 E820DDE5 		ldrb	r2, [sp, #232]	@ zero_extendqisi2
 3515 2c58 0A3C83E1 		orr	r3, r3, sl, asl #24
 3516 2c5c 04B0A0E1 		mov	fp, r4
 3517 2c60 D4809DE5 		ldr	r8, [sp, #212]
 3518 2c64 D8409DE5 		ldr	r4, [sp, #216]
 3519 2c68 3221CDE5 		strb	r2, [sp, #306]
 3520 2c6c 3731CDE5 		strb	r3, [sp, #311]
 3521 2c70 E020DDE5 		ldrb	r2, [sp, #224]	@ zero_extendqisi2
 3522 2c74 DC309DE5 		ldr	r3, [sp, #220]
 3523 2c78 2908A0E1 		mov	r0, r9, lsr #16
 3524 2c7c 0A0880E1 		orr	r0, r0, sl, asl #16
 3525 2c80 C8109DE5 		ldr	r1, [sp, #200]
 3526 2c84 3321CDE5 		strb	r2, [sp, #307]
 3527 2c88 3601CDE5 		strb	r0, [sp, #310]
 3528 2c8c C4209DE5 		ldr	r2, [sp, #196]
 3529 2c90 CC009DE5 		ldr	r0, [sp, #204]
 3530 2c94 3931CDE5 		strb	r3, [sp, #313]
 3531 2c98 3A41CDE5 		strb	r4, [sp, #314]
 3532 2c9c C0309DE5 		ldr	r3, [sp, #192]
 3533 2ca0 BC409DE5 		ldr	r4, [sp, #188]
 3534 2ca4 3B81CDE5 		strb	r8, [sp, #315]
 3535 2ca8 3CC1CDE5 		strb	ip, [sp, #316]
 3536 2cac B8809DE5 		ldr	r8, [sp, #184]
 3537 2cb0 D0C09DE5 		ldr	ip, [sp, #208]
 3538 2cb4 295CA0E1 		mov	r5, r9, lsr #24
 3539 2cb8 0A5485E1 		orr	r5, r5, sl, asl #8
 3540 2cbc 3DC1CDE5 		strb	ip, [sp, #317]
 3541 2cc0 3E01CDE5 		strb	r0, [sp, #318]
 3542 2cc4 3F11CDE5 		strb	r1, [sp, #319]
 3543 2cc8 4121CDE5 		strb	r2, [sp, #321]
 3544 2ccc 4231CDE5 		strb	r3, [sp, #322]
 3545 2cd0 4341CDE5 		strb	r4, [sp, #323]
 3546 2cd4 44B1CDE5 		strb	fp, [sp, #324]
 3547 2cd8 34A1CDE5 		strb	sl, [sp, #308]
 3548 2cdc 3551CDE5 		strb	r5, [sp, #309]
 3549 2ce0 3891CDE5 		strb	r9, [sp, #312]
 3550 2ce4 4061CDE5 		strb	r6, [sp, #320]
 3551 2ce8 4581CDE5 		strb	r8, [sp, #325]
 3552 2cec 24119DE5 		ldr	r1, [sp, #292]
 3553 2cf0 B0008DE2 		add	r0, sp, #176
 3554 2cf4 011090E8 		ldmia	r0, {r0, ip}	@ phole ldm
 3555 2cf8 4811CDE5 		strb	r1, [sp, #328]
 3556 2cfc AC209DE5 		ldr	r2, [sp, #172]
 3557 2d00 A8309DE5 		ldr	r3, [sp, #168]
 3558 2d04 A4409DE5 		ldr	r4, [sp, #164]
 3559 2d08 20819DE5 		ldr	r8, [sp, #288]
 3560 2d0c A0109DE5 		ldr	r1, [sp, #160]
 3561 2d10 46C1CDE5 		strb	ip, [sp, #326]
 3562 2d14 4701CDE5 		strb	r0, [sp, #327]
 3563 2d18 4921CDE5 		strb	r2, [sp, #329]
 3564 2d1c 4A31CDE5 		strb	r3, [sp, #330]
 3565 2d20 4B41CDE5 		strb	r4, [sp, #331]
 3566 2d24 4C81CDE5 		strb	r8, [sp, #332]
 3567 2d28 B8049FE5 		ldr	r0, .L283+8
 3568 2d2c 4D11CDE5 		strb	r1, [sp, #333]
 3569 2d30 AC249FE5 		ldr	r2, .L283+4
 3570 2d34 00C0D0E5 		ldrb	ip, [r0, #0]	@ zero_extendqisi2
 3571 2d38 01E0D0E5 		ldrb	lr, [r0, #1]	@ zero_extendqisi2
 3572 2d3c 0E00D2E5 		ldrb	r0, [r2, #14]	@ zero_extendqisi2
 3573 2d40 1C419DE5 		ldr	r4, [sp, #284]
 3574 2d44 98849FE5 		ldr	r8, .L283+4
 3575 2d48 013080E2 		add	r3, r0, #1
 3576 2d4c 0E30C8E5 		strb	r3, [r8, #14]
 3577 2d50 4428A0E1 		mov	r2, r4, asr #16
 3578 2d54 2030A0E3 		mov	r3, #32
 3579 2d58 4414A0E1 		mov	r1, r4, asr #8
 3580 2d5c 2EC1CDE5 		strb	ip, [sp, #302]
 3581 2d60 4E21CDE5 		strb	r2, [sp, #334]
 3582 2d64 01C8A0E3 		mov	ip, #65536
 3583 2d68 5041CDE5 		strb	r4, [sp, #336]
 3584 2d6c 2C31CDE5 		strb	r3, [sp, #300]
 3585 2d70 2FE1CDE5 		strb	lr, [sp, #303]
 3586 2d74 2D01CDE5 		strb	r0, [sp, #301]
 3587 2d78 4F11CDE5 		strb	r1, [sp, #335]
 3588 2d7c 01C04CE2 		sub	ip, ip, #1
 3589 2d80 4BBF8DE2 		add	fp, sp, #300
 3590 2d84 0010A0E3 		mov	r1, #0
 3591              	.L253:
 3592 2d88 0B30D1E7 		ldrb	r3, [r1, fp]	@ zero_extendqisi2
 3593 2d8c 0C3023E0 		eor	r3, r3, ip
 3594 2d90 FF3003E2 		and	r3, r3, #255
 3595 2d94 033223E0 		eor	r3, r3, r3, asl #4
 3596 2d98 FF3003E2 		and	r3, r3, #255
 3597 2d9c 0324A0E1 		mov	r2, r3, asl #8
 3598 2da0 2C2482E1 		orr	r2, r2, ip, lsr #8
 3599 2da4 232222E0 		eor	r2, r2, r3, lsr #4
 3600 2da8 832122E0 		eor	r2, r2, r3, asl #3
 3601 2dac 011081E2 		add	r1, r1, #1
 3602 2db0 0228A0E1 		mov	r2, r2, asl #16
 3603 2db4 250051E3 		cmp	r1, #37
 3604 2db8 22C8A0E1 		mov	ip, r2, lsr #16
 3605 2dbc F1FFFF1A 		bne	.L253
 3606 2dc0 2C34A0E1 		mov	r3, ip, lsr #8
 3607 2dc4 0000A0E3 		mov	r0, #0
 3608 2dc8 301081E2 		add	r1, r1, #48
 3609 2dcc 3132CDE5 		strb	r3, [sp, #561]
 3610 2dd0 30C2CDE5 		strb	ip, [sp, #560]
 3611 2dd4 FEFFFFEB 		bl	comm_send_ch
 3612 2dd8 0000A0E3 		mov	r0, #0
 3613 2ddc 2C11DDE5 		ldrb	r1, [sp, #300]	@ zero_extendqisi2
 3614 2de0 FEFFFFEB 		bl	comm_send_ch
 3615 2de4 0000A0E3 		mov	r0, #0
 3616 2de8 2D11DDE5 		ldrb	r1, [sp, #301]	@ zero_extendqisi2
 3617 2dec FEFFFFEB 		bl	comm_send_ch
 3618 2df0 0000A0E3 		mov	r0, #0
 3619 2df4 2E11DDE5 		ldrb	r1, [sp, #302]	@ zero_extendqisi2
 3620 2df8 FEFFFFEB 		bl	comm_send_ch
 3621 2dfc 0000A0E3 		mov	r0, #0
 3622 2e00 2F11DDE5 		ldrb	r1, [sp, #303]	@ zero_extendqisi2
 3623 2e04 FEFFFFEB 		bl	comm_send_ch
 3624 2e08 0000A0E3 		mov	r0, #0
 3625 2e0c 3011DDE5 		ldrb	r1, [sp, #304]	@ zero_extendqisi2
 3626 2e10 FEFFFFEB 		bl	comm_send_ch
 3627 2e14 2C31DDE5 		ldrb	r3, [sp, #300]	@ zero_extendqisi2
 3628 2e18 000053E3 		cmp	r3, #0
 3629 2e1c 0B00000A 		beq	.L255
 3630 2e20 0040A0E3 		mov	r4, #0
 3631              	.L257:
 3632 2e24 8DCF8DE2 		add	ip, sp, #564
 3633 2e28 04308CE0 		add	r3, ip, r4
 3634 2e2c 031153E5 		ldrb	r1, [r3, #-259]	@ zero_extendqisi2
 3635 2e30 0000A0E3 		mov	r0, #0
 3636 2e34 FEFFFFEB 		bl	comm_send_ch
 3637 2e38 013084E2 		add	r3, r4, #1
 3638 2e3c 0338A0E1 		mov	r3, r3, asl #16
 3639 2e40 2C21DDE5 		ldrb	r2, [sp, #300]	@ zero_extendqisi2
 3640 2e44 2348A0E1 		mov	r4, r3, lsr #16
 3641 2e48 040052E1 		cmp	r2, r4
 3642 2e4c F4FFFF8A 		bhi	.L257
 3643              	.L255:
 3644 2e50 0000A0E3 		mov	r0, #0
 3645 2e54 3012DDE5 		ldrb	r1, [sp, #560]	@ zero_extendqisi2
 3646 2e58 FEFFFFEB 		bl	comm_send_ch
 3647 2e5c 0000A0E3 		mov	r0, #0
 3648 2e60 3112DDE5 		ldrb	r1, [sp, #561]	@ zero_extendqisi2
 3649 2e64 FEFFFFEB 		bl	comm_send_ch
 3650 2e68 FEFFFFEB 		bl	sys_time_clock_get_unix_offset
 3651 2e6c F8908DE2 		add	r9, sp, #248
 3652 2e70 000699E8 		ldmia	r9, {r9-sl}
 3653 2e74 009099E0 		adds	r9, r9, r0
 3654 2e78 01A0AAE0 		adc	sl, sl, r1
 3655 2e7c 5C139FE5 		ldr	r1, .L283
 3656 2e80 7C0A91E5 		ldr	r0, [r1, #2684]
 3657 2e84 FEFFFFEB 		bl	__floatsisf
 3658 2e88 50239FE5 		ldr	r2, .L283
 3659 2e8c 0050A0E1 		mov	r5, r0
 3660 2e90 800A92E5 		ldr	r0, [r2, #2688]
 3661 2e94 FEFFFFEB 		bl	__floatsisf
 3662 2e98 40339FE5 		ldr	r3, .L283
 3663 2e9c 0060A0E1 		mov	r6, r0
 3664 2ea0 840A93E5 		ldr	r0, [r3, #2692]
 3665 2ea4 FEFFFFEB 		bl	__floatsisf
 3666 2ea8 30839FE5 		ldr	r8, .L283
 3667 2eac 0040A0E1 		mov	r4, r0
 3668 2eb0 880A98E5 		ldr	r0, [r8, #2696]
 3669 2eb4 FEFFFFEB 		bl	__floatsisf
 3670 2eb8 2ACCA0E1 		mov	ip, sl, lsr #24
 3671 2ebc 482098E5 		ldr	r2, [r8, #72]
 3672 2ec0 98C08DE5 		str	ip, [sp, #152]
 3673 2ec4 00C0A0E3 		mov	ip, #0
 3674 2ec8 2A38A0E1 		mov	r3, sl, lsr #16
 3675 2ecc 8CC08DE5 		str	ip, [sp, #140]
 3676 2ed0 05C0A0E1 		mov	ip, r5
 3677 2ed4 90308DE5 		str	r3, [sp, #144]
 3678 2ed8 023182E2 		add	r3, r2, #-2147483648
 3679 2edc 4C2CA0E1 		mov	r2, ip, asr #24
 3680 2ee0 84208DE5 		str	r2, [sp, #132]
 3681 2ee4 4C28A0E1 		mov	r2, ip, asr #16
 3682 2ee8 06E0A0E1 		mov	lr, r6
 3683 2eec 80208DE5 		str	r2, [sp, #128]
 3684 2ef0 4C24A0E1 		mov	r2, ip, asr #8
 3685 2ef4 7C208DE5 		str	r2, [sp, #124]
 3686 2ef8 4E2CA0E1 		mov	r2, lr, asr #24
 3687 2efc 78208DE5 		str	r2, [sp, #120]
 3688 2f00 4E28A0E1 		mov	r2, lr, asr #16
 3689 2f04 18418DE5 		str	r4, [sp, #280]	@ float
 3690 2f08 74208DE5 		str	r2, [sp, #116]
 3691 2f0c 4E24A0E1 		mov	r2, lr, asr #8
 3692 2f10 70208DE5 		str	r2, [sp, #112]
 3693 2f14 18219DE5 		ldr	r2, [sp, #280]
 3694 2f18 422CA0E1 		mov	r2, r2, asr #24
 3695 2f1c 6C208DE5 		str	r2, [sp, #108]
 3696 2f20 18219DE5 		ldr	r2, [sp, #280]
 3697 2f24 4228A0E1 		mov	r2, r2, asr #16
 3698 2f28 68208DE5 		str	r2, [sp, #104]
 3699 2f2c 18219DE5 		ldr	r2, [sp, #280]
 3700 2f30 14018DE5 		str	r0, [sp, #276]	@ float
 3701 2f34 4224A0E1 		mov	r2, r2, asr #8
 3702 2f38 64208DE5 		str	r2, [sp, #100]
 3703 2f3c 14219DE5 		ldr	r2, [sp, #276]
 3704 2f40 422CA0E1 		mov	r2, r2, asr #24
 3705 2f44 60208DE5 		str	r2, [sp, #96]
 3706 2f48 14219DE5 		ldr	r2, [sp, #276]
 3707 2f4c 4228A0E1 		mov	r2, r2, asr #16
 3708 2f50 5C208DE5 		str	r2, [sp, #92]
 3709 2f54 14219DE5 		ldr	r2, [sp, #276]
 3710 2f58 10318DE5 		str	r3, [sp, #272]	@ float
 3711 2f5c 4224A0E1 		mov	r2, r2, asr #8
 3712 2f60 58208DE5 		str	r2, [sp, #88]
 3713 2f64 10219DE5 		ldr	r2, [sp, #272]
 3714 2f68 422CA0E1 		mov	r2, r2, asr #24
 3715 2f6c 0010A0E3 		mov	r1, #0
 3716 2f70 54208DE5 		str	r2, [sp, #84]
 3717 2f74 10219DE5 		ldr	r2, [sp, #272]
 3718 2f78 9C108DE5 		str	r1, [sp, #156]
 3719 2f7c 94108DE5 		str	r1, [sp, #148]
 3720 2f80 441098E5 		ldr	r1, [r8, #68]	@ float
 3721 2f84 4228A0E1 		mov	r2, r2, asr #16
 3722 2f88 2A84A0E1 		mov	r8, sl, lsr #8
 3723 2f8c 88808DE5 		str	r8, [sp, #136]
 3724 2f90 0C118DE5 		str	r1, [sp, #268]	@ float
 3725 2f94 50208DE5 		str	r2, [sp, #80]
 3726 2f98 10219DE5 		ldr	r2, [sp, #272]
 3727 2f9c 4224A0E1 		mov	r2, r2, asr #8
 3728 2fa0 4C208DE5 		str	r2, [sp, #76]
 3729 2fa4 0C219DE5 		ldr	r2, [sp, #268]
 3730 2fa8 422CA0E1 		mov	r2, r2, asr #24
 3731 2fac 48208DE5 		str	r2, [sp, #72]
 3732 2fb0 1E20A0E3 		mov	r2, #30
 3733 2fb4 3021CDE5 		strb	r2, [sp, #304]
 3734 2fb8 9820DDE5 		ldrb	r2, [sp, #152]	@ zero_extendqisi2
 3735 2fbc 2934A0E1 		mov	r3, r9, lsr #8
 3736 2fc0 3121CDE5 		strb	r2, [sp, #305]
 3737 2fc4 9020DDE5 		ldrb	r2, [sp, #144]	@ zero_extendqisi2
 3738 2fc8 0A3C83E1 		orr	r3, r3, sl, asl #24
 3739 2fcc 3221CDE5 		strb	r2, [sp, #306]
 3740 2fd0 3731CDE5 		strb	r3, [sp, #311]
 3741 2fd4 8820DDE5 		ldrb	r2, [sp, #136]	@ zero_extendqisi2
 3742 2fd8 84309DE5 		ldr	r3, [sp, #132]
 3743 2fdc 2908A0E1 		mov	r0, r9, lsr #16
 3744 2fe0 0A0880E1 		orr	r0, r0, sl, asl #16
 3745 2fe4 80409DE5 		ldr	r4, [sp, #128]
 3746 2fe8 7C809DE5 		ldr	r8, [sp, #124]
 3747 2fec 70109DE5 		ldr	r1, [sp, #112]
 3748 2ff0 3321CDE5 		strb	r2, [sp, #307]
 3749 2ff4 3601CDE5 		strb	r0, [sp, #310]
 3750 2ff8 6C209DE5 		ldr	r2, [sp, #108]
 3751 2ffc 74009DE5 		ldr	r0, [sp, #116]
 3752 3000 3931CDE5 		strb	r3, [sp, #313]
 3753 3004 3CC1CDE5 		strb	ip, [sp, #316]
 3754 3008 68309DE5 		ldr	r3, [sp, #104]
 3755 300c 78C09DE5 		ldr	ip, [sp, #120]
 3756 3010 295CA0E1 		mov	r5, r9, lsr #24
 3757 3014 0A5485E1 		orr	r5, r5, sl, asl #8
 3758 3018 3A41CDE5 		strb	r4, [sp, #314]
 3759 301c 3B81CDE5 		strb	r8, [sp, #315]
 3760 3020 3DC1CDE5 		strb	ip, [sp, #317]
 3761 3024 3E01CDE5 		strb	r0, [sp, #318]
 3762 3028 3F11CDE5 		strb	r1, [sp, #319]
 3763 302c 40E1CDE5 		strb	lr, [sp, #320]
 3764 3030 4121CDE5 		strb	r2, [sp, #321]
 3765 3034 34A1CDE5 		strb	sl, [sp, #308]
 3766 3038 3551CDE5 		strb	r5, [sp, #309]
 3767 303c 3891CDE5 		strb	r9, [sp, #312]
 3768 3040 4231CDE5 		strb	r3, [sp, #322]
 3769 3044 64409DE5 		ldr	r4, [sp, #100]
 3770 3048 18819DE5 		ldr	r8, [sp, #280]
 3771 304c 60C09DE5 		ldr	ip, [sp, #96]
 3772 3050 58109DE5 		ldr	r1, [sp, #88]
 3773 3054 4341CDE5 		strb	r4, [sp, #323]
 3774 3058 4481CDE5 		strb	r8, [sp, #324]
 3775 305c 45C1CDE5 		strb	ip, [sp, #325]
 3776 3060 5C009DE5 		ldr	r0, [sp, #92]
 3777 3064 4711CDE5 		strb	r1, [sp, #327]
 3778 3068 14219DE5 		ldr	r2, [sp, #276]
 3779 306c 54309DE5 		ldr	r3, [sp, #84]
 3780 3070 50409DE5 		ldr	r4, [sp, #80]
 3781 3074 4C809DE5 		ldr	r8, [sp, #76]
 3782 3078 10C19DE5 		ldr	ip, [sp, #272]
 3783 307c 48109DE5 		ldr	r1, [sp, #72]
 3784 3080 4601CDE5 		strb	r0, [sp, #326]
 3785 3084 4821CDE5 		strb	r2, [sp, #328]
 3786 3088 4931CDE5 		strb	r3, [sp, #329]
 3787 308c 4A41CDE5 		strb	r4, [sp, #330]
 3788 3090 4B81CDE5 		strb	r8, [sp, #331]
 3789 3094 4CC1CDE5 		strb	ip, [sp, #332]
 3790 3098 4D11CDE5 		strb	r1, [sp, #333]
 3791 309c 44019FE5 		ldr	r0, .L283+8
 3792 30a0 44219FE5 		ldr	r2, .L283+12
 3793 30a4 00C0D0E5 		ldrb	ip, [r0, #0]	@ zero_extendqisi2
 3794 30a8 01E0D0E5 		ldrb	lr, [r0, #1]	@ zero_extendqisi2
 3795 30ac 0E00D2E5 		ldrb	r0, [r2, #14]	@ zero_extendqisi2
 3796 30b0 0C419DE5 		ldr	r4, [sp, #268]
 3797 30b4 30819FE5 		ldr	r8, .L283+12
 3798 30b8 013080E2 		add	r3, r0, #1
 3799 30bc 0E30C8E5 		strb	r3, [r8, #14]
 3800 30c0 4414A0E1 		mov	r1, r4, asr #8
 3801 30c4 4428A0E1 		mov	r2, r4, asr #16
 3802 30c8 2030A0E3 		mov	r3, #32
 3803 30cc 4F11CDE5 		strb	r1, [sp, #335]
 3804 30d0 2EC1CDE5 		strb	ip, [sp, #302]
 3805 30d4 4E21CDE5 		strb	r2, [sp, #334]
 3806 30d8 5041CDE5 		strb	r4, [sp, #336]
 3807 30dc 2C31CDE5 		strb	r3, [sp, #300]
 3808 30e0 2FE1CDE5 		strb	lr, [sp, #303]
 3809 30e4 01C8A0E3 		mov	ip, #65536
 3810 30e8 2D01CDE5 		strb	r0, [sp, #301]
 3811 30ec 0A70A0E1 		mov	r7, sl
 3812 30f0 2A6CA0E1 		mov	r6, sl, lsr #24
 3813 30f4 01C04CE2 		sub	ip, ip, #1
 3814 30f8 0010A0E3 		mov	r1, #0
 3815              	.L258:
 3816 30fc 0B30D1E7 		ldrb	r3, [r1, fp]	@ zero_extendqisi2
 3817 3100 0C3023E0 		eor	r3, r3, ip
 3818 3104 FF3003E2 		and	r3, r3, #255
 3819 3108 033223E0 		eor	r3, r3, r3, asl #4
 3820 310c FF3003E2 		and	r3, r3, #255
 3821 3110 0324A0E1 		mov	r2, r3, asl #8
 3822 3114 2C2482E1 		orr	r2, r2, ip, lsr #8
 3823 3118 232222E0 		eor	r2, r2, r3, lsr #4
 3824 311c 832122E0 		eor	r2, r2, r3, asl #3
 3825 3120 011081E2 		add	r1, r1, #1
 3826 3124 0228A0E1 		mov	r2, r2, asl #16
 3827 3128 250051E3 		cmp	r1, #37
 3828 312c 22C8A0E1 		mov	ip, r2, lsr #16
 3829 3130 F1FFFF1A 		bne	.L258
 3830 3134 2C34A0E1 		mov	r3, ip, lsr #8
 3831 3138 0100A0E3 		mov	r0, #1
 3832 313c 301081E2 		add	r1, r1, #48
 3833 3140 3132CDE5 		strb	r3, [sp, #561]
 3834 3144 30C2CDE5 		strb	ip, [sp, #560]
 3835 3148 FEFFFFEB 		bl	comm_send_ch
 3836 314c 0100A0E3 		mov	r0, #1
 3837 3150 2C11DDE5 		ldrb	r1, [sp, #300]	@ zero_extendqisi2
 3838 3154 FEFFFFEB 		bl	comm_send_ch
 3839 3158 0100A0E3 		mov	r0, #1
 3840 315c 2D11DDE5 		ldrb	r1, [sp, #301]	@ zero_extendqisi2
 3841 3160 FEFFFFEB 		bl	comm_send_ch
 3842 3164 0100A0E3 		mov	r0, #1
 3843 3168 2E11DDE5 		ldrb	r1, [sp, #302]	@ zero_extendqisi2
 3844 316c FEFFFFEB 		bl	comm_send_ch
 3845 3170 0100A0E3 		mov	r0, #1
 3846 3174 2F11DDE5 		ldrb	r1, [sp, #303]	@ zero_extendqisi2
 3847 3178 FEFFFFEB 		bl	comm_send_ch
 3848 317c 0100A0E3 		mov	r0, #1
 3849 3180 3011DDE5 		ldrb	r1, [sp, #304]	@ zero_extendqisi2
 3850 3184 FEFFFFEB 		bl	comm_send_ch
 3851 3188 2C31DDE5 		ldrb	r3, [sp, #300]	@ zero_extendqisi2
 3852 318c 000053E3 		cmp	r3, #0
 3853 3190 0B00000A 		beq	.L260
 3854 3194 0040A0E3 		mov	r4, #0
 3855              	.L262:
 3856 3198 8DCF8DE2 		add	ip, sp, #564
 3857 319c 04308CE0 		add	r3, ip, r4
 3858 31a0 031153E5 		ldrb	r1, [r3, #-259]	@ zero_extendqisi2
 3859 31a4 0100A0E3 		mov	r0, #1
 3860 31a8 FEFFFFEB 		bl	comm_send_ch
 3861 31ac 013084E2 		add	r3, r4, #1
 3862 31b0 0338A0E1 		mov	r3, r3, asl #16
 3863 31b4 2C21DDE5 		ldrb	r2, [sp, #300]	@ zero_extendqisi2
 3864 31b8 2348A0E1 		mov	r4, r3, lsr #16
 3865 31bc 040052E1 		cmp	r2, r4
 3866 31c0 F4FFFF8A 		bhi	.L262
 3867              	.L260:
 3868 31c4 3012DDE5 		ldrb	r1, [sp, #560]	@ zero_extendqisi2
 3869 31c8 0100A0E3 		mov	r0, #1
 3870 31cc FEFFFFEB 		bl	comm_send_ch
 3871 31d0 0100A0E3 		mov	r0, #1
 3872 31d4 3112DDE5 		ldrb	r1, [sp, #561]	@ zero_extendqisi2
 3873 31d8 FEFFFFEB 		bl	comm_send_ch
 3874 31dc 78FDFFEA 		b	.L250
 3875              	.L284:
 3876              		.align	2
 3877              	.L283:
 3878 31e0 00000000 		.word	global_data
 3879 31e4 00000000 		.word	m_mavlink_status.2143
 3880 31e8 00000000 		.word	mavlink_system
 3881 31ec 14000000 		.word	m_mavlink_status.2143+20
 3883              		.align	2
 3884              		.global	send_system_state
 3886              	send_system_state:
 3887              		@ Function supports interworking.
 3888              		@ args = 0, pretend = 0, frame = 316
 3889              		@ frame_needed = 0, uses_anonymous_args = 0
 3890 31f0 F04F2DE9 		stmfd	sp!, {r4, r5, r6, r7, r8, r9, sl, fp, lr}
 3891 31f4 102A9FE5 		ldr	r2, .L335
 3892 31f8 4FDF4DE2 		sub	sp, sp, #316
 3893 31fc 5C0292E5 		ldr	r0, [r2, #604]	@ float
 3894 3200 FEFFFFEB 		bl	__fixunssfsi
 3895 3204 042A9FE5 		ldr	r2, .L335+4
 3896 3208 043A9FE5 		ldr	r3, .L335+8
 3897 320c 00E0D2E5 		ldrb	lr, [r2, #0]	@ zero_extendqisi2
 3898 3210 0EC0D3E5 		ldrb	ip, [r3, #14]	@ zero_extendqisi2
 3899 3214 0140D2E5 		ldrb	r4, [r2, #1]	@ zero_extendqisi2
 3900 3218 0130A0E3 		mov	r3, #1
 3901 321c 0220A0E3 		mov	r2, #2
 3902 3220 3A30CDE5 		strb	r3, [sp, #58]
 3903 3224 023083E0 		add	r3, r3, r2
 3904 3228 3430CDE5 		strb	r3, [sp, #52]
 3905 322c E0399FE5 		ldr	r3, .L335+8
 3906 3230 01508CE2 		add	r5, ip, #1
 3907 3234 0010A0E3 		mov	r1, #0
 3908 3238 3900CDE5 		strb	r0, [sp, #57]
 3909 323c 3B20CDE5 		strb	r2, [sp, #59]
 3910 3240 36E0CDE5 		strb	lr, [sp, #54]
 3911 3244 3740CDE5 		strb	r4, [sp, #55]
 3912 3248 0E50C3E5 		strb	r5, [r3, #14]
 3913 324c 35C0CDE5 		strb	ip, [sp, #53]
 3914 3250 3810CDE5 		strb	r1, [sp, #56]
 3915 3254 01C8A0E3 		mov	ip, #65536
 3916 3258 01C04CE2 		sub	ip, ip, #1
 3917 325c 34B08DE2 		add	fp, sp, #52
 3918              	.L286:
 3919 3260 0B30D1E7 		ldrb	r3, [r1, fp]	@ zero_extendqisi2
 3920 3264 0C3023E0 		eor	r3, r3, ip
 3921 3268 FF3003E2 		and	r3, r3, #255
 3922 326c 033223E0 		eor	r3, r3, r3, asl #4
 3923 3270 FF3003E2 		and	r3, r3, #255
 3924 3274 0324A0E1 		mov	r2, r3, asl #8
 3925 3278 2C2482E1 		orr	r2, r2, ip, lsr #8
 3926 327c 232222E0 		eor	r2, r2, r3, lsr #4
 3927 3280 832122E0 		eor	r2, r2, r3, asl #3
 3928 3284 011081E2 		add	r1, r1, #1
 3929 3288 0228A0E1 		mov	r2, r2, asl #16
 3930 328c 080051E3 		cmp	r1, #8
 3931 3290 22C8A0E1 		mov	ip, r2, lsr #16
 3932 3294 F1FFFF1A 		bne	.L286
 3933 3298 2C34A0E1 		mov	r3, ip, lsr #8
 3934 329c 0100A0E3 		mov	r0, #1
 3935 32a0 4D1081E2 		add	r1, r1, #77
 3936 32a4 3931CDE5 		strb	r3, [sp, #313]
 3937 32a8 38C1CDE5 		strb	ip, [sp, #312]
 3938 32ac FEFFFFEB 		bl	comm_send_ch
 3939 32b0 0100A0E3 		mov	r0, #1
 3940 32b4 3410DDE5 		ldrb	r1, [sp, #52]	@ zero_extendqisi2
 3941 32b8 FEFFFFEB 		bl	comm_send_ch
 3942 32bc 0100A0E3 		mov	r0, #1
 3943 32c0 3510DDE5 		ldrb	r1, [sp, #53]	@ zero_extendqisi2
 3944 32c4 FEFFFFEB 		bl	comm_send_ch
 3945 32c8 0100A0E3 		mov	r0, #1
 3946 32cc 3610DDE5 		ldrb	r1, [sp, #54]	@ zero_extendqisi2
 3947 32d0 FEFFFFEB 		bl	comm_send_ch
 3948 32d4 0100A0E3 		mov	r0, #1
 3949 32d8 3710DDE5 		ldrb	r1, [sp, #55]	@ zero_extendqisi2
 3950 32dc FEFFFFEB 		bl	comm_send_ch
 3951 32e0 0100A0E3 		mov	r0, #1
 3952 32e4 3810DDE5 		ldrb	r1, [sp, #56]	@ zero_extendqisi2
 3953 32e8 FEFFFFEB 		bl	comm_send_ch
 3954 32ec 3430DDE5 		ldrb	r3, [sp, #52]	@ zero_extendqisi2
 3955 32f0 000053E3 		cmp	r3, #0
 3956 32f4 0B00000A 		beq	.L288
 3957 32f8 0040A0E3 		mov	r4, #0
 3958              	.L290:
 3959 32fc 4FCF8DE2 		add	ip, sp, #316
 3960 3300 04308CE0 		add	r3, ip, r4
 3961 3304 031153E5 		ldrb	r1, [r3, #-259]	@ zero_extendqisi2
 3962 3308 0100A0E3 		mov	r0, #1
 3963 330c FEFFFFEB 		bl	comm_send_ch
 3964 3310 013084E2 		add	r3, r4, #1
 3965 3314 0338A0E1 		mov	r3, r3, asl #16
 3966 3318 3420DDE5 		ldrb	r2, [sp, #52]	@ zero_extendqisi2
 3967 331c 2348A0E1 		mov	r4, r3, lsr #16
 3968 3320 040052E1 		cmp	r2, r4
 3969 3324 F4FFFF8A 		bhi	.L290
 3970              	.L288:
 3971 3328 0100A0E3 		mov	r0, #1
 3972 332c 3811DDE5 		ldrb	r1, [sp, #312]	@ zero_extendqisi2
 3973 3330 FEFFFFEB 		bl	comm_send_ch
 3974 3334 3911DDE5 		ldrb	r1, [sp, #313]	@ zero_extendqisi2
 3975 3338 0100A0E3 		mov	r0, #1
 3976 333c FEFFFFEB 		bl	comm_send_ch
 3977 3340 C4289FE5 		ldr	r2, .L335
 3978 3344 5C0292E5 		ldr	r0, [r2, #604]	@ float
 3979 3348 FEFFFFEB 		bl	__fixunssfsi
 3980 334c BC289FE5 		ldr	r2, .L335+4
 3981 3350 C0389FE5 		ldr	r3, .L335+12
 3982 3354 00E0D2E5 		ldrb	lr, [r2, #0]	@ zero_extendqisi2
 3983 3358 0EC0D3E5 		ldrb	ip, [r3, #14]	@ zero_extendqisi2
 3984 335c 0140D2E5 		ldrb	r4, [r2, #1]	@ zero_extendqisi2
 3985 3360 0130A0E3 		mov	r3, #1
 3986 3364 0220A0E3 		mov	r2, #2
 3987 3368 3A30CDE5 		strb	r3, [sp, #58]
 3988 336c 023083E0 		add	r3, r3, r2
 3989 3370 3430CDE5 		strb	r3, [sp, #52]
 3990 3374 9C389FE5 		ldr	r3, .L335+12
 3991 3378 01508CE2 		add	r5, ip, #1
 3992 337c 0010A0E3 		mov	r1, #0
 3993 3380 3900CDE5 		strb	r0, [sp, #57]
 3994 3384 3B20CDE5 		strb	r2, [sp, #59]
 3995 3388 36E0CDE5 		strb	lr, [sp, #54]
 3996 338c 3740CDE5 		strb	r4, [sp, #55]
 3997 3390 0E50C3E5 		strb	r5, [r3, #14]
 3998 3394 35C0CDE5 		strb	ip, [sp, #53]
 3999 3398 3810CDE5 		strb	r1, [sp, #56]
 4000 339c 01C8A0E3 		mov	ip, #65536
 4001 33a0 01C04CE2 		sub	ip, ip, #1
 4002              	.L291:
 4003 33a4 0B30D1E7 		ldrb	r3, [r1, fp]	@ zero_extendqisi2
 4004 33a8 0C3023E0 		eor	r3, r3, ip
 4005 33ac FF3003E2 		and	r3, r3, #255
 4006 33b0 033223E0 		eor	r3, r3, r3, asl #4
 4007 33b4 FF3003E2 		and	r3, r3, #255
 4008 33b8 0324A0E1 		mov	r2, r3, asl #8
 4009 33bc 2C2482E1 		orr	r2, r2, ip, lsr #8
 4010 33c0 232222E0 		eor	r2, r2, r3, lsr #4
 4011 33c4 832122E0 		eor	r2, r2, r3, asl #3
 4012 33c8 011081E2 		add	r1, r1, #1
 4013 33cc 0228A0E1 		mov	r2, r2, asl #16
 4014 33d0 080051E3 		cmp	r1, #8
 4015 33d4 22C8A0E1 		mov	ip, r2, lsr #16
 4016 33d8 F1FFFF1A 		bne	.L291
 4017 33dc 2C34A0E1 		mov	r3, ip, lsr #8
 4018 33e0 0000A0E3 		mov	r0, #0
 4019 33e4 4D1081E2 		add	r1, r1, #77
 4020 33e8 3931CDE5 		strb	r3, [sp, #313]
 4021 33ec 38C1CDE5 		strb	ip, [sp, #312]
 4022 33f0 FEFFFFEB 		bl	comm_send_ch
 4023 33f4 0000A0E3 		mov	r0, #0
 4024 33f8 3410DDE5 		ldrb	r1, [sp, #52]	@ zero_extendqisi2
 4025 33fc FEFFFFEB 		bl	comm_send_ch
 4026 3400 0000A0E3 		mov	r0, #0
 4027 3404 3510DDE5 		ldrb	r1, [sp, #53]	@ zero_extendqisi2
 4028 3408 FEFFFFEB 		bl	comm_send_ch
 4029 340c 0000A0E3 		mov	r0, #0
 4030 3410 3610DDE5 		ldrb	r1, [sp, #54]	@ zero_extendqisi2
 4031 3414 FEFFFFEB 		bl	comm_send_ch
 4032 3418 0000A0E3 		mov	r0, #0
 4033 341c 3710DDE5 		ldrb	r1, [sp, #55]	@ zero_extendqisi2
 4034 3420 FEFFFFEB 		bl	comm_send_ch
 4035 3424 0000A0E3 		mov	r0, #0
 4036 3428 3810DDE5 		ldrb	r1, [sp, #56]	@ zero_extendqisi2
 4037 342c FEFFFFEB 		bl	comm_send_ch
 4038 3430 3430DDE5 		ldrb	r3, [sp, #52]	@ zero_extendqisi2
 4039 3434 000053E3 		cmp	r3, #0
 4040 3438 0B00000A 		beq	.L293
 4041 343c 0040A0E3 		mov	r4, #0
 4042              	.L295:
 4043 3440 4FCF8DE2 		add	ip, sp, #316
 4044 3444 04308CE0 		add	r3, ip, r4
 4045 3448 031153E5 		ldrb	r1, [r3, #-259]	@ zero_extendqisi2
 4046 344c 0000A0E3 		mov	r0, #0
 4047 3450 FEFFFFEB 		bl	comm_send_ch
 4048 3454 013084E2 		add	r3, r4, #1
 4049 3458 0338A0E1 		mov	r3, r3, asl #16
 4050 345c 3420DDE5 		ldrb	r2, [sp, #52]	@ zero_extendqisi2
 4051 3460 2348A0E1 		mov	r4, r3, lsr #16
 4052 3464 040052E1 		cmp	r2, r4
 4053 3468 F4FFFF8A 		bhi	.L295
 4054              	.L293:
 4055 346c 0000A0E3 		mov	r0, #0
 4056 3470 3811DDE5 		ldrb	r1, [sp, #312]	@ zero_extendqisi2
 4057 3474 FEFFFFEB 		bl	comm_send_ch
 4058 3478 3911DDE5 		ldrb	r1, [sp, #313]	@ zero_extendqisi2
 4059 347c 0000A0E3 		mov	r0, #0
 4060 3480 FEFFFFEB 		bl	comm_send_ch
 4061 3484 80279FE5 		ldr	r2, .L335
 4062 3488 1A3EA0E3 		mov	r3, #416
 4063 348c 023083E2 		add	r3, r3, #2
 4064 3490 B35092E1 		ldrh	r5, [r2, r3]
 4065 3494 70379FE5 		ldr	r3, .L335
 4066 3498 5CC1D3E5 		ldrb	ip, [r3, #348]	@ zero_extendqisi2
 4067 349c 1A2EA0E3 		mov	r2, #416
 4068 34a0 B26093E1 		ldrh	r6, [r3, r2]
 4069 34a4 5081D3E5 		ldrb	r8, [r3, #336]	@ zero_extendqisi2
 4070 34a8 54A1D3E5 		ldrb	sl, [r3, #340]	@ zero_extendqisi2
 4071 34ac 6441D3E5 		ldrb	r4, [r3, #356]	@ zero_extendqisi2
 4072 34b0 00C08DE5 		str	ip, [sp, #0]
 4073 34b4 FEFFFFEB 		bl	communication_get_uart_drop_rate
 4074 34b8 58279FE5 		ldr	r2, .L335+12
 4075 34bc 4C379FE5 		ldr	r3, .L335+4
 4076 34c0 0E20D2E5 		ldrb	r2, [r2, #14]	@ zero_extendqisi2
 4077 34c4 0030D3E5 		ldrb	r3, [r3, #0]	@ zero_extendqisi2
 4078 34c8 0C208DE5 		str	r2, [sp, #12]
 4079 34cc 08308DE5 		str	r3, [sp, #8]
 4080 34d0 0C309DE5 		ldr	r3, [sp, #12]
 4081 34d4 34C79FE5 		ldr	ip, .L335+4
 4082 34d8 017083E2 		add	r7, r3, #1
 4083 34dc 2230A0E3 		mov	r3, #34
 4084 34e0 01C0DCE5 		ldrb	ip, [ip, #1]	@ zero_extendqisi2
 4085 34e4 3830CDE5 		strb	r3, [sp, #56]
 4086 34e8 00309DE5 		ldr	r3, [sp, #0]
 4087 34ec 0558A0E1 		mov	r5, r5, asl #16
 4088 34f0 0448A0E1 		mov	r4, r4, asl #16
 4089 34f4 04C08DE5 		str	ip, [sp, #4]
 4090 34f8 252CA0E1 		mov	r2, r5, lsr #24
 4091 34fc 24CCA0E1 		mov	ip, r4, lsr #24
 4092 3500 3B30CDE5 		strb	r3, [sp, #59]
 4093 3504 0B30A0E3 		mov	r3, #11
 4094 3508 0668A0E1 		mov	r6, r6, asl #16
 4095 350c 0008A0E1 		mov	r0, r0, asl #16
 4096 3510 3C20CDE5 		strb	r2, [sp, #60]
 4097 3514 40C0CDE5 		strb	ip, [sp, #64]
 4098 3518 3430CDE5 		strb	r3, [sp, #52]
 4099 351c 04109DE9 		ldmib	sp, {r2, ip}	@ phole ldm
 4100 3520 F0369FE5 		ldr	r3, .L335+12
 4101 3524 261CA0E1 		mov	r1, r6, lsr #24
 4102 3528 20ECA0E1 		mov	lr, r0, lsr #24
 4103 352c 2558A0E1 		mov	r5, r5, lsr #16
 4104 3530 2668A0E1 		mov	r6, r6, lsr #16
 4105 3534 2448A0E1 		mov	r4, r4, lsr #16
 4106 3538 2008A0E1 		mov	r0, r0, lsr #16
 4107 353c 3E10CDE5 		strb	r1, [sp, #62]
 4108 3540 36C0CDE5 		strb	ip, [sp, #54]
 4109 3544 3980CDE5 		strb	r8, [sp, #57]
 4110 3548 3AA0CDE5 		strb	sl, [sp, #58]
 4111 354c 3D50CDE5 		strb	r5, [sp, #61]
 4112 3550 3F60CDE5 		strb	r6, [sp, #63]
 4113 3554 4140CDE5 		strb	r4, [sp, #65]
 4114 3558 42E0CDE5 		strb	lr, [sp, #66]
 4115 355c 4300CDE5 		strb	r0, [sp, #67]
 4116 3560 3720CDE5 		strb	r2, [sp, #55]
 4117 3564 0E70C3E5 		strb	r7, [r3, #14]
 4118 3568 0CC09DE5 		ldr	ip, [sp, #12]
 4119 356c 35C0CDE5 		strb	ip, [sp, #53]
 4120 3570 01C8A0E3 		mov	ip, #65536
 4121 3574 01C04CE2 		sub	ip, ip, #1
 4122 3578 0010A0E3 		mov	r1, #0
 4123              	.L296:
 4124 357c 0B30D1E7 		ldrb	r3, [r1, fp]	@ zero_extendqisi2
 4125 3580 0C3023E0 		eor	r3, r3, ip
 4126 3584 FF3003E2 		and	r3, r3, #255
 4127 3588 033223E0 		eor	r3, r3, r3, asl #4
 4128 358c FF3003E2 		and	r3, r3, #255
 4129 3590 0324A0E1 		mov	r2, r3, asl #8
 4130 3594 2C2482E1 		orr	r2, r2, ip, lsr #8
 4131 3598 232222E0 		eor	r2, r2, r3, lsr #4
 4132 359c 832122E0 		eor	r2, r2, r3, asl #3
 4133 35a0 011081E2 		add	r1, r1, #1
 4134 35a4 0228A0E1 		mov	r2, r2, asl #16
 4135 35a8 100051E3 		cmp	r1, #16
 4136 35ac 22C8A0E1 		mov	ip, r2, lsr #16
 4137 35b0 F1FFFF1A 		bne	.L296
 4138 35b4 2C34A0E1 		mov	r3, ip, lsr #8
 4139 35b8 0000A0E3 		mov	r0, #0
 4140 35bc 451081E2 		add	r1, r1, #69
 4141 35c0 3931CDE5 		strb	r3, [sp, #313]
 4142 35c4 38C1CDE5 		strb	ip, [sp, #312]
 4143 35c8 FEFFFFEB 		bl	comm_send_ch
 4144 35cc 0000A0E3 		mov	r0, #0
 4145 35d0 3410DDE5 		ldrb	r1, [sp, #52]	@ zero_extendqisi2
 4146 35d4 FEFFFFEB 		bl	comm_send_ch
 4147 35d8 0000A0E3 		mov	r0, #0
 4148 35dc 3510DDE5 		ldrb	r1, [sp, #53]	@ zero_extendqisi2
 4149 35e0 FEFFFFEB 		bl	comm_send_ch
 4150 35e4 0000A0E3 		mov	r0, #0
 4151 35e8 3610DDE5 		ldrb	r1, [sp, #54]	@ zero_extendqisi2
 4152 35ec FEFFFFEB 		bl	comm_send_ch
 4153 35f0 0000A0E3 		mov	r0, #0
 4154 35f4 3710DDE5 		ldrb	r1, [sp, #55]	@ zero_extendqisi2
 4155 35f8 FEFFFFEB 		bl	comm_send_ch
 4156 35fc 0000A0E3 		mov	r0, #0
 4157 3600 3810DDE5 		ldrb	r1, [sp, #56]	@ zero_extendqisi2
 4158 3604 FEFFFFEB 		bl	comm_send_ch
 4159 3608 3430DDE5 		ldrb	r3, [sp, #52]	@ zero_extendqisi2
 4160 360c 000053E3 		cmp	r3, #0
 4161 3610 0B00000A 		beq	.L298
 4162 3614 0040A0E3 		mov	r4, #0
 4163              	.L300:
 4164 3618 4F2F8DE2 		add	r2, sp, #316
 4165 361c 043082E0 		add	r3, r2, r4
 4166 3620 031153E5 		ldrb	r1, [r3, #-259]	@ zero_extendqisi2
 4167 3624 0000A0E3 		mov	r0, #0
 4168 3628 FEFFFFEB 		bl	comm_send_ch
 4169 362c 013084E2 		add	r3, r4, #1
 4170 3630 0338A0E1 		mov	r3, r3, asl #16
 4171 3634 3420DDE5 		ldrb	r2, [sp, #52]	@ zero_extendqisi2
 4172 3638 2348A0E1 		mov	r4, r3, lsr #16
 4173 363c 040052E1 		cmp	r2, r4
 4174 3640 F4FFFF8A 		bhi	.L300
 4175              	.L298:
 4176 3644 0000A0E3 		mov	r0, #0
 4177 3648 3811DDE5 		ldrb	r1, [sp, #312]	@ zero_extendqisi2
 4178 364c FEFFFFEB 		bl	comm_send_ch
 4179 3650 3911DDE5 		ldrb	r1, [sp, #313]	@ zero_extendqisi2
 4180 3654 0000A0E3 		mov	r0, #0
 4181 3658 FEFFFFEB 		bl	comm_send_ch
 4182 365c A8C59FE5 		ldr	ip, .L335
 4183 3660 1A2EA0E3 		mov	r2, #416
 4184 3664 B2609CE1 		ldrh	r6, [ip, r2]
 4185 3668 1A3EA0E3 		mov	r3, #416
 4186 366c 5C21DCE5 		ldrb	r2, [ip, #348]	@ zero_extendqisi2
 4187 3670 023083E2 		add	r3, r3, #2
 4188 3674 B3509CE1 		ldrh	r5, [ip, r3]
 4189 3678 5081DCE5 		ldrb	r8, [ip, #336]	@ zero_extendqisi2
 4190 367c 54A1DCE5 		ldrb	sl, [ip, #340]	@ zero_extendqisi2
 4191 3680 6441DCE5 		ldrb	r4, [ip, #356]	@ zero_extendqisi2
 4192 3684 30208DE5 		str	r2, [sp, #48]
 4193 3688 FEFFFFEB 		bl	communication_get_uart_drop_rate
 4194 368c 80359FE5 		ldr	r3, .L335+8
 4195 3690 78C59FE5 		ldr	ip, .L335+4
 4196 3694 74259FE5 		ldr	r2, .L335+4
 4197 3698 0E90D3E5 		ldrb	r9, [r3, #14]	@ zero_extendqisi2
 4198 369c 2230A0E3 		mov	r3, #34
 4199 36a0 00C0DCE5 		ldrb	ip, [ip, #0]	@ zero_extendqisi2
 4200 36a4 0120D2E5 		ldrb	r2, [r2, #1]	@ zero_extendqisi2
 4201 36a8 3830CDE5 		strb	r3, [sp, #56]
 4202 36ac 30309DE5 		ldr	r3, [sp, #48]
 4203 36b0 0558A0E1 		mov	r5, r5, asl #16
 4204 36b4 0448A0E1 		mov	r4, r4, asl #16
 4205 36b8 14C08DE5 		str	ip, [sp, #20]
 4206 36bc 10208DE5 		str	r2, [sp, #16]
 4207 36c0 24CCA0E1 		mov	ip, r4, lsr #24
 4208 36c4 252CA0E1 		mov	r2, r5, lsr #24
 4209 36c8 3B30CDE5 		strb	r3, [sp, #59]
 4210 36cc 0B30A0E3 		mov	r3, #11
 4211 36d0 0668A0E1 		mov	r6, r6, asl #16
 4212 36d4 0008A0E1 		mov	r0, r0, asl #16
 4213 36d8 3C20CDE5 		strb	r2, [sp, #60]
 4214 36dc 40C0CDE5 		strb	ip, [sp, #64]
 4215 36e0 3430CDE5 		strb	r3, [sp, #52]
 4216 36e4 10208DE2 		add	r2, sp, #16
 4217 36e8 041092E8 		ldmia	r2, {r2, ip}	@ phole ldm
 4218 36ec 20359FE5 		ldr	r3, .L335+8
 4219 36f0 261CA0E1 		mov	r1, r6, lsr #24
 4220 36f4 20ECA0E1 		mov	lr, r0, lsr #24
 4221 36f8 017089E2 		add	r7, r9, #1
 4222 36fc 2558A0E1 		mov	r5, r5, lsr #16
 4223 3700 2668A0E1 		mov	r6, r6, lsr #16
 4224 3704 2448A0E1 		mov	r4, r4, lsr #16
 4225 3708 2008A0E1 		mov	r0, r0, lsr #16
 4226 370c 3E10CDE5 		strb	r1, [sp, #62]
 4227 3710 36C0CDE5 		strb	ip, [sp, #54]
 4228 3714 3980CDE5 		strb	r8, [sp, #57]
 4229 3718 3AA0CDE5 		strb	sl, [sp, #58]
 4230 371c 3D50CDE5 		strb	r5, [sp, #61]
 4231 3720 3F60CDE5 		strb	r6, [sp, #63]
 4232 3724 4140CDE5 		strb	r4, [sp, #65]
 4233 3728 42E0CDE5 		strb	lr, [sp, #66]
 4234 372c 4300CDE5 		strb	r0, [sp, #67]
 4235 3730 3720CDE5 		strb	r2, [sp, #55]
 4236 3734 01C8A0E3 		mov	ip, #65536
 4237 3738 0E70C3E5 		strb	r7, [r3, #14]
 4238 373c 3590CDE5 		strb	r9, [sp, #53]
 4239 3740 01C04CE2 		sub	ip, ip, #1
 4240 3744 0010A0E3 		mov	r1, #0
 4241              	.L301:
 4242 3748 0B30D1E7 		ldrb	r3, [r1, fp]	@ zero_extendqisi2
 4243 374c 0C3023E0 		eor	r3, r3, ip
 4244 3750 FF3003E2 		and	r3, r3, #255
 4245 3754 033223E0 		eor	r3, r3, r3, asl #4
 4246 3758 FF3003E2 		and	r3, r3, #255
 4247 375c 0324A0E1 		mov	r2, r3, asl #8
 4248 3760 2C2482E1 		orr	r2, r2, ip, lsr #8
 4249 3764 232222E0 		eor	r2, r2, r3, lsr #4
 4250 3768 832122E0 		eor	r2, r2, r3, asl #3
 4251 376c 011081E2 		add	r1, r1, #1
 4252 3770 0228A0E1 		mov	r2, r2, asl #16
 4253 3774 100051E3 		cmp	r1, #16
 4254 3778 22C8A0E1 		mov	ip, r2, lsr #16
 4255 377c F1FFFF1A 		bne	.L301
 4256 3780 2C34A0E1 		mov	r3, ip, lsr #8
 4257 3784 0100A0E3 		mov	r0, #1
 4258 3788 451081E2 		add	r1, r1, #69
 4259 378c 3931CDE5 		strb	r3, [sp, #313]
 4260 3790 38C1CDE5 		strb	ip, [sp, #312]
 4261 3794 FEFFFFEB 		bl	comm_send_ch
 4262 3798 0100A0E3 		mov	r0, #1
 4263 379c 3410DDE5 		ldrb	r1, [sp, #52]	@ zero_extendqisi2
 4264 37a0 FEFFFFEB 		bl	comm_send_ch
 4265 37a4 0100A0E3 		mov	r0, #1
 4266 37a8 3510DDE5 		ldrb	r1, [sp, #53]	@ zero_extendqisi2
 4267 37ac FEFFFFEB 		bl	comm_send_ch
 4268 37b0 0100A0E3 		mov	r0, #1
 4269 37b4 3610DDE5 		ldrb	r1, [sp, #54]	@ zero_extendqisi2
 4270 37b8 FEFFFFEB 		bl	comm_send_ch
 4271 37bc 0100A0E3 		mov	r0, #1
 4272 37c0 3710DDE5 		ldrb	r1, [sp, #55]	@ zero_extendqisi2
 4273 37c4 FEFFFFEB 		bl	comm_send_ch
 4274 37c8 0100A0E3 		mov	r0, #1
 4275 37cc 3810DDE5 		ldrb	r1, [sp, #56]	@ zero_extendqisi2
 4276 37d0 FEFFFFEB 		bl	comm_send_ch
 4277 37d4 3430DDE5 		ldrb	r3, [sp, #52]	@ zero_extendqisi2
 4278 37d8 000053E3 		cmp	r3, #0
 4279 37dc 0B00000A 		beq	.L303
 4280 37e0 0040A0E3 		mov	r4, #0
 4281              	.L305:
 4282 37e4 4FCF8DE2 		add	ip, sp, #316
 4283 37e8 04308CE0 		add	r3, ip, r4
 4284 37ec 031153E5 		ldrb	r1, [r3, #-259]	@ zero_extendqisi2
 4285 37f0 0100A0E3 		mov	r0, #1
 4286 37f4 FEFFFFEB 		bl	comm_send_ch
 4287 37f8 013084E2 		add	r3, r4, #1
 4288 37fc 0338A0E1 		mov	r3, r3, asl #16
 4289 3800 3420DDE5 		ldrb	r2, [sp, #52]	@ zero_extendqisi2
 4290 3804 2348A0E1 		mov	r4, r3, lsr #16
 4291 3808 040052E1 		cmp	r2, r4
 4292 380c F4FFFF8A 		bhi	.L305
 4293              	.L303:
 4294 3810 0100A0E3 		mov	r0, #1
 4295 3814 3811DDE5 		ldrb	r1, [sp, #312]	@ zero_extendqisi2
 4296 3818 FEFFFFEB 		bl	comm_send_ch
 4297 381c 0100A0E3 		mov	r0, #1
 4298 3820 3911DDE5 		ldrb	r1, [sp, #313]	@ zero_extendqisi2
 4299 3824 FEFFFFEB 		bl	comm_send_ch
 4300 3828 A22EA0E3 		mov	r2, #2592
 4301 382c D8C39FE5 		ldr	ip, .L335
 4302 3830 0210A0E1 		mov	r1, r2
 4303 3834 0200A0E1 		mov	r0, r2
 4304 3838 1A3EA0E3 		mov	r3, #416
 4305 383c 023083E2 		add	r3, r3, #2
 4306 3840 082082E2 		add	r2, r2, #8
 4307 3844 0A1081E2 		add	r1, r1, #10
 4308 3848 0C0080E2 		add	r0, r0, #12
 4309 384c B3509CE1 		ldrh	r5, [ip, r3]
 4310 3850 B2609CE1 		ldrh	r6, [ip, r2]
 4311 3854 B1709CE1 		ldrh	r7, [ip, r1]
 4312 3858 B0409CE1 		ldrh	r4, [ip, r0]
 4313 385c FEFFFFEB 		bl	communication_get_uart_drop_rate
 4314 3860 A8339FE5 		ldr	r3, .L335+4
 4315 3864 A8239FE5 		ldr	r2, .L335+8
 4316 3868 0030D3E5 		ldrb	r3, [r3, #0]	@ zero_extendqisi2
 4317 386c 9CC39FE5 		ldr	ip, .L335+4
 4318 3870 0E20D2E5 		ldrb	r2, [r2, #14]	@ zero_extendqisi2
 4319 3874 01C0DCE5 		ldrb	ip, [ip, #1]	@ zero_extendqisi2
 4320 3878 1C308DE5 		str	r3, [sp, #28]
 4321 387c 90339FE5 		ldr	r3, .L335+8
 4322 3880 20208DE5 		str	r2, [sp, #32]
 4323 3884 012082E2 		add	r2, r2, #1
 4324 3888 18C08DE5 		str	ip, [sp, #24]
 4325 388c 0558A0E1 		mov	r5, r5, asl #16
 4326 3890 0E20C3E5 		strb	r2, [r3, #14]
 4327 3894 7130E0E3 		mvn	r3, #113
 4328 3898 25CCA0E1 		mov	ip, r5, lsr #24
 4329 389c 3830CDE5 		strb	r3, [sp, #56]
 4330 38a0 7E3083E2 		add	r3, r3, #126
 4331 38a4 0448A0E1 		mov	r4, r4, asl #16
 4332 38a8 0668A0E1 		mov	r6, r6, asl #16
 4333 38ac 0778A0E1 		mov	r7, r7, asl #16
 4334 38b0 0008A0E1 		mov	r0, r0, asl #16
 4335 38b4 39C0CDE5 		strb	ip, [sp, #57]
 4336 38b8 3430CDE5 		strb	r3, [sp, #52]
 4337 38bc 18208DE2 		add	r2, sp, #24
 4338 38c0 041092E8 		ldmia	r2, {r2, ip}	@ phole ldm
 4339 38c4 20309DE5 		ldr	r3, [sp, #32]
 4340 38c8 2418A0E1 		mov	r1, r4, lsr #16
 4341 38cc 26ECA0E1 		mov	lr, r6, lsr #24
 4342 38d0 244CA0E1 		mov	r4, r4, lsr #24
 4343 38d4 278CA0E1 		mov	r8, r7, lsr #24
 4344 38d8 20ACA0E1 		mov	sl, r0, lsr #24
 4345 38dc 2558A0E1 		mov	r5, r5, lsr #16
 4346 38e0 2668A0E1 		mov	r6, r6, lsr #16
 4347 38e4 2778A0E1 		mov	r7, r7, lsr #16
 4348 38e8 2008A0E1 		mov	r0, r0, lsr #16
 4349 38ec FF1001E2 		and	r1, r1, #255
 4350 38f0 36C0CDE5 		strb	ip, [sp, #54]
 4351 38f4 3A50CDE5 		strb	r5, [sp, #58]
 4352 38f8 01C8A0E3 		mov	ip, #65536
 4353 38fc 3BE0CDE5 		strb	lr, [sp, #59]
 4354 3900 3C60CDE5 		strb	r6, [sp, #60]
 4355 3904 3D80CDE5 		strb	r8, [sp, #61]
 4356 3908 3E70CDE5 		strb	r7, [sp, #62]
 4357 390c 4140CDE5 		strb	r4, [sp, #65]
 4358 3910 43A0CDE5 		strb	sl, [sp, #67]
 4359 3914 4400CDE5 		strb	r0, [sp, #68]
 4360 3918 3720CDE5 		strb	r2, [sp, #55]
 4361 391c 3F40CDE5 		strb	r4, [sp, #63]
 4362 3920 3530CDE5 		strb	r3, [sp, #53]
 4363 3924 4210CDE5 		strb	r1, [sp, #66]
 4364 3928 4010CDE5 		strb	r1, [sp, #64]
 4365 392c 01C04CE2 		sub	ip, ip, #1
 4366 3930 0010A0E3 		mov	r1, #0
 4367              	.L306:
 4368 3934 0B30D1E7 		ldrb	r3, [r1, fp]	@ zero_extendqisi2
 4369 3938 0C3023E0 		eor	r3, r3, ip
 4370 393c FF3003E2 		and	r3, r3, #255
 4371 3940 033223E0 		eor	r3, r3, r3, asl #4
 4372 3944 FF3003E2 		and	r3, r3, #255
 4373 3948 0324A0E1 		mov	r2, r3, asl #8
 4374 394c 2C2482E1 		orr	r2, r2, ip, lsr #8
 4375 3950 232222E0 		eor	r2, r2, r3, lsr #4
 4376 3954 832122E0 		eor	r2, r2, r3, asl #3
 4377 3958 011081E2 		add	r1, r1, #1
 4378 395c 0228A0E1 		mov	r2, r2, asl #16
 4379 3960 110051E3 		cmp	r1, #17
 4380 3964 22C8A0E1 		mov	ip, r2, lsr #16
 4381 3968 F1FFFF1A 		bne	.L306
 4382 396c 2C34A0E1 		mov	r3, ip, lsr #8
 4383 3970 0100A0E3 		mov	r0, #1
 4384 3974 441081E2 		add	r1, r1, #68
 4385 3978 3931CDE5 		strb	r3, [sp, #313]
 4386 397c 38C1CDE5 		strb	ip, [sp, #312]
 4387 3980 FEFFFFEB 		bl	comm_send_ch
 4388 3984 0100A0E3 		mov	r0, #1
 4389 3988 3410DDE5 		ldrb	r1, [sp, #52]	@ zero_extendqisi2
 4390 398c FEFFFFEB 		bl	comm_send_ch
 4391 3990 0100A0E3 		mov	r0, #1
 4392 3994 3510DDE5 		ldrb	r1, [sp, #53]	@ zero_extendqisi2
 4393 3998 FEFFFFEB 		bl	comm_send_ch
 4394 399c 0100A0E3 		mov	r0, #1
 4395 39a0 3610DDE5 		ldrb	r1, [sp, #54]	@ zero_extendqisi2
 4396 39a4 FEFFFFEB 		bl	comm_send_ch
 4397 39a8 0100A0E3 		mov	r0, #1
 4398 39ac 3710DDE5 		ldrb	r1, [sp, #55]	@ zero_extendqisi2
 4399 39b0 FEFFFFEB 		bl	comm_send_ch
 4400 39b4 0100A0E3 		mov	r0, #1
 4401 39b8 3810DDE5 		ldrb	r1, [sp, #56]	@ zero_extendqisi2
 4402 39bc FEFFFFEB 		bl	comm_send_ch
 4403 39c0 3430DDE5 		ldrb	r3, [sp, #52]	@ zero_extendqisi2
 4404 39c4 000053E3 		cmp	r3, #0
 4405 39c8 0B00000A 		beq	.L308
 4406 39cc 0040A0E3 		mov	r4, #0
 4407              	.L310:
 4408 39d0 4FCF8DE2 		add	ip, sp, #316
 4409 39d4 04308CE0 		add	r3, ip, r4
 4410 39d8 031153E5 		ldrb	r1, [r3, #-259]	@ zero_extendqisi2
 4411 39dc 0100A0E3 		mov	r0, #1
 4412 39e0 FEFFFFEB 		bl	comm_send_ch
 4413 39e4 013084E2 		add	r3, r4, #1
 4414 39e8 0338A0E1 		mov	r3, r3, asl #16
 4415 39ec 3420DDE5 		ldrb	r2, [sp, #52]	@ zero_extendqisi2
 4416 39f0 2348A0E1 		mov	r4, r3, lsr #16
 4417 39f4 040052E1 		cmp	r2, r4
 4418 39f8 F4FFFF8A 		bhi	.L310
 4419              	.L308:
 4420 39fc 0100A0E3 		mov	r0, #1
 4421 3a00 3811DDE5 		ldrb	r1, [sp, #312]	@ zero_extendqisi2
 4422 3a04 FEFFFFEB 		bl	comm_send_ch
 4423 3a08 0100A0E3 		mov	r0, #1
 4424 3a0c 3911DDE5 		ldrb	r1, [sp, #313]	@ zero_extendqisi2
 4425 3a10 FEFFFFEB 		bl	comm_send_ch
 4426 3a14 A21EA0E3 		mov	r1, #2592
 4427 3a18 ECC19FE5 		ldr	ip, .L335
 4428 3a1c 0100A0E1 		mov	r0, r1
 4429 3a20 0130A0E1 		mov	r3, r1
 4430 3a24 1A2EA0E3 		mov	r2, #416
 4431 3a28 022082E2 		add	r2, r2, #2
 4432 3a2c 081081E2 		add	r1, r1, #8
 4433 3a30 0C3083E2 		add	r3, r3, #12
 4434 3a34 0A0080E2 		add	r0, r0, #10
 4435 3a38 B3409CE1 		ldrh	r4, [ip, r3]
 4436 3a3c B2509CE1 		ldrh	r5, [ip, r2]
 4437 3a40 B1609CE1 		ldrh	r6, [ip, r1]
 4438 3a44 B0709CE1 		ldrh	r7, [ip, r0]
 4439 3a48 FEFFFFEB 		bl	communication_get_uart_drop_rate
 4440 3a4c BC319FE5 		ldr	r3, .L335+4
 4441 3a50 C0219FE5 		ldr	r2, .L335+12
 4442 3a54 0130D3E5 		ldrb	r3, [r3, #1]	@ zero_extendqisi2
 4443 3a58 B0C19FE5 		ldr	ip, .L335+4
 4444 3a5c 0E20D2E5 		ldrb	r2, [r2, #14]	@ zero_extendqisi2
 4445 3a60 00C0DCE5 		ldrb	ip, [ip, #0]	@ zero_extendqisi2
 4446 3a64 24308DE5 		str	r3, [sp, #36]
 4447 3a68 A8319FE5 		ldr	r3, .L335+12
 4448 3a6c 2C208DE5 		str	r2, [sp, #44]
 4449 3a70 012082E2 		add	r2, r2, #1
 4450 3a74 28C08DE5 		str	ip, [sp, #40]
 4451 3a78 0558A0E1 		mov	r5, r5, asl #16
 4452 3a7c 0E20C3E5 		strb	r2, [r3, #14]
 4453 3a80 7130E0E3 		mvn	r3, #113
 4454 3a84 25CCA0E1 		mov	ip, r5, lsr #24
 4455 3a88 3830CDE5 		strb	r3, [sp, #56]
 4456 3a8c 7E3083E2 		add	r3, r3, #126
 4457 3a90 0448A0E1 		mov	r4, r4, asl #16
 4458 3a94 0668A0E1 		mov	r6, r6, asl #16
 4459 3a98 0778A0E1 		mov	r7, r7, asl #16
 4460 3a9c 0008A0E1 		mov	r0, r0, asl #16
 4461 3aa0 39C0CDE5 		strb	ip, [sp, #57]
 4462 3aa4 3430CDE5 		strb	r3, [sp, #52]
 4463 3aa8 24208DE2 		add	r2, sp, #36
 4464 3aac 041092E8 		ldmia	r2, {r2, ip}	@ phole ldm
 4465 3ab0 2C309DE5 		ldr	r3, [sp, #44]
 4466 3ab4 2418A0E1 		mov	r1, r4, lsr #16
 4467 3ab8 26ECA0E1 		mov	lr, r6, lsr #24
 4468 3abc 244CA0E1 		mov	r4, r4, lsr #24
 4469 3ac0 278CA0E1 		mov	r8, r7, lsr #24
 4470 3ac4 20ACA0E1 		mov	sl, r0, lsr #24
 4471 3ac8 2558A0E1 		mov	r5, r5, lsr #16
 4472 3acc 2668A0E1 		mov	r6, r6, lsr #16
 4473 3ad0 2778A0E1 		mov	r7, r7, lsr #16
 4474 3ad4 2008A0E1 		mov	r0, r0, lsr #16
 4475 3ad8 FF1001E2 		and	r1, r1, #255
 4476 3adc 36C0CDE5 		strb	ip, [sp, #54]
 4477 3ae0 3A50CDE5 		strb	r5, [sp, #58]
 4478 3ae4 01C8A0E3 		mov	ip, #65536
 4479 3ae8 3BE0CDE5 		strb	lr, [sp, #59]
 4480 3aec 3C60CDE5 		strb	r6, [sp, #60]
 4481 3af0 3D80CDE5 		strb	r8, [sp, #61]
 4482 3af4 3E70CDE5 		strb	r7, [sp, #62]
 4483 3af8 4140CDE5 		strb	r4, [sp, #65]
 4484 3afc 43A0CDE5 		strb	sl, [sp, #67]
 4485 3b00 4400CDE5 		strb	r0, [sp, #68]
 4486 3b04 3720CDE5 		strb	r2, [sp, #55]
 4487 3b08 3F40CDE5 		strb	r4, [sp, #63]
 4488 3b0c 3530CDE5 		strb	r3, [sp, #53]
 4489 3b10 4210CDE5 		strb	r1, [sp, #66]
 4490 3b14 4010CDE5 		strb	r1, [sp, #64]
 4491 3b18 01C04CE2 		sub	ip, ip, #1
 4492 3b1c 0010A0E3 		mov	r1, #0
 4493              	.L311:
 4494 3b20 0B30D1E7 		ldrb	r3, [r1, fp]	@ zero_extendqisi2
 4495 3b24 0C3023E0 		eor	r3, r3, ip
 4496 3b28 FF3003E2 		and	r3, r3, #255
 4497 3b2c 033223E0 		eor	r3, r3, r3, asl #4
 4498 3b30 FF3003E2 		and	r3, r3, #255
 4499 3b34 0324A0E1 		mov	r2, r3, asl #8
 4500 3b38 2C2482E1 		orr	r2, r2, ip, lsr #8
 4501 3b3c 232222E0 		eor	r2, r2, r3, lsr #4
 4502 3b40 832122E0 		eor	r2, r2, r3, asl #3
 4503 3b44 011081E2 		add	r1, r1, #1
 4504 3b48 0228A0E1 		mov	r2, r2, asl #16
 4505 3b4c 110051E3 		cmp	r1, #17
 4506 3b50 22C8A0E1 		mov	ip, r2, lsr #16
 4507 3b54 F1FFFF1A 		bne	.L311
 4508 3b58 2C34A0E1 		mov	r3, ip, lsr #8
 4509 3b5c 0000A0E3 		mov	r0, #0
 4510 3b60 441081E2 		add	r1, r1, #68
 4511 3b64 3931CDE5 		strb	r3, [sp, #313]
 4512 3b68 38C1CDE5 		strb	ip, [sp, #312]
 4513 3b6c FEFFFFEB 		bl	comm_send_ch
 4514 3b70 0000A0E3 		mov	r0, #0
 4515 3b74 3410DDE5 		ldrb	r1, [sp, #52]	@ zero_extendqisi2
 4516 3b78 FEFFFFEB 		bl	comm_send_ch
 4517 3b7c 0000A0E3 		mov	r0, #0
 4518 3b80 3510DDE5 		ldrb	r1, [sp, #53]	@ zero_extendqisi2
 4519 3b84 FEFFFFEB 		bl	comm_send_ch
 4520 3b88 0000A0E3 		mov	r0, #0
 4521 3b8c 3610DDE5 		ldrb	r1, [sp, #54]	@ zero_extendqisi2
 4522 3b90 FEFFFFEB 		bl	comm_send_ch
 4523 3b94 0000A0E3 		mov	r0, #0
 4524 3b98 3710DDE5 		ldrb	r1, [sp, #55]	@ zero_extendqisi2
 4525 3b9c FEFFFFEB 		bl	comm_send_ch
 4526 3ba0 0000A0E3 		mov	r0, #0
 4527 3ba4 3810DDE5 		ldrb	r1, [sp, #56]	@ zero_extendqisi2
 4528 3ba8 FEFFFFEB 		bl	comm_send_ch
 4529 3bac 3430DDE5 		ldrb	r3, [sp, #52]	@ zero_extendqisi2
 4530 3bb0 000053E3 		cmp	r3, #0
 4531 3bb4 0B00000A 		beq	.L313
 4532 3bb8 0040A0E3 		mov	r4, #0
 4533              	.L315:
 4534 3bbc 4FCF8DE2 		add	ip, sp, #316
 4535 3bc0 04308CE0 		add	r3, ip, r4
 4536 3bc4 031153E5 		ldrb	r1, [r3, #-259]	@ zero_extendqisi2
 4537 3bc8 0000A0E3 		mov	r0, #0
 4538 3bcc FEFFFFEB 		bl	comm_send_ch
 4539 3bd0 013084E2 		add	r3, r4, #1
 4540 3bd4 0338A0E1 		mov	r3, r3, asl #16
 4541 3bd8 3420DDE5 		ldrb	r2, [sp, #52]	@ zero_extendqisi2
 4542 3bdc 2348A0E1 		mov	r4, r3, lsr #16
 4543 3be0 040052E1 		cmp	r2, r4
 4544 3be4 F4FFFF8A 		bhi	.L315
 4545              	.L313:
 4546 3be8 3811DDE5 		ldrb	r1, [sp, #312]	@ zero_extendqisi2
 4547 3bec 0000A0E3 		mov	r0, #0
 4548 3bf0 FEFFFFEB 		bl	comm_send_ch
 4549 3bf4 0000A0E3 		mov	r0, #0
 4550 3bf8 3911DDE5 		ldrb	r1, [sp, #313]	@ zero_extendqisi2
 4551 3bfc FEFFFFEB 		bl	comm_send_ch
 4552 3c00 4FDF8DE2 		add	sp, sp, #316
 4553 3c04 F04FBDE8 		ldmfd	sp!, {r4, r5, r6, r7, r8, r9, sl, fp, lr}
 4554 3c08 1EFF2FE1 		bx	lr
 4555              	.L336:
 4556              		.align	2
 4557              	.L335:
 4558 3c0c 00000000 		.word	global_data
 4559 3c10 00000000 		.word	mavlink_system
 4560 3c14 14000000 		.word	m_mavlink_status.2143+20
 4561 3c18 00000000 		.word	m_mavlink_status.2143
 4563              		.bss
 4564              		.align	2
 4565              	m_mavlink_status.2143:
 4566 0000 00000000 		.space	80
 4566      00000000 
 4566      00000000 
 4566      00000000 
 4566      00000000 
 4567              		.align	2
 4568              	vel_est3.21210:
 4569 0050 00000000 		.space	12
 4569      00000000 
 4569      00000000 
 4570              		.align	2
 4571              	pos_est3.21209:
 4572 005c 00000000 		.space	12
 4572      00000000 
 4572      00000000 
 4573              		.align	2
 4574              	reset_countdown.21095:
 4575 0068 00000000 		.space	4
 4576              		.align	2
 4577              	next_exec_time:
 4578 006c 00000000 		.space	56
 4578      00000000 
 4578      00000000 
 4578      00000000 
 4578      00000000 
 4579              		.comm	mavlink_system,8,4
 4580              		.comm	global_param_id,4,4
 4581              		.comm	state_fly_id,4,4
 4582              		.comm	global_data,2700,4
 4583              		.comm	mag_axis,1,1
 4584              		.comm	bmp085_measurement_mode,1,1
 4585              		.comm	gps_device_mode,1,1
 4586              		.comm	yaw_pos_controller,32,4
 4587              		.comm	yaw_speed_controller,32,4
 4588              		.comm	nick_controller,32,4
 4589              		.comm	roll_controller,32,4
 4590              		.comm	fw_yaw_controller,32,4
 4591              		.comm	fw_nick_controller,32,4
 4592              		.comm	fw_roll_controller,32,4
 4593              		.comm	x_axis_controller,32,4
 4594              		.comm	y_axis_controller,32,4
 4595              		.comm	z_axis_controller,32,4
 4596              		.ident	"GCC: (GNU) 4.1.1 (WinARM)"