   1              		.file	"gps_transformations.c"
   2              		.global	__floatsidf
   3              		.global	__muldf3
   4              		.global	__divdf3
   5              		.global	__truncdfsf2
   6              		.text
   7              		.align	2
   8              		.global	gps_get_local_velocity
  10              	gps_get_local_velocity:
  11              		@ Function supports interworking.
  12              		@ args = 0, pretend = 0, frame = 0
  13              		@ frame_needed = 0, uses_anonymous_args = 0
  14 0000 CC209FE5 		ldr	r2, .L3+8
  15 0004 F030D2E1 		ldrsh	r3, [r2, #0]
  16 0008 033183E0 		add	r3, r3, r3, asl #2
  17 000c F0472DE9 		stmfd	sp!, {r4, r5, r6, r7, r8, r9, sl, lr}
  18 0010 00A0A0E1 		mov	sl, r0
  19 0014 8300A0E1 		mov	r0, r3, asl #1
  20 0018 FEFFFFEB 		bl	__floatsidf
  21 001c A8208FE2 		adr	r2, .L3
  22 0020 0C0092E8 		ldmia	r2, {r2-r3}
  23 0024 FEFFFFEB 		bl	__muldf3
  24 0028 0121A0E3 		mov	r2, #1073741824
  25 002c 662882E2 		add	r2, r2, #6684672
  26 0030 022982E2 		add	r2, r2, #32768
  27 0034 0030A0E3 		mov	r3, #0
  28 0038 FEFFFFEB 		bl	__divdf3
  29 003c 94309FE5 		ldr	r3, .L3+12
  30 0040 0080A0E1 		mov	r8, r0
  31 0044 B000D3E1 		ldrh	r0, [r3, #0]
  32 0048 0190A0E1 		mov	r9, r1
  33 004c FEFFFFEB 		bl	__floatsidf
  34 0050 0141A0E3 		mov	r4, #1073741824
  35 0054 0060A0E1 		mov	r6, r0
  36 0058 0170A0E1 		mov	r7, r1
  37 005c 0800A0E1 		mov	r0, r8
  38 0060 0910A0E1 		mov	r1, r9
  39 0064 FEFFFFEB 		bl	cos
  40 0068 594884E2 		add	r4, r4, #5832704
  41 006c 0620A0E1 		mov	r2, r6
  42 0070 0730A0E1 		mov	r3, r7
  43 0074 0050A0E3 		mov	r5, #0
  44 0078 FEFFFFEB 		bl	__muldf3
  45 007c 0420A0E1 		mov	r2, r4
  46 0080 0530A0E1 		mov	r3, r5
  47 0084 FEFFFFEB 		bl	__muldf3
  48 0088 FEFFFFEB 		bl	__truncdfsf2
  49 008c 0910A0E1 		mov	r1, r9
  50 0090 00008AE5 		str	r0, [sl, #0]	@ float
  51 0094 0800A0E1 		mov	r0, r8
  52 0098 FEFFFFEB 		bl	sin
  53 009c 0020A0E1 		mov	r2, r0
  54 00a0 0130A0E1 		mov	r3, r1
  55 00a4 0600A0E1 		mov	r0, r6
  56 00a8 0710A0E1 		mov	r1, r7
  57 00ac FEFFFFEB 		bl	__muldf3
  58 00b0 0420A0E1 		mov	r2, r4
  59 00b4 0530A0E1 		mov	r3, r5
  60 00b8 FEFFFFEB 		bl	__muldf3
  61 00bc FEFFFFEB 		bl	__truncdfsf2
  62 00c0 04008AE5 		str	r0, [sl, #4]	@ float
  63 00c4 F047BDE8 		ldmfd	sp!, {r4, r5, r6, r7, r8, r9, sl, lr}
  64 00c8 1EFF2FE1 		bx	lr
  65              	.L4:
  66              		.align	2
  67              	.L3:
  68 00cc CA210940 		.word	1074340298
  69 00d0 6F1283C0 		.word	-1065151889
  70 00d4 00000000 		.word	gps_course
  71 00d8 00000000 		.word	gps_gspeed
  73              		.global	__fixunssfsi
  74              		.global	__fixsfsi
  75              		.align	2
  76              		.global	gps_send_local_origin
  78              	gps_send_local_origin:
  79              		@ Function supports interworking.
  80              		@ args = 0, pretend = 0, frame = 284
  81              		@ frame_needed = 0, uses_anonymous_args = 0
  82 00dc F04F2DE9 		stmfd	sp!, {r4, r5, r6, r7, r8, r9, sl, fp, lr}
  83 00e0 00329FE5 		ldr	r3, .L18
  84 00e4 0020D3E5 		ldrb	r2, [r3, #0]	@ zero_extendqisi2
  85 00e8 000052E3 		cmp	r2, #0
  86 00ec 47DF4DE2 		sub	sp, sp, #284
  87 00f0 7900000A 		beq	.L13
  88 00f4 F0319FE5 		ldr	r3, .L18+4
  89 00f8 7C0393E5 		ldr	r0, [r3, #892]	@ float
  90 00fc FEFFFFEB 		bl	__fixunssfsi
  91 0100 E8419FE5 		ldr	r4, .L18+8
  92 0104 00B0A0E1 		mov	fp, r0
  93 0108 000094E5 		ldr	r0, [r4, #0]	@ float
  94 010c FEFFFFEB 		bl	__fixsfsi
  95 0110 0050A0E1 		mov	r5, r0
  96 0114 040094E5 		ldr	r0, [r4, #4]	@ float
  97 0118 FEFFFFEB 		bl	__fixsfsi
  98 011c 0060A0E1 		mov	r6, r0
  99 0120 080094E5 		ldr	r0, [r4, #8]	@ float
 100 0124 FEFFFFEB 		bl	__fixsfsi
 101 0128 FF300BE2 		and	r3, fp, #255
 102 012c C0119FE5 		ldr	r1, .L18+12
 103 0130 033183E0 		add	r3, r3, r3, asl #2
 104 0134 031181E0 		add	r1, r1, r3, asl #2
 105 0138 0E30D1E5 		ldrb	r3, [r1, #14]	@ zero_extendqisi2
 106 013c B4219FE5 		ldr	r2, .L18+16
 107 0140 00308DE5 		str	r3, [sp, #0]
 108 0144 0130D2E5 		ldrb	r3, [r2, #1]	@ zero_extendqisi2
 109 0148 0020D2E5 		ldrb	r2, [r2, #0]	@ zero_extendqisi2
 110 014c 10208DE5 		str	r2, [sp, #16]
 111 0150 00209DE5 		ldr	r2, [sp, #0]
 112 0154 0C308DE5 		str	r3, [sp, #12]
 113 0158 4038A0E1 		mov	r3, r0, asr #16
 114 015c 01C082E2 		add	ip, r2, #1
 115 0160 08308DE5 		str	r3, [sp, #8]
 116 0164 4034A0E1 		mov	r3, r0, asr #8
 117 0168 04308DE5 		str	r3, [sp, #4]
 118 016c 452CA0E1 		mov	r2, r5, asr #24
 119 0170 0EC0C1E5 		strb	ip, [r1, #14]
 120 0174 3130A0E3 		mov	r3, #49
 121 0178 1920CDE5 		strb	r2, [sp, #25]
 122 017c 08209DE5 		ldr	r2, [sp, #8]
 123 0180 1830CDE5 		strb	r3, [sp, #24]
 124 0184 04309DE5 		ldr	r3, [sp, #4]
 125 0188 2220CDE5 		strb	r2, [sp, #34]
 126 018c 10209DE5 		ldr	r2, [sp, #16]
 127 0190 2330CDE5 		strb	r3, [sp, #35]
 128 0194 0C30A0E3 		mov	r3, #12
 129 0198 1430CDE5 		strb	r3, [sp, #20]
 130 019c 1620CDE5 		strb	r2, [sp, #22]
 131 01a0 0C309DE5 		ldr	r3, [sp, #12]
 132 01a4 00209DE5 		ldr	r2, [sp, #0]
 133 01a8 409CA0E1 		mov	r9, r0, asr #24
 134 01ac 45E8A0E1 		mov	lr, r5, asr #16
 135 01b0 4544A0E1 		mov	r4, r5, asr #8
 136 01b4 467CA0E1 		mov	r7, r6, asr #24
 137 01b8 4688A0E1 		mov	r8, r6, asr #16
 138 01bc 46A4A0E1 		mov	sl, r6, asr #8
 139 01c0 01C8A0E3 		mov	ip, #65536
 140 01c4 1AE0CDE5 		strb	lr, [sp, #26]
 141 01c8 1B40CDE5 		strb	r4, [sp, #27]
 142 01cc 1C50CDE5 		strb	r5, [sp, #28]
 143 01d0 1D70CDE5 		strb	r7, [sp, #29]
 144 01d4 1E80CDE5 		strb	r8, [sp, #30]
 145 01d8 1FA0CDE5 		strb	sl, [sp, #31]
 146 01dc 2060CDE5 		strb	r6, [sp, #32]
 147 01e0 2190CDE5 		strb	r9, [sp, #33]
 148 01e4 1730CDE5 		strb	r3, [sp, #23]
 149 01e8 1520CDE5 		strb	r2, [sp, #21]
 150 01ec 2400CDE5 		strb	r0, [sp, #36]
 151 01f0 01C04CE2 		sub	ip, ip, #1
 152 01f4 14008DE2 		add	r0, sp, #20
 153 01f8 0010A0E3 		mov	r1, #0
 154              	.L8:
 155 01fc 0030D1E7 		ldrb	r3, [r1, r0]	@ zero_extendqisi2
 156 0200 0C3023E0 		eor	r3, r3, ip
 157 0204 FF3003E2 		and	r3, r3, #255
 158 0208 033223E0 		eor	r3, r3, r3, asl #4
 159 020c FF3003E2 		and	r3, r3, #255
 160 0210 0324A0E1 		mov	r2, r3, asl #8
 161 0214 2C2482E1 		orr	r2, r2, ip, lsr #8
 162 0218 232222E0 		eor	r2, r2, r3, lsr #4
 163 021c 832122E0 		eor	r2, r2, r3, asl #3
 164 0220 011081E2 		add	r1, r1, #1
 165 0224 0228A0E1 		mov	r2, r2, asl #16
 166 0228 110051E3 		cmp	r1, #17
 167 022c 22C8A0E1 		mov	ip, r2, lsr #16
 168 0230 F1FFFF1A 		bne	.L8
 169 0234 2C34A0E1 		mov	r3, ip, lsr #8
 170 0238 441081E2 		add	r1, r1, #68
 171 023c 0B00A0E1 		mov	r0, fp
 172 0240 1931CDE5 		strb	r3, [sp, #281]
 173 0244 18C1CDE5 		strb	ip, [sp, #280]
 174 0248 FEFFFFEB 		bl	comm_send_ch
 175 024c 0B00A0E1 		mov	r0, fp
 176 0250 1410DDE5 		ldrb	r1, [sp, #20]	@ zero_extendqisi2
 177 0254 FEFFFFEB 		bl	comm_send_ch
 178 0258 0B00A0E1 		mov	r0, fp
 179 025c 1510DDE5 		ldrb	r1, [sp, #21]	@ zero_extendqisi2
 180 0260 FEFFFFEB 		bl	comm_send_ch
 181 0264 0B00A0E1 		mov	r0, fp
 182 0268 1610DDE5 		ldrb	r1, [sp, #22]	@ zero_extendqisi2
 183 026c FEFFFFEB 		bl	comm_send_ch
 184 0270 0B00A0E1 		mov	r0, fp
 185 0274 1710DDE5 		ldrb	r1, [sp, #23]	@ zero_extendqisi2
 186 0278 FEFFFFEB 		bl	comm_send_ch
 187 027c 0B00A0E1 		mov	r0, fp
 188 0280 1810DDE5 		ldrb	r1, [sp, #24]	@ zero_extendqisi2
 189 0284 FEFFFFEB 		bl	comm_send_ch
 190 0288 1430DDE5 		ldrb	r3, [sp, #20]	@ zero_extendqisi2
 191 028c 000053E3 		cmp	r3, #0
 192 0290 0B00000A 		beq	.L10
 193 0294 0040A0E3 		mov	r4, #0
 194              	.L12:
 195 0298 472F8DE2 		add	r2, sp, #284
 196 029c 043082E0 		add	r3, r2, r4
 197 02a0 031153E5 		ldrb	r1, [r3, #-259]	@ zero_extendqisi2
 198 02a4 0B00A0E1 		mov	r0, fp
 199 02a8 FEFFFFEB 		bl	comm_send_ch
 200 02ac 013084E2 		add	r3, r4, #1
 201 02b0 0338A0E1 		mov	r3, r3, asl #16
 202 02b4 1420DDE5 		ldrb	r2, [sp, #20]	@ zero_extendqisi2
 203 02b8 2348A0E1 		mov	r4, r3, lsr #16
 204 02bc 040052E1 		cmp	r2, r4
 205 02c0 F4FFFF8A 		bhi	.L12
 206              	.L10:
 207 02c4 1811DDE5 		ldrb	r1, [sp, #280]	@ zero_extendqisi2
 208 02c8 0B00A0E1 		mov	r0, fp
 209 02cc FEFFFFEB 		bl	comm_send_ch
 210 02d0 0B00A0E1 		mov	r0, fp
 211 02d4 1911DDE5 		ldrb	r1, [sp, #281]	@ zero_extendqisi2
 212 02d8 FEFFFFEB 		bl	comm_send_ch
 213              	.L13:
 214 02dc 47DF8DE2 		add	sp, sp, #284
 215 02e0 F04FBDE8 		ldmfd	sp!, {r4, r5, r6, r7, r8, r9, sl, fp, lr}
 216 02e4 1EFF2FE1 		bx	lr
 217              	.L19:
 218              		.align	2
 219              	.L18:
 220 02e8 00000000 		.word	gps_local_origin_init
 221 02ec 00000000 		.word	global_data
 222 02f0 58000000 		.word	gps_local_origin
 223 02f4 04000000 		.word	m_mavlink_status.3020
 224 02f8 00000000 		.word	mavlink_system
 226              		.global	__floatsisf
 227              		.global	__divsf3
 228              		.global	__extendsfdf2
 229              		.section	.rodata.str1.4,"aMS",%progbits,1
 230              		.align	2
 231              	.LC0:
 232 0000 47505320 		.ascii	"GPS Local Origin saved\000"
 232      4C6F6361 
 232      6C204F72 
 232      6967696E 
 232      20736176 
 233 0017 00       		.text
 234              		.align	2
 235              		.global	gps_set_local_origin
 237              	gps_set_local_origin:
 238              		@ Function supports interworking.
 239              		@ args = 0, pretend = 0, frame = 0
 240              		@ frame_needed = 0, uses_anonymous_args = 0
 241 02fc 70402DE9 		stmfd	sp!, {r4, r5, r6, lr}
 242 0300 B8309FE5 		ldr	r3, .L22+8
 243 0304 4B54A0E3 		mov	r5, #1258291200
 244 0308 625985E2 		add	r5, r5, #1605632
 245 030c 000093E5 		ldr	r0, [r3, #0]
 246 0310 5A5D85E2 		add	r5, r5, #5760
 247 0314 FEFFFFEB 		bl	__floatsisf
 248 0318 0510A0E1 		mov	r1, r5
 249 031c FEFFFFEB 		bl	__divsf3
 250 0320 9C309FE5 		ldr	r3, .L22+12
 251 0324 9C409FE5 		ldr	r4, .L22+16
 252 0328 0060A0E1 		mov	r6, r0
 253 032c 000093E5 		ldr	r0, [r3, #0]
 254 0330 006084E5 		str	r6, [r4, #0]	@ float
 255 0334 FEFFFFEB 		bl	__floatsisf
 256 0338 0510A0E1 		mov	r1, r5
 257 033c FEFFFFEB 		bl	__divsf3
 258 0340 84309FE5 		ldr	r3, .L22+20
 259 0344 040084E5 		str	r0, [r4, #4]	@ float
 260 0348 000093E5 		ldr	r0, [r3, #0]
 261 034c FEFFFFEB 		bl	__floatsisf
 262 0350 4214A0E3 		mov	r1, #1107296256
 263 0354 321781E2 		add	r1, r1, #13107200
 264 0358 FEFFFFEB 		bl	__divsf3
 265 035c 080084E5 		str	r0, [r4, #8]	@ float
 266 0360 0600A0E1 		mov	r0, r6
 267 0364 FEFFFFEB 		bl	__extendsfdf2
 268 0368 48208FE2 		adr	r2, .L22
 269 036c 0C0092E8 		ldmia	r2, {r2-r3}
 270 0370 FEFFFFEB 		bl	__muldf3
 271 0374 0121A0E3 		mov	r2, #1073741824
 272 0378 662882E2 		add	r2, r2, #6684672
 273 037c 022982E2 		add	r2, r2, #32768
 274 0380 0030A0E3 		mov	r3, #0
 275 0384 FEFFFFEB 		bl	__divdf3
 276 0388 FEFFFFEB 		bl	cos
 277 038c FEFFFFEB 		bl	__truncdfsf2
 278 0390 38309FE5 		ldr	r3, .L22+24
 279 0394 000083E5 		str	r0, [r3, #0]	@ float
 280 0398 34309FE5 		ldr	r3, .L22+28
 281 039c 0120A0E3 		mov	r2, #1
 282 03a0 0020C3E5 		strb	r2, [r3, #0]
 283 03a4 FEFFFFEB 		bl	gps_send_local_origin
 284 03a8 28009FE5 		ldr	r0, .L22+32
 285 03ac FEFFFFEB 		bl	debug_message_buffer
 286 03b0 7040BDE8 		ldmfd	sp!, {r4, r5, r6, lr}
 287 03b4 1EFF2FE1 		bx	lr
 288              	.L23:
 289              		.align	2
 290              	.L22:
 291 03b8 CA210940 		.word	1074340298
 292 03bc 6F1283C0 		.word	-1065151889
 293 03c0 00000000 		.word	gps_lat
 294 03c4 00000000 		.word	gps_lon
 295 03c8 58000000 		.word	gps_local_origin
 296 03cc 00000000 		.word	gps_alt
 297 03d0 54000000 		.word	gps_cos_origin_lat
 298 03d4 00000000 		.word	gps_local_origin_init
 299 03d8 00000000 		.word	.LC0
 301              		.global	__subsf3
 302              		.global	__mulsf3
 303              		.align	2
 304              		.global	gps_get_local_position
 306              	gps_get_local_position:
 307              		@ Function supports interworking.
 308              		@ args = 0, pretend = 0, frame = 0
 309              		@ frame_needed = 0, uses_anonymous_args = 0
 310 03dc 48319FE5 		ldr	r3, .L29+8
 311 03e0 0020D3E5 		ldrb	r2, [r3, #0]	@ zero_extendqisi2
 312 03e4 000052E3 		cmp	r2, #0
 313 03e8 F0402DE9 		stmfd	sp!, {r4, r5, r6, r7, lr}
 314 03ec 3C719FE5 		ldr	r7, .L29+12
 315 03f0 0060A0E1 		mov	r6, r0
 316 03f4 4400000A 		beq	.L25
 317 03f8 34319FE5 		ldr	r3, .L29+16
 318 03fc 000093E5 		ldr	r0, [r3, #0]
 319 0400 FEFFFFEB 		bl	__floatsisf
 320 0404 4B14A0E3 		mov	r1, #1258291200
 321 0408 621981E2 		add	r1, r1, #1605632
 322 040c 5A1D81E2 		add	r1, r1, #5760
 323 0410 FEFFFFEB 		bl	__divsf3
 324 0414 001097E5 		ldr	r1, [r7, #0]	@ float
 325 0418 FEFFFFEB 		bl	__subsf3
 326 041c FEFFFFEB 		bl	__extendsfdf2
 327 0420 FC208FE2 		adr	r2, .L29
 328 0424 0C0092E8 		ldmia	r2, {r2-r3}
 329 0428 FEFFFFEB 		bl	__muldf3
 330 042c 0121A0E3 		mov	r2, #1073741824
 331 0430 662882E2 		add	r2, r2, #6684672
 332 0434 022982E2 		add	r2, r2, #32768
 333 0438 0030A0E3 		mov	r3, #0
 334 043c FEFFFFEB 		bl	__divdf3
 335 0440 FEFFFFEB 		bl	tan
 336 0444 EC209FE5 		ldr	r2, .L29+20
 337 0448 0030A0E3 		mov	r3, #0
 338 044c FEFFFFEB 		bl	__muldf3
 339 0450 FEFFFFEB 		bl	__truncdfsf2
 340 0454 E0309FE5 		ldr	r3, .L29+24
 341 0458 000086E5 		str	r0, [r6, #0]	@ float
 342 045c DC009FE5 		ldr	r0, .L29+28
 343 0460 001093E5 		ldr	r1, [r3, #0]	@ float
 344 0464 FEFFFFEB 		bl	__mulsf3
 345 0468 FEFFFFEB 		bl	__extendsfdf2
 346 046c D0309FE5 		ldr	r3, .L29+32
 347 0470 0040A0E1 		mov	r4, r0
 348 0474 000093E5 		ldr	r0, [r3, #0]
 349 0478 0150A0E1 		mov	r5, r1
 350 047c FEFFFFEB 		bl	__floatsisf
 351 0480 4B14A0E3 		mov	r1, #1258291200
 352 0484 621981E2 		add	r1, r1, #1605632
 353 0488 5A1D81E2 		add	r1, r1, #5760
 354 048c FEFFFFEB 		bl	__divsf3
 355 0490 041097E5 		ldr	r1, [r7, #4]	@ float
 356 0494 FEFFFFEB 		bl	__subsf3
 357 0498 FEFFFFEB 		bl	__extendsfdf2
 358 049c 80208FE2 		adr	r2, .L29
 359 04a0 0C0092E8 		ldmia	r2, {r2-r3}
 360 04a4 FEFFFFEB 		bl	__muldf3
 361 04a8 0121A0E3 		mov	r2, #1073741824
 362 04ac 662882E2 		add	r2, r2, #6684672
 363 04b0 022982E2 		add	r2, r2, #32768
 364 04b4 0030A0E3 		mov	r3, #0
 365 04b8 FEFFFFEB 		bl	__divdf3
 366 04bc FEFFFFEB 		bl	tan
 367 04c0 0020A0E1 		mov	r2, r0
 368 04c4 0130A0E1 		mov	r3, r1
 369 04c8 0400A0E1 		mov	r0, r4
 370 04cc 0510A0E1 		mov	r1, r5
 371 04d0 FEFFFFEB 		bl	__muldf3
 372 04d4 FEFFFFEB 		bl	__truncdfsf2
 373 04d8 68309FE5 		ldr	r3, .L29+36
 374 04dc 040086E5 		str	r0, [r6, #4]	@ float
 375 04e0 000093E5 		ldr	r0, [r3, #0]
 376 04e4 FEFFFFEB 		bl	__floatsisf
 377 04e8 4214A0E3 		mov	r1, #1107296256
 378 04ec 321781E2 		add	r1, r1, #13107200
 379 04f0 FEFFFFEB 		bl	__divsf3
 380 04f4 081097E5 		ldr	r1, [r7, #8]	@ float
 381 04f8 FEFFFFEB 		bl	__subsf3
 382 04fc 023180E2 		add	r3, r0, #-2147483648
 383 0500 083086E5 		str	r3, [r6, #8]	@ float
 384              	.L28:
 385 0504 F040BDE8 		ldmfd	sp!, {r4, r5, r6, r7, lr}
 386 0508 1EFF2FE1 		bx	lr
 387              	.L25:
 388 050c FEFFFFEB 		bl	gps_set_local_origin
 389 0510 0030A0E3 		mov	r3, #0
 390 0514 083086E5 		str	r3, [r6, #8]	@ float
 391 0518 003086E5 		str	r3, [r6, #0]	@ float
 392 051c 043086E5 		str	r3, [r6, #4]	@ float
 393 0520 F7FFFFEA 		b	.L28
 394              	.L30:
 395              		.align	2
 396              	.L29:
 397 0524 CA210940 		.word	1074340298
 398 0528 6F1283C0 		.word	-1065151889
 399 052c 00000000 		.word	gps_local_origin_init
 400 0530 58000000 		.word	gps_local_origin
 401 0534 00000000 		.word	gps_lat
 402 0538 A7545841 		.word	1096307879
 403 053c 54000000 		.word	gps_cos_origin_lat
 404 0540 38A5C24A 		.word	1254270264
 405 0544 00000000 		.word	gps_lon
 406 0548 00000000 		.word	gps_alt
 408              		.global	r_earth
 409              		.section	.rodata
 410              		.align	2
 413              	r_earth:
 414 0000 38A5C24A 		.word	1254270264
 415              		.bss
 416              	gps_local_origin_init:
 417 0000 00       		.space	1
 418 0001 000000   		.align	2
 419              	m_mavlink_status.3020:
 420 0004 00000000 		.space	80
 420      00000000 
 420      00000000 
 420      00000000 
 420      00000000 
 421              		.align	2
 422              	gps_cos_origin_lat:
 423 0054 00000000 		.space	4
 424              		.align	2
 425              	gps_local_origin:
 426 0058 00000000 		.space	12
 426      00000000 
 426      00000000 
 427              		.comm	global_param_id,4,4
 428              		.comm	state_fly_id,4,4
 429              		.comm	global_data,2684,4
 430              		.comm	gps_device_mode,1,1
 431              		.comm	mavlink_system,8,4
 432              		.ident	"GCC: (GNU) 4.1.1 (WinARM)"