   1              		.file	"i2c_motor_controller.c"
   2              		.text
   3              		.align	2
   5              	mot_save_rpm_after_read:
   6              		@ Function supports interworking.
   7              		@ args = 0, pretend = 0, frame = 0
   8              		@ frame_needed = 0, uses_anonymous_args = 0
   9              		@ link register save eliminated.
  10 0000 0030D0E5 		ldrb	r3, [r0, #0]	@ zero_extendqisi2
  11 0004 000053E3 		cmp	r3, #0
  12              		@ lr needed for prologue
  13 0008 0120A0E3 		mov	r2, #1
  14 000c 0200001A 		bne	.L4
  15 0010 0130D0E5 		ldrb	r3, [r0, #1]	@ zero_extendqisi2
  16 0014 002053E2 		subs	r2, r3, #0
  17 0018 0120A013 		movne	r2, #1
  18              	.L4:
  19 001c 10309FE5 		ldr	r3, .L7
  20 0020 B020C3E1 		strh	r2, [r3, #0]	@ movhi
  21 0024 0C309FE5 		ldr	r3, .L7+4
  22 0028 0120A0E3 		mov	r2, #1
  23 002c 0020C3E5 		strb	r2, [r3, #0]
  24 0030 1EFF2FE1 		bx	lr
  25              	.L8:
  26              		.align	2
  27              	.L7:
  28 0034 00000000 		.word	current_rpm
  29 0038 00000000 		.word	mot_rpm_data_ready
  31              		.align	2
  32              		.global	motor_i2c_get_rpm
  34              	motor_i2c_get_rpm:
  35              		@ Function supports interworking.
  36              		@ args = 0, pretend = 0, frame = 96
  37              		@ frame_needed = 0, uses_anonymous_args = 0
  38 003c 30402DE9 		stmfd	sp!, {r4, r5, lr}
  39 0040 00C8A0E1 		mov	ip, r0, asl #16
  40 0044 60D04DE2 		sub	sp, sp, #96
  41 0048 1130A0E3 		mov	r3, #17
  42 004c 2CC8A0E1 		mov	ip, ip, lsr #16
  43 0050 7C509FE5 		ldr	r5, .L15
  44 0054 0030CDE5 		strb	r3, [sp, #0]
  45 0058 78309FE5 		ldr	r3, .L15+4
  46 005c 0040A0E3 		mov	r4, #0
  47 0060 01E0A0E3 		mov	lr, #1
  48 0064 FFC00CE2 		and	ip, ip, #255
  49 0068 0220A0E3 		mov	r2, #2
  50 006c 0D00A0E1 		mov	r0, sp
  51 0070 30108DE2 		add	r1, sp, #48
  52 0074 5020CDE5 		strb	r2, [sp, #80]
  53 0078 52C0CDE5 		strb	ip, [sp, #82]
  54 007c 54E0CDE5 		strb	lr, [sp, #84]
  55 0080 58308DE5 		str	r3, [sp, #88]
  56 0084 0040C5E5 		strb	r4, [r5, #0]
  57 0088 20E0CDE5 		strb	lr, [sp, #32]
  58 008c 2140CDE5 		strb	r4, [sp, #33]
  59 0090 22C0CDE5 		strb	ip, [sp, #34]
  60 0094 2340CDE5 		strb	r4, [sp, #35]
  61 0098 24E0CDE5 		strb	lr, [sp, #36]
  62 009c 28408DE5 		str	r4, [sp, #40]
  63 00a0 51E0CDE5 		strb	lr, [sp, #81]
  64 00a4 5340CDE5 		strb	r4, [sp, #83]
  65 00a8 FEFFFFEB 		bl	i2c_write_read
  66              	.L10:
  67 00ac 0030D5E5 		ldrb	r3, [r5, #0]	@ zero_extendqisi2
  68 00b0 000053E3 		cmp	r3, #0
  69 00b4 FCFFFF0A 		beq	.L10
  70 00b8 1C309FE5 		ldr	r3, .L15+8
  71 00bc B000D3E1 		ldrh	r0, [r3, #0]
  72 00c0 0008A0E1 		mov	r0, r0, asl #16
  73 00c4 2008A0E1 		mov	r0, r0, lsr #16
  74 00c8 60D08DE2 		add	sp, sp, #96
  75 00cc 3040BDE8 		ldmfd	sp!, {r4, r5, lr}
  76 00d0 1EFF2FE1 		bx	lr
  77              	.L16:
  78              		.align	2
  79              	.L15:
  80 00d4 00000000 		.word	mot_rpm_data_ready
  81 00d8 00000000 		.word	mot_save_rpm_after_read
  82 00dc 00000000 		.word	current_rpm
  84              		.align	2
  85              		.global	motor_i2c_set_rpm
  87              	motor_i2c_set_rpm:
  88              		@ Function supports interworking.
  89              		@ args = 0, pretend = 0, frame = 48
  90              		@ frame_needed = 0, uses_anonymous_args = 0
  91 00e0 04E02DE5 		str	lr, [sp, #-4]!
  92 00e4 30D04DE2 		sub	sp, sp, #48
  93 00e8 0020A0E3 		mov	r2, #0
  94 00ec 2200CDE5 		strb	r0, [sp, #34]
  95 00f0 21C4A0E1 		mov	ip, r1, lsr #8
  96 00f4 0230A0E3 		mov	r3, #2
  97 00f8 0D00A0E1 		mov	r0, sp
  98 00fc 00C0CDE5 		strb	ip, [sp, #0]
  99 0100 2030CDE5 		strb	r3, [sp, #32]
 100 0104 28208DE5 		str	r2, [sp, #40]
 101 0108 0110CDE5 		strb	r1, [sp, #1]
 102 010c 2120CDE5 		strb	r2, [sp, #33]
 103 0110 2320CDE5 		strb	r2, [sp, #35]
 104 0114 2420CDE5 		strb	r2, [sp, #36]
 105 0118 FEFFFFEB 		bl	i2c_op
 106 011c 30D08DE2 		add	sp, sp, #48
 107 0120 04E09DE4 		ldr	lr, [sp], #4
 108 0124 1EFF2FE1 		bx	lr
 110              		.global	current_rpm
 111              		.bss
 112              		.align	1
 115              	current_rpm:
 116 0000 0000     		.space	2
 117              		.global	mot_rpm_data_ready
 120              	mot_rpm_data_ready:
 121 0002 00       		.space	1
 122              		.comm	mavlink_system,8,4
 123 0003 00       		.ident	"GCC: (GNU) 4.1.1 (WinARM)"