   1              		.file	"mainloop_generic.c"
   2              		.section	.rodata.str1.4,"aMS",%progbits,1
   3              		.align	2
   4              	.LC0:
   5 0000 53746172 		.ascii	"Starting main loop\000"
   5      74696E67 
   5      206D6169 
   5      6E206C6F 
   5      6F7000
   6              		.global	__eqsf2
   7              		.global	__floatsidf
   8              		.global	__floatsisf
   9              		.global	__muldf3
  10              		.global	__extendsfdf2
  11              		.global	__adddf3
  12              		.global	__truncdfsf2
  13              		.global	__subsf3
  14 0013 00       		.align	2
  15              	.LC1:
  16 0014 4759524F 		.ascii	"GYRO_RAW_X was ZERO!!!\000"
  16      5F524157 
  16      5F582077 
  16      6173205A 
  16      45524F21 
  17 002b 00       		.align	2
  18              	.LC2:
  19 002c 4759524F 		.ascii	"GYRO_RAW_Y was ZERO!!!\000"
  19      5F524157 
  19      5F592077 
  19      6173205A 
  19      45524F21 
  20 0043 00       		.align	2
  21              	.LC3:
  22 0044 4759524F 		.ascii	"GYRO_RAW_Z was ZERO!!!\000"
  22      5F524157 
  22      5F5A2077 
  22      6173205A 
  22      45524F21 
  23              		.global	__mulsf3
  24              		.global	__divsf3
  25              		.global	__fixsfsi
  26              		.global	__addsf3
  27              		.global	__gtsf2
  28 005b 00       		.align	2
  29              	.LC4:
  30 005c 626D7030 		.ascii	"bmp085 pressure spike rejected\000"
  30      38352070 
  30      72657373 
  30      75726520 
  30      7370696B 
  31 007b 00       		.align	2
  32              	.LC5:
  33 007c 43524954 		.ascii	"CRITICAL WARNING! CPU LOAD TO HIGH. STARVATION!\000"
  33      4943414C 
  33      20574152 
  33      4E494E47 
  33      21204350 
  34              		.align	2
  35              	.LC6:
  36 00ac 43524954 		.ascii	"CRITICAL WARNING! CPU LOAD HIGHER THAN 80%\000"
  36      4943414C 
  36      20574152 
  36      4E494E47 
  36      21204350 
  37              		.text
  38              		.align	2
  39              		.global	main_loop_generic
  41              	main_loop_generic:
  42              		@ Function supports interworking.
  43              		@ args = 0, pretend = 0, frame = 16
  44              		@ frame_needed = 0, uses_anonymous_args = 0
  45 0000 F04F2DE9 		stmfd	sp!, {r4, r5, r6, r7, r8, r9, sl, fp, lr}
  46 0004 18D04DE2 		sub	sp, sp, #24
  47 0008 FEFFFFEB 		bl	sys_time_clock_get_time_usec
  48 000c 64259FE5 		ldr	r2, .L85+108
  49 0010 030082E8 		stmia	r2, {r0-r1}
  50 0014 20059FE5 		ldr	r0, .L85+48
  51 0018 FEFFFFEB 		bl	debug_message_buffer
  52 001c 1C959FE5 		ldr	r9, .L85+52
  53              	.L79:
  54 0020 FEFFFFEB 		bl	sys_time_clock_get_time_usec
  55 0024 0070A0E1 		mov	r7, r0
  56 0028 4E0DA0E3 		mov	r0, #4992
  57 002c 0180A0E1 		mov	r8, r1
  58 0030 080080E2 		add	r0, r0, #8
  59 0034 0110A0E3 		mov	r1, #1
  60 0038 0720A0E1 		mov	r2, r7
  61 003c FEFFFFEB 		bl	us_run_every
  62 0040 000050E3 		cmp	r0, #0
  63 0044 F100000A 		beq	.L3
  64 0048 0000A0E3 		mov	r0, #0
  65 004c 0110A0E3 		mov	r1, #1
  66 0050 FEFFFFEB 		bl	ads8341_read
  67              	.L5:
  68 0054 FEFFFFEB 		bl	spi_running
  69 0058 004050E2 		subs	r4, r0, #0
  70 005c FCFFFF1A 		bne	.L5
  71 0060 0110A0E3 		mov	r1, #1
  72 0064 FEFFFFEB 		bl	ads8341_get_value
  73 0068 0410A0E1 		mov	r1, r4
  74 006c B001C9E1 		strh	r0, [r9, #16]	@ movhi
  75 0070 0400A0E1 		mov	r0, r4
  76 0074 FEFFFFEB 		bl	ads8341_read
  77              	.L7:
  78 0078 FEFFFFEB 		bl	spi_running
  79 007c 004050E2 		subs	r4, r0, #0
  80 0080 FCFFFF1A 		bne	.L7
  81 0084 0410A0E1 		mov	r1, r4
  82 0088 FEFFFFEB 		bl	ads8341_get_value
  83 008c 0210A0E3 		mov	r1, #2
  84 0090 B201C9E1 		strh	r0, [r9, #18]	@ movhi
  85 0094 0400A0E1 		mov	r0, r4
  86 0098 FEFFFFEB 		bl	ads8341_read
  87              	.L9:
  88 009c FEFFFFEB 		bl	spi_running
  89 00a0 004050E2 		subs	r4, r0, #0
  90 00a4 FCFFFF1A 		bne	.L9
  91 00a8 0210A0E3 		mov	r1, #2
  92 00ac FEFFFFEB 		bl	ads8341_get_value
  93 00b0 0310A0E3 		mov	r1, #3
  94 00b4 B401C9E1 		strh	r0, [r9, #20]	@ movhi
  95 00b8 0400A0E1 		mov	r0, r4
  96 00bc FEFFFFEB 		bl	ads8341_read
  97              	.L11:
  98 00c0 FEFFFFEB 		bl	spi_running
  99 00c4 000050E3 		cmp	r0, #0
 100 00c8 FCFFFF1A 		bne	.L11
 101 00cc 0310A0E3 		mov	r1, #3
 102 00d0 FEFFFFEB 		bl	ads8341_get_value
 103 00d4 FE15A0E3 		mov	r1, #1065353216
 104 00d8 0040A0E1 		mov	r4, r0
 105 00dc 480399E5 		ldr	r0, [r9, #840]	@ float
 106 00e0 BA42C9E1 		strh	r4, [r9, #42]	@ movhi
 107 00e4 FEFFFFEB 		bl	__eqsf2
 108 00e8 000050E3 		cmp	r0, #0
 109 00ec 4CA49FE5 		ldr	sl, .L85+52
 110 00f0 D000001A 		bne	.L13
 111 00f4 0400A0E1 		mov	r0, r4
 112 00f8 FEFFFFEB 		bl	__floatsidf
 113 00fc 08008DE5 		str	r0, [sp, #8]
 114 0100 0C108DE5 		str	r1, [sp, #12]
 115 0104 B001DAE1 		ldrh	r0, [sl, #16]
 116 0108 30339AE5 		ldr	r3, [sl, #816]	@ float
 117 010c 34439AE5 		ldr	r4, [sl, #820]	@ float
 118 0110 010B50E3 		cmp	r0, #1024
 119 0114 2CB39AE5 		ldr	fp, [sl, #812]	@ float
 120 0118 14308DE5 		str	r3, [sp, #20]	@ float
 121 011c 10408DE5 		str	r4, [sp, #16]	@ float
 122 0120 1C01003A 		bcc	.L16
 123 0124 FEFFFFEB 		bl	__floatsisf
 124 0128 F72F8FE2 		adr	r2, .L85
 125 012c 0C0092E8 		ldmia	r2, {r2-r3}
 126 0130 0060A0E1 		mov	r6, r0
 127 0134 08008DE2 		add	r0, sp, #8
 128 0138 030090E8 		ldmia	r0, {r0-r1}
 129 013c FEFFFFEB 		bl	__muldf3
 130 0140 0040A0E1 		mov	r4, r0
 131 0144 0B00A0E1 		mov	r0, fp
 132 0148 0150A0E1 		mov	r5, r1
 133 014c FEFFFFEB 		bl	__extendsfdf2
 134 0150 0020A0E1 		mov	r2, r0
 135 0154 0130A0E1 		mov	r3, r1
 136 0158 0400A0E1 		mov	r0, r4
 137 015c 0510A0E1 		mov	r1, r5
 138 0160 FEFFFFEB 		bl	__adddf3
 139 0164 FEFFFFEB 		bl	__truncdfsf2
 140 0168 0010A0E1 		mov	r1, r0
 141 016c 0600A0E1 		mov	r0, r6
 142 0170 FEFFFFEB 		bl	__subsf3
 143 0174 FEFFFFEB 		bl	__extendsfdf2
 144 0178 E52F8FE2 		adr	r2, .L85+8
 145 017c 0C0092E8 		ldmia	r2, {r2-r3}
 146 0180 FEFFFFEB 		bl	__muldf3
 147 0184 FEFFFFEB 		bl	__truncdfsf2
 148 0188 3C008AE5 		str	r0, [sl, #60]	@ float
 149              	.L18:
 150 018c B201D9E1 		ldrh	r0, [r9, #18]
 151 0190 010B50E3 		cmp	r0, #1024
 152 0194 FC00003A 		bcc	.L19
 153 0198 FEFFFFEB 		bl	__floatsisf
 154 019c DE2F8FE2 		adr	r2, .L85+16
 155 01a0 0C0092E8 		ldmia	r2, {r2-r3}
 156 01a4 0060A0E1 		mov	r6, r0
 157 01a8 08008DE2 		add	r0, sp, #8
 158 01ac 030090E8 		ldmia	r0, {r0-r1}
 159 01b0 FEFFFFEB 		bl	__muldf3
 160 01b4 0040A0E1 		mov	r4, r0
 161 01b8 14009DE5 		ldr	r0, [sp, #20]	@ float
 162 01bc 0150A0E1 		mov	r5, r1
 163 01c0 FEFFFFEB 		bl	__extendsfdf2
 164 01c4 0020A0E1 		mov	r2, r0
 165 01c8 0130A0E1 		mov	r3, r1
 166 01cc 0400A0E1 		mov	r0, r4
 167 01d0 0510A0E1 		mov	r1, r5
 168 01d4 FEFFFFEB 		bl	__adddf3
 169 01d8 FEFFFFEB 		bl	__truncdfsf2
 170 01dc 0010A0E1 		mov	r1, r0
 171 01e0 0600A0E1 		mov	r0, r6
 172 01e4 FEFFFFEB 		bl	__subsf3
 173 01e8 FEFFFFEB 		bl	__extendsfdf2
 174 01ec 332E8FE2 		adr	r2, .L85+24
 175 01f0 0C0092E8 		ldmia	r2, {r2-r3}
 176 01f4 FEFFFFEB 		bl	__muldf3
 177 01f8 FEFFFFEB 		bl	__truncdfsf2
 178 01fc 3C339FE5 		ldr	r3, .L85+52
 179 0200 400083E5 		str	r0, [r3, #64]	@ float
 180              	.L21:
 181 0204 B401D9E1 		ldrh	r0, [r9, #20]
 182 0208 010B50E3 		cmp	r0, #1024
 183 020c DB00003A 		bcc	.L22
 184 0210 FEFFFFEB 		bl	__floatsisf
 185 0214 312E8FE2 		adr	r2, .L85+32
 186 0218 0C0092E8 		ldmia	r2, {r2-r3}
 187 021c 0060A0E1 		mov	r6, r0
 188 0220 08008DE2 		add	r0, sp, #8
 189 0224 030090E8 		ldmia	r0, {r0-r1}
 190 0228 FEFFFFEB 		bl	__muldf3
 191 022c 0040A0E1 		mov	r4, r0
 192 0230 10009DE5 		ldr	r0, [sp, #16]	@ float
 193 0234 0150A0E1 		mov	r5, r1
 194 0238 FEFFFFEB 		bl	__extendsfdf2
 195 023c 0020A0E1 		mov	r2, r0
 196 0240 0130A0E1 		mov	r3, r1
 197 0244 0400A0E1 		mov	r0, r4
 198 0248 0510A0E1 		mov	r1, r5
 199 024c FEFFFFEB 		bl	__adddf3
 200 0250 FEFFFFEB 		bl	__truncdfsf2
 201 0254 0010A0E1 		mov	r1, r0
 202 0258 0600A0E1 		mov	r0, r6
 203 025c FEFFFFEB 		bl	__subsf3
 204 0260 FEFFFFEB 		bl	__extendsfdf2
 205 0264 B22F8FE2 		adr	r2, .L85+40
 206 0268 0C0092E8 		ldmia	r2, {r2-r3}
 207 026c FEFFFFEB 		bl	__muldf3
 208 0270 FEFFFFEB 		bl	__truncdfsf2
 209 0274 C4329FE5 		ldr	r3, .L85+52
 210 0278 440083E5 		str	r0, [r3, #68]	@ float
 211              	.L24:
 212 027c FEFFFFEB 		bl	sca3100_read_res
 213              	.L25:
 214 0280 FEFFFFEB 		bl	spi_running
 215 0284 00A050E2 		subs	sl, r0, #0
 216 0288 FCFFFF1A 		bne	.L25
 217 028c FEFFFFEB 		bl	sca3100_get_value
 218 0290 B801C9E1 		strh	r0, [r9, #24]	@ movhi
 219 0294 0100A0E3 		mov	r0, #1
 220 0298 FEFFFFEB 		bl	sca3100_get_value
 221 029c BA01C9E1 		strh	r0, [r9, #26]	@ movhi
 222 02a0 0200A0E3 		mov	r0, #2
 223 02a4 FEFFFFEB 		bl	sca3100_get_value
 224 02a8 003060E2 		rsb	r3, r0, #0
 225 02ac F801D9E1 		ldrsh	r0, [r9, #24]
 226 02b0 BC31C9E1 		strh	r3, [r9, #28]	@ movhi
 227 02b4 FEFFFFEB 		bl	__floatsisf
 228 02b8 84129FE5 		ldr	r1, .L85+56
 229 02bc FEFFFFEB 		bl	__mulsf3
 230 02c0 1113A0E3 		mov	r1, #1140850688
 231 02c4 8A1981E2 		add	r1, r1, #2260992
 232 02c8 FEFFFFEB 		bl	__divsf3
 233 02cc 480089E5 		str	r0, [r9, #72]	@ float
 234 02d0 FA01D9E1 		ldrsh	r0, [r9, #26]
 235 02d4 FEFFFFEB 		bl	__floatsisf
 236 02d8 64129FE5 		ldr	r1, .L85+56
 237 02dc FEFFFFEB 		bl	__mulsf3
 238 02e0 1113A0E3 		mov	r1, #1140850688
 239 02e4 8A1981E2 		add	r1, r1, #2260992
 240 02e8 FEFFFFEB 		bl	__divsf3
 241 02ec 4C0089E5 		str	r0, [r9, #76]	@ float
 242 02f0 FC01D9E1 		ldrsh	r0, [r9, #28]
 243 02f4 FEFFFFEB 		bl	__floatsisf
 244 02f8 44129FE5 		ldr	r1, .L85+56
 245 02fc FEFFFFEB 		bl	__mulsf3
 246 0300 1113A0E3 		mov	r1, #1140850688
 247 0304 8A1981E2 		add	r1, r1, #2260992
 248 0308 FEFFFFEB 		bl	__divsf3
 249 030c 34529FE5 		ldr	r5, .L85+60
 250 0310 0030D5E5 		ldrb	r3, [r5, #0]	@ zero_extendqisi2
 251 0314 030053E3 		cmp	r3, #3
 252 0318 01308312 		addne	r3, r3, #1
 253 031c 500089E5 		str	r0, [r9, #80]	@ float
 254 0320 18629FE5 		ldr	r6, .L85+52
 255 0324 0030C515 		strneb	r3, [r5, #0]
 256 0328 9D00000A 		beq	.L81
 257              	.L29:
 258 032c 180089E2 		add	r0, r9, #24
 259 0330 030090E8 		ldmia	r0, {r0-r1}
 260 0334 10A29FE5 		ldr	sl, .L85+64
 261 0338 FEFFFFEB 		bl	attitude_observer_correct_accel
 262 033c 0C029FE5 		ldr	r0, .L85+68
 263 0340 FEFFFFEB 		bl	attitude_observer_get_angles
 264 0344 07009AE8 		ldmia	sl, {r0, r1, r2}
 265 0348 FEFFFFEB 		bl	attitude_observer_predict
 266              	.L30:
 267 034c FEFFFFEB 		bl	communication_receive
 268 0350 FEFFFFEB 		bl	sys_time_clock_get_time_usec
 269 0354 4EADA0E3 		mov	sl, #4992
 270 0358 0040A0E1 		mov	r4, r0
 271 035c 0020A0E1 		mov	r2, r0
 272 0360 0130A0E1 		mov	r3, r1
 273 0364 00B0A0E3 		mov	fp, #0
 274 0368 0150A0E1 		mov	r5, r1
 275 036c 08A08AE2 		add	sl, sl, #8
 276 0370 0810A0E1 		mov	r1, r8
 277 0374 0700A0E1 		mov	r0, r7
 278 0378 000C8DE8 		stmia	sp, {sl-fp}
 279 037c FEFFFFEB 		bl	measure_avg_cpu_load
 280 0380 1A3EA0E3 		mov	r3, #416
 281 0384 023083E2 		add	r3, r3, #2
 282 0388 B30089E1 		strh	r0, [r9, r3]	@ movhi
 283 038c 0420A0E1 		mov	r2, r4
 284 0390 0530A0E1 		mov	r3, r5
 285 0394 0810A0E1 		mov	r1, r8
 286 0398 0700A0E1 		mov	r0, r7
 287 039c 000C8DE8 		stmia	sp, {sl-fp}
 288 03a0 FEFFFFEB 		bl	measure_peak_cpu_load
 289 03a4 CCB19FE5 		ldr	fp, .L85+108
 290 03a8 18009BE8 		ldmia	fp, {r3-r4}
 291 03ac 0710A0E1 		mov	r1, r7
 292 03b0 0820A0E1 		mov	r2, r8
 293 03b4 031051E0 		subs	r1, r1, r3
 294 03b8 0420C2E0 		sbc	r2, r2, r4
 295 03bc 000052E3 		cmp	r2, #0
 296 03c0 693FA0E3 		mov	r3, #420
 297 03c4 B30089E1 		strh	r0, [r9, r3]	@ movhi
 298 03c8 0400008A 		bhi	.L60
 299 03cc 0700001A 		bne	.L58
 300 03d0 4E3DA0E3 		mov	r3, #4992
 301 03d4 073083E2 		add	r3, r3, #7
 302 03d8 030051E1 		cmp	r1, r3
 303 03dc 0300009A 		bls	.L58
 304              	.L60:
 305 03e0 6C019FE5 		ldr	r0, .L85+72
 306 03e4 FEFFFFEB 		bl	debug_message_buffer
 307 03e8 88219FE5 		ldr	r2, .L85+108
 308 03ec 800182E8 		stmia	r2, {r7-r8}
 309              	.L58:
 310 03f0 1A3EA0E3 		mov	r3, #416
 311 03f4 023083E2 		add	r3, r3, #2
 312 03f8 B32099E1 		ldrh	r2, [r9, r3]
 313 03fc 320E52E3 		cmp	r2, #800
 314 0400 06FFFF9A 		bls	.L79
 315 0404 4C019FE5 		ldr	r0, .L85+76
 316 0408 FEFFFFEB 		bl	debug_message_buffer
 317 040c 03FFFFEA 		b	.L79
 318              	.L3:
 319 0410 4E0CA0E3 		mov	r0, #19968
 320 0414 200080E2 		add	r0, r0, #32
 321 0418 0210A0E3 		mov	r1, #2
 322 041c 0720A0E1 		mov	r2, r7
 323 0420 FEFFFFEB 		bl	us_run_every
 324 0424 000050E3 		cmp	r0, #0
 325 0428 2100000A 		beq	.L31
 326 042c FEFFFFEB 		bl	adc_read
 327 0430 FEFFFFEB 		bl	remote_control
 328 0434 C4FFFFEA 		b	.L30
 329              	.L13:
 330 0438 B001DAE1 		ldrh	r0, [sl, #16]
 331 043c FEFFFFEB 		bl	__floatsisf
 332 0440 2C139AE5 		ldr	r1, [sl, #812]	@ float
 333 0444 FEFFFFEB 		bl	__subsf3
 334 0448 FEFFFFEB 		bl	__extendsfdf2
 335 044c C0208FE2 		adr	r2, .L85+8
 336 0450 0C0092E8 		ldmia	r2, {r2-r3}
 337 0454 FEFFFFEB 		bl	__muldf3
 338 0458 FEFFFFEB 		bl	__truncdfsf2
 339 045c 3C008AE5 		str	r0, [sl, #60]	@ float
 340 0460 B201DAE1 		ldrh	r0, [sl, #18]
 341 0464 FEFFFFEB 		bl	__floatsisf
 342 0468 30139AE5 		ldr	r1, [sl, #816]	@ float
 343 046c FEFFFFEB 		bl	__subsf3
 344 0470 FEFFFFEB 		bl	__extendsfdf2
 345 0474 A8208FE2 		adr	r2, .L85+24
 346 0478 0C0092E8 		ldmia	r2, {r2-r3}
 347 047c FEFFFFEB 		bl	__muldf3
 348 0480 FEFFFFEB 		bl	__truncdfsf2
 349 0484 40008AE5 		str	r0, [sl, #64]	@ float
 350 0488 B401DAE1 		ldrh	r0, [sl, #20]
 351 048c FEFFFFEB 		bl	__floatsisf
 352 0490 34139AE5 		ldr	r1, [sl, #820]	@ float
 353 0494 FEFFFFEB 		bl	__subsf3
 354 0498 FEFFFFEB 		bl	__extendsfdf2
 355 049c 90208FE2 		adr	r2, .L85+40
 356 04a0 0C0092E8 		ldmia	r2, {r2-r3}
 357 04a4 FEFFFFEB 		bl	__muldf3
 358 04a8 FEFFFFEB 		bl	__truncdfsf2
 359 04ac 44008AE5 		str	r0, [sl, #68]	@ float
 360 04b0 71FFFFEA 		b	.L24
 361              	.L31:
 362 04b4 C30CA0E3 		mov	r0, #49920
 363 04b8 500080E2 		add	r0, r0, #80
 364 04bc 0310A0E3 		mov	r1, #3
 365 04c0 0720A0E1 		mov	r2, r7
 366 04c4 FEFFFFEB 		bl	us_run_every
 367 04c8 000050E3 		cmp	r0, #0
 368 04cc 0300000A 		beq	.L33
 369 04d0 0700A0E1 		mov	r0, r7
 370 04d4 0810A0E1 		mov	r1, r8
 371 04d8 FEFFFFEB 		bl	update_system_statemachine
 372 04dc 9AFFFFEA 		b	.L30
 373              	.L33:
 374 04e0 270CA0E3 		mov	r0, #9984
 375 04e4 100080E2 		add	r0, r0, #16
 376 04e8 0510A0E3 		mov	r1, #5
 377 04ec 0720A0E1 		mov	r2, r7
 378 04f0 FEFFFFEB 		bl	us_run_every
 379 04f4 000050E3 		cmp	r0, #0
 380 04f8 4900000A 		beq	.L35
 381 04fc 0700A0E1 		mov	r0, r7
 382 0500 0810A0E1 		mov	r1, r8
 383 0504 FEFFFFEB 		bl	communication_send_raw_data
 384 0508 8FFFFFEA 		b	.L30
 385              	.L86:
 386              		.align	2
 387              	.L85:
 388 050c 13E4AEBF 		.word	-1079057389
 389 0510 AAB1218D 		.word	-1927171670
 390 0514 1E4B4FBF 		.word	-1085322466
 391 0518 975643E2 		.word	-498903401
 392 051c 0803953F 		.word	1066730248
 393 0520 3020DF3C 		.word	1021255728
 394 0524 1E4B4F3F 		.word	1062161182
 395 0528 975643E2 		.word	-498903401
 396 052c 81C898BF 		.word	-1080506239
 397 0530 6E3526AD 		.word	-1390004882
 398 0534 3F8C50BF 		.word	-1085240257
 399 0538 CE70033E 		.word	1040412878
 400 053c 00000000 		.word	.LC0
 401 0540 00000000 		.word	global_data
 402 0544 C3F51C41 		.word	1092416963
 403 0548 08000000 		.word	mag_count.20852
 404 054c 3C000000 		.word	global_data+60
 405 0550 5C000000 		.word	global_data+92
 406 0554 7C000000 		.word	.LC5
 407 0558 AC000000 		.word	.LC6
 408 055c 44000000 		.word	.LC3
 409 0560 2C000000 		.word	.LC2
 410 0564 14000000 		.word	.LC1
 411 0568 A4707D3F 		.word	1065185444
 412 056c 0AD7233C 		.word	1008981770
 413 0570 00000000 		.word	pressure_lowpass.19286
 414 0574 00000000 		.word	bmp085_measurement_mode
 415 0578 00000000 		.word	last_mainloop_idle
 416 057c 5C000000 		.word	.LC4
 417              	.L22:
 418 0580 2C001FE5 		ldr	r0, .L85+80
 419 0584 FEFFFFEB 		bl	debug_message_buffer
 420 0588 3BFFFFEA 		b	.L24
 421              	.L19:
 422 058c 34001FE5 		ldr	r0, .L85+84
 423 0590 FEFFFFEB 		bl	debug_message_buffer
 424 0594 1AFFFFEA 		b	.L21
 425              	.L16:
 426 0598 3C001FE5 		ldr	r0, .L85+88
 427 059c FEFFFFEB 		bl	debug_message_buffer
 428 05a0 F9FEFFEA 		b	.L18
 429              	.L81:
 430 05a4 FEFFFFEB 		bl	hmc5843_data_ok
 431 05a8 3001C6E5 		strb	r0, [r6, #304]
 432 05ac 200086E2 		add	r0, r6, #32
 433 05b0 FEFFFFEB 		bl	hmc5843_get_data
 434 05b4 3041D6E5 		ldrb	r4, [r6, #304]	@ zero_extendqisi2
 435 05b8 FEFFFFEB 		bl	hmc5843_data_ok
 436 05bc 043000E0 		and	r3, r0, r4
 437 05c0 3031C6E5 		strb	r3, [r6, #304]
 438 05c4 F002D6E1 		ldrsh	r0, [r6, #32]
 439 05c8 FEFFFFEB 		bl	__floatsisf
 440 05cc 4C1396E5 		ldr	r1, [r6, #844]	@ float
 441 05d0 FEFFFFEB 		bl	__subsf3
 442 05d4 FEFFFFEB 		bl	__fixsfsi
 443 05d8 B405C6E1 		strh	r0, [r6, #84]	@ movhi
 444 05dc F202D6E1 		ldrsh	r0, [r6, #34]
 445 05e0 FEFFFFEB 		bl	__floatsisf
 446 05e4 501396E5 		ldr	r1, [r6, #848]	@ float
 447 05e8 FEFFFFEB 		bl	__subsf3
 448 05ec 020180E2 		add	r0, r0, #-2147483648
 449 05f0 FEFFFFEB 		bl	__fixsfsi
 450 05f4 B605C6E1 		strh	r0, [r6, #86]	@ movhi
 451 05f8 F402D6E1 		ldrsh	r0, [r6, #36]
 452 05fc FEFFFFEB 		bl	__floatsisf
 453 0600 541396E5 		ldr	r1, [r6, #852]	@ float
 454 0604 FEFFFFEB 		bl	__subsf3
 455 0608 FEFFFFEB 		bl	__fixsfsi
 456 060c B805C6E1 		strh	r0, [r6, #88]	@ movhi
 457 0610 540086E2 		add	r0, r6, #84
 458 0614 030090E8 		ldmia	r0, {r0-r1}
 459 0618 FEFFFFEB 		bl	attitude_observer_correct_magnet
 460 061c 00A0C5E5 		strb	sl, [r5, #0]
 461 0620 41FFFFEA 		b	.L29
 462              	.L35:
 463 0624 C30BA0E3 		mov	r0, #199680
 464 0628 050D80E2 		add	r0, r0, #320
 465 062c 0710A0E3 		mov	r1, #7
 466 0630 0720A0E1 		mov	r2, r7
 467 0634 FEFFFFEB 		bl	us_run_every
 468 0638 000050E3 		cmp	r0, #0
 469 063c 1700000A 		beq	.L37
 470 0640 FEFFFFEB 		bl	communication_queued_send
 471 0644 FEFFFFEB 		bl	debug_message_send_one
 472 0648 1100A0E3 		mov	r0, #17
 473 064c FEFFFFEB 		bl	led_toggle
 474 0650 503199E5 		ldr	r3, [r9, #336]
 475 0654 023043E2 		sub	r3, r3, #2
 476 0658 020053E3 		cmp	r3, #2
 477 065c 1800008A 		bhi	.L39
 478 0660 F4B01FE5 		ldr	fp, .L85+104
 479 0664 1000A0E3 		mov	r0, #16
 480 0668 FEFFFFEB 		bl	led_on
 481 066c FEFFFFEB 		bl	handle_eeprom_write_request
 482 0670 FEFFFFEB 		bl	handle_reset_request
 483 0674 FEFFFFEB 		bl	communication_send_remote_control
 484 0678 0030DBE5 		ldrb	r3, [fp, #0]	@ zero_extendqisi2
 485 067c 0A0053E3 		cmp	r3, #10
 486 0680 1800000A 		beq	.L43
 487              	.L83:
 488 0684 0B0053E3 		cmp	r3, #11
 489 0688 3F00000A 		beq	.L82
 490 068c FEFFFFEB 		bl	bmp085_start_temp_measurement
 491 0690 24A11FE5 		ldr	sl, .L85+104
 492 0694 0A30A0E3 		mov	r3, #10
 493 0698 0030CAE5 		strb	r3, [sl, #0]
 494 069c 2AFFFFEA 		b	.L30
 495              	.L37:
 496 06a0 3D09A0E3 		mov	r0, #999424
 497 06a4 090D80E2 		add	r0, r0, #576
 498 06a8 0810A0E3 		mov	r1, #8
 499 06ac 0720A0E1 		mov	r2, r7
 500 06b0 FEFFFFEB 		bl	us_run_every
 501 06b4 000050E3 		cmp	r0, #0
 502 06b8 1A00000A 		beq	.L51
 503 06bc FEFFFFEB 		bl	beep_on_low_voltage
 504 06c0 21FFFFEA 		b	.L30
 505              	.L39:
 506 06c4 58B11FE5 		ldr	fp, .L85+104
 507 06c8 1000A0E3 		mov	r0, #16
 508 06cc FEFFFFEB 		bl	led_off
 509 06d0 FEFFFFEB 		bl	handle_eeprom_write_request
 510 06d4 FEFFFFEB 		bl	handle_reset_request
 511 06d8 FEFFFFEB 		bl	communication_send_remote_control
 512 06dc 0030DBE5 		ldrb	r3, [fp, #0]	@ zero_extendqisi2
 513 06e0 0A0053E3 		cmp	r3, #10
 514 06e4 E6FFFF1A 		bne	.L83
 515              	.L43:
 516 06e8 FEFFFFEB 		bl	bmp085_get_temperature
 517 06ec 0038A0E1 		mov	r3, r0, asl #16
 518 06f0 2338A0E1 		mov	r3, r3, lsr #16
 519 06f4 0308A0E1 		mov	r0, r3, asl #16
 520 06f8 4008A0E1 		mov	r0, r0, asr #16
 521 06fc BC32C9E1 		strh	r3, [r9, #44]	@ movhi
 522 0700 FEFFFFEB 		bl	__floatsisf
 523 0704 4114A0E3 		mov	r1, #1090519040
 524 0708 021681E2 		add	r1, r1, #2097152
 525 070c FEFFFFEB 		bl	__divsf3
 526 0710 300089E5 		str	r0, [r9, #48]	@ float
 527 0714 FEFFFFEB 		bl	bmp085_start_pressure_measurement
 528 0718 AC311FE5 		ldr	r3, .L85+104
 529 071c 0B20A0E3 		mov	r2, #11
 530 0720 0020C3E5 		strb	r2, [r3, #0]
 531 0724 08FFFFEA 		b	.L30
 532              	.L51:
 533 0728 C30CA0E3 		mov	r0, #49920
 534 072c 500080E2 		add	r0, r0, #80
 535 0730 0610A0E3 		mov	r1, #6
 536 0734 0720A0E1 		mov	r2, r7
 537 0738 FEFFFFEB 		bl	us_run_every
 538 073c 000050E3 		cmp	r0, #0
 539 0740 0500000A 		beq	.L53
 540 0744 1700A0E3 		mov	r0, #23
 541 0748 FEFFFFEB 		bl	led_toggle
 542 074c 0700A0E1 		mov	r0, r7
 543 0750 0810A0E1 		mov	r1, r8
 544 0754 FEFFFFEB 		bl	communication_send_attitude_position
 545 0758 FBFEFFEA 		b	.L30
 546              	.L53:
 547 075c 4E0DA0E3 		mov	r0, #4992
 548 0760 080080E2 		add	r0, r0, #8
 549 0764 0410A0E3 		mov	r1, #4
 550 0768 0720A0E1 		mov	r2, r7
 551 076c FEFFFFEB 		bl	us_run_every
 552 0770 000050E3 		cmp	r0, #0
 553 0774 2900000A 		beq	.L55
 554 0778 5C3199E5 		ldr	r3, [r9, #348]
 555 077c 030053E3 		cmp	r3, #3
 556 0780 F1FEFF1A 		bne	.L30
 557 0784 FEFFFFEB 		bl	param_handler
 558 0788 EFFEFFEA 		b	.L30
 559              	.L82:
 560 078c FEFFFFEB 		bl	bmp085_get_pressure
 561 0790 000050E3 		cmp	r0, #0
 562 0794 0030A0E1 		mov	r3, r0
 563 0798 000089E5 		str	r0, [r9, #0]
 564 079c 270000BA 		blt	.L46
 565 07a0 FEFFFFEB 		bl	__floatsisf
 566 07a4 0060A0E1 		mov	r6, r0
 567              	.L45:
 568 07a8 40221FE5 		ldr	r2, .L85+100
 569 07ac 4C021FE5 		ldr	r0, .L85+92
 570 07b0 001092E5 		ldr	r1, [r2, #0]	@ float
 571 07b4 FEFFFFEB 		bl	__mulsf3
 572 07b8 54121FE5 		ldr	r1, .L85+96
 573 07bc 0040A0E1 		mov	r4, r0
 574 07c0 0600A0E1 		mov	r0, r6
 575 07c4 FEFFFFEB 		bl	__mulsf3
 576 07c8 0010A0E1 		mov	r1, r0
 577 07cc 0400A0E1 		mov	r0, r4
 578 07d0 FEFFFFEB 		bl	__addsf3
 579 07d4 6C421FE5 		ldr	r4, .L85+100
 580 07d8 0030A0E1 		mov	r3, r0
 581 07dc 003084E5 		str	r3, [r4, #0]	@ float
 582 07e0 0610A0E1 		mov	r1, r6
 583 07e4 FEFFFFEB 		bl	__subsf3
 584 07e8 1113A0E3 		mov	r1, #1140850688
 585 07ec BB1881E2 		add	r1, r1, #12255232
 586 07f0 0201C0E3 		bic	r0, r0, #-2147483648
 587 07f4 021981E2 		add	r1, r1, #32768
 588 07f8 FEFFFFEB 		bl	__gtsf2
 589 07fc 000050E3 		cmp	r0, #0
 590 0800 0130A0D3 		movle	r3, #1
 591 0804 3131C9D5 		strleb	r3, [r9, #305]
 592 0808 070000CA 		bgt	.L84
 593              	.L50:
 594 080c FEFFFFEB 		bl	bmp085_start_temp_measurement
 595 0810 A4521FE5 		ldr	r5, .L85+104
 596 0814 0A30A0E3 		mov	r3, #10
 597 0818 0030C5E5 		strb	r3, [r5, #0]
 598 081c CAFEFFEA 		b	.L30
 599              	.L55:
 600 0820 B0B21FE5 		ldr	fp, .L85+108
 601 0824 80018BE8 		stmia	fp, {r7-r8}
 602 0828 C7FEFFEA 		b	.L30
 603              	.L84:
 604 082c 0030A0E3 		mov	r3, #0
 605 0830 BC021FE5 		ldr	r0, .L85+112
 606 0834 3131C9E5 		strb	r3, [r9, #305]
 607 0838 FEFFFFEB 		bl	debug_message_buffer
 608 083c F2FFFFEA 		b	.L50
 609              	.L46:
 610 0840 010000E2 		and	r0, r0, #1
 611 0844 A30080E1 		orr	r0, r0, r3, lsr #1
 612 0848 FEFFFFEB 		bl	__floatsisf
 613 084c 0010A0E1 		mov	r1, r0
 614 0850 FEFFFFEB 		bl	__addsf3
 615 0854 0060A0E1 		mov	r6, r0
 616 0858 D2FFFFEA 		b	.L45
 618              		.section	.rodata.str1.4
 619 00d7 00       		.align	2
 620              	.LC7:
 621 00d8 5359535F 		.ascii	"SYS_ID\000"
 621      494400
 622 00df 00       		.align	2
 623              	.LC8:
 624 00e0 5359535F 		.ascii	"SYS_COMP_ID\000"
 624      434F4D50 
 624      5F494400 
 625              		.align	2
 626              	.LC9:
 627 00ec 5359535F 		.ascii	"SYS_TYPE\000"
 627      54595045 
 627      00
 628 00f5 000000   		.align	2
 629              	.LC10:
 630 00f8 5359535F 		.ascii	"SYS_SW_VER\000"
 630      53575F56 
 630      455200
 631 0103 00       		.align	2
 632              	.LC11:
 633 0104 52435F53 		.ascii	"RC_SAFETY_CHAN\000"
 633      41464554 
 633      595F4348 
 633      414E00
 634 0113 00       		.align	2
 635              	.LC12:
 636 0114 55415254 		.ascii	"UART_0_BAUD\000"
 636      5F305F42 
 636      41554400 
 637              		.align	2
 638              	.LC13:
 639 0120 55415254 		.ascii	"UART_1_BAUD\000"
 639      5F315F42 
 639      41554400 
 640              		.align	2
 641              	.LC14:
 642 012c 52435F54 		.ascii	"RC_TUNE_CHAN1\000"
 642      554E455F 
 642      4348414E 
 642      3100
 643 013a 0000     		.align	2
 644              	.LC15:
 645 013c 52435F54 		.ascii	"RC_TUNE_CHAN2\000"
 645      554E455F 
 645      4348414E 
 645      3200
 646 014a 0000     		.align	2
 647              	.LC16:
 648 014c 52435F54 		.ascii	"RC_TUNE_CHAN3\000"
 648      554E455F 
 648      4348414E 
 648      3300
 649 015a 0000     		.align	2
 650              	.LC17:
 651 015c 52435F54 		.ascii	"RC_TUNE_CHAN4\000"
 651      554E455F 
 651      4348414E 
 651      3400
 652 016a 0000     		.align	2
 653              	.LC18:
 654 016c 52435F54 		.ascii	"RC_THRUST_CHAN\000"
 654      48525553 
 654      545F4348 
 654      414E00
 655 017b 00       		.align	2
 656              	.LC19:
 657 017c 52435F59 		.ascii	"RC_YAW_CHAN\000"
 657      41575F43 
 657      48414E00 
 658              		.align	2
 659              	.LC20:
 660 0188 52435F52 		.ascii	"RC_ROLL_CHAN\000"
 660      4F4C4C5F 
 660      4348414E 
 660      00
 661 0195 000000   		.align	2
 662              	.LC21:
 663 0198 52435F54 		.ascii	"RC_TRIM_CHAN\000"
 663      52494D5F 
 663      4348414E 
 663      00
 664 01a5 000000   		.align	2
 665              	.LC22:
 666 01a8 52435F4E 		.ascii	"RC_NICK_CHAN\000"
 666      49434B5F 
 666      4348414E 
 666      00
 667 01b5 000000   		.align	2
 668              	.LC23:
 669 01b8 43414D5F 		.ascii	"CAM_INTERVAL\000"
 669      494E5445 
 669      5256414C 
 669      00
 670 01c5 000000   		.align	2
 671              	.LC24:
 672 01c8 43414D5F 		.ascii	"CAM_EXP\000"
 672      45585000 
 673              		.align	2
 674              	.LC25:
 675 01d0 504F535F 		.ascii	"POS_SP_ACCEPT\000"
 675      53505F41 
 675      43434550 
 675      5400
 676 01de 0000     		.align	2
 677              	.LC26:
 678 01e0 504F535F 		.ascii	"POS_TIMEOUT\000"
 678      54494D45 
 678      4F555400 
 679              		.align	2
 680              	.LC27:
 681 01ec 504F535F 		.ascii	"POS_SP_X\000"
 681      53505F58 
 681      00
 682 01f5 000000   		.align	2
 683              	.LC28:
 684 01f8 504F535F 		.ascii	"POS_SP_Y\000"
 684      53505F59 
 684      00
 685 0201 000000   		.align	2
 686              	.LC29:
 687 0204 504F535F 		.ascii	"POS_SP_Z\000"
 687      53505F5A 
 687      00
 688 020d 000000   		.align	2
 689              	.LC30:
 690 0210 504F535F 		.ascii	"POS_SP_YAW\000"
 690      53505F59 
 690      415700
 691 021b 00       		.align	2
 692              	.LC31:
 693 021c 504F535F 		.ascii	"POS_YAW_TRACK\000"
 693      5941575F 
 693      54524143 
 693      4B00
 694 022a 0000     		.align	2
 695              	.LC32:
 696 022c 5049445F 		.ascii	"PID_ATT_P\000"
 696      4154545F 
 696      5000
 697 0236 0000     		.align	2
 698              	.LC33:
 699 0238 5049445F 		.ascii	"PID_ATT_I\000"
 699      4154545F 
 699      4900
 700 0242 0000     		.align	2
 701              	.LC34:
 702 0244 5049445F 		.ascii	"PID_ATT_D\000"
 702      4154545F 
 702      4400
 703 024e 0000     		.align	2
 704              	.LC35:
 705 0250 5049445F 		.ascii	"PID_ATT_LIM\000"
 705      4154545F 
 705      4C494D00 
 706              		.align	2
 707              	.LC36:
 708 025c 5049445F 		.ascii	"PID_ATT_AWU\000"
 708      4154545F 
 708      41575500 
 709              		.align	2
 710              	.LC37:
 711 0268 5049445F 		.ascii	"PID_YAWPOS_P\000"
 711      59415750 
 711      4F535F50 
 711      00
 712 0275 000000   		.align	2
 713              	.LC38:
 714 0278 5049445F 		.ascii	"PID_YAWPOS_I\000"
 714      59415750 
 714      4F535F49 
 714      00
 715 0285 000000   		.align	2
 716              	.LC39:
 717 0288 5049445F 		.ascii	"PID_YAWPOS_D\000"
 717      59415750 
 717      4F535F44 
 717      00
 718 0295 000000   		.align	2
 719              	.LC40:
 720 0298 5049445F 		.ascii	"PID_YAWPOS_LIM\000"
 720      59415750 
 720      4F535F4C 
 720      494D00
 721 02a7 00       		.align	2
 722              	.LC41:
 723 02a8 5049445F 		.ascii	"PID_YAWPOS_AWU\000"
 723      59415750 
 723      4F535F41 
 723      575500
 724 02b7 00       		.align	2
 725              	.LC42:
 726 02b8 5049445F 		.ascii	"PID_YAWSPEED_P\000"
 726      59415753 
 726      50454544 
 726      5F5000
 727 02c7 00       		.align	2
 728              	.LC43:
 729 02c8 5049445F 		.ascii	"PID_YAWSPEED_I\000"
 729      59415753 
 729      50454544 
 729      5F4900
 730 02d7 00       		.align	2
 731              	.LC44:
 732 02d8 5049445F 		.ascii	"PID_YAWSPEED_D\000"
 732      59415753 
 732      50454544 
 732      5F4400
 733 02e7 00       		.align	2
 734              	.LC45:
 735 02e8 5049445F 		.ascii	"PID_YAWSPE_LIM\000"
 735      59415753 
 735      50455F4C 
 735      494D00
 736 02f7 00       		.align	2
 737              	.LC46:
 738 02f8 5049445F 		.ascii	"PID_YAWSPE_AWU\000"
 738      59415753 
 738      50455F41 
 738      575500
 739 0307 00       		.align	2
 740              	.LC47:
 741 0308 5049445F 		.ascii	"PID_POS_P\000"
 741      504F535F 
 741      5000
 742 0312 0000     		.align	2
 743              	.LC48:
 744 0314 5049445F 		.ascii	"PID_POS_I\000"
 744      504F535F 
 744      4900
 745 031e 0000     		.align	2
 746              	.LC49:
 747 0320 5049445F 		.ascii	"PID_POS_D\000"
 747      504F535F 
 747      4400
 748 032a 0000     		.align	2
 749              	.LC50:
 750 032c 5049445F 		.ascii	"PID_POS_LIM\000"
 750      504F535F 
 750      4C494D00 
 751              		.align	2
 752              	.LC51:
 753 0338 5049445F 		.ascii	"PID_POS_AWU\000"
 753      504F535F 
 753      41575500 
 754              		.align	2
 755              	.LC52:
 756 0344 5049445F 		.ascii	"PID_POS_Z_P\000"
 756      504F535F 
 756      5A5F5000 
 757              		.align	2
 758              	.LC53:
 759 0350 5049445F 		.ascii	"PID_POS_Z_I\000"
 759      504F535F 
 759      5A5F4900 
 760              		.align	2
 761              	.LC54:
 762 035c 5049445F 		.ascii	"PID_POS_Z_D\000"
 762      504F535F 
 762      5A5F4400 
 763              		.align	2
 764              	.LC55:
 765 0368 5049445F 		.ascii	"PID_POS_Z_LIM\000"
 765      504F535F 
 765      5A5F4C49 
 765      4D00
 766 0376 0000     		.align	2
 767              	.LC56:
 768 0378 5049445F 		.ascii	"PID_POS_Z_AWU\000"
 768      504F535F 
 768      5A5F4157 
 768      5500
 769 0386 0000     		.align	2
 770              	.LC57:
 771 0388 43414C5F 		.ascii	"CAL_GYRO_X\000"
 771      4759524F 
 771      5F5800
 772 0393 00       		.align	2
 773              	.LC58:
 774 0394 43414C5F 		.ascii	"CAL_GYRO_Y\000"
 774      4759524F 
 774      5F5900
 775 039f 00       		.align	2
 776              	.LC59:
 777 03a0 43414C5F 		.ascii	"CAL_GYRO_Z\000"
 777      4759524F 
 777      5F5A00
 778 03ab 00       		.align	2
 779              	.LC60:
 780 03ac 43414C5F 		.ascii	"CAL_TEMP\000"
 780      54454D50 
 780      00
 781 03b5 000000   		.align	2
 782              	.LC61:
 783 03b8 43414C5F 		.ascii	"CAL_MAG_X\000"
 783      4D41475F 
 783      5800
 784 03c2 0000     		.align	2
 785              	.LC62:
 786 03c4 43414C5F 		.ascii	"CAL_MAG_Y\000"
 786      4D41475F 
 786      5900
 787 03ce 0000     		.align	2
 788              	.LC63:
 789 03d0 43414C5F 		.ascii	"CAL_MAG_Z\000"
 789      4D41475F 
 789      5A00
 790 03da 0000     		.align	2
 791              	.LC64:
 792 03dc 43414C5F 		.ascii	"CAL_FIT_GYRO_X\000"
 792      4649545F 
 792      4759524F 
 792      5F5800
 793 03eb 00       		.align	2
 794              	.LC65:
 795 03ec 43414C5F 		.ascii	"CAL_FIT_GYRO_Y\000"
 795      4649545F 
 795      4759524F 
 795      5F5900
 796 03fb 00       		.align	2
 797              	.LC66:
 798 03fc 43414C5F 		.ascii	"CAL_FIT_GYRO_Z\000"
 798      4649545F 
 798      4759524F 
 798      5F5A00
 799 040b 00       		.align	2
 800              	.LC67:
 801 040c 43414C5F 		.ascii	"CAL_FIT_ACTIVE\000"
 801      4649545F 
 801      41435449 
 801      564500
 802 041b 00       		.align	2
 803              	.LC68:
 804 041c 43414C5F 		.ascii	"CAL_PRES_DIFF\000"
 804      50524553 
 804      5F444946 
 804      4600
 805 042a 0000     		.align	2
 806              	.LC69:
 807 042c 43414C5F 		.ascii	"CAL_ACC_X\000"
 807      4143435F 
 807      5800
 808 0436 0000     		.align	2
 809              	.LC70:
 810 0438 43414C5F 		.ascii	"CAL_ACC_Y\000"
 810      4143435F 
 810      5900
 811 0442 0000     		.align	2
 812              	.LC71:
 813 0444 43414C5F 		.ascii	"CAL_ACC_Z\000"
 813      4143435F 
 813      5A00
 814 044e 0000     		.align	2
 815              	.LC72:
 816 0450 4143435F 		.ascii	"ACC_NAV_OFFS_X\000"
 816      4E41565F 
 816      4F464653 
 816      5F5800
 817 045f 00       		.align	2
 818              	.LC73:
 819 0460 4143435F 		.ascii	"ACC_NAV_OFFS_Y\000"
 819      4E41565F 
 819      4F464653 
 819      5F5900
 820 046f 00       		.align	2
 821              	.LC74:
 822 0470 4143435F 		.ascii	"ACC_NAV_OFFS_Z\000"
 822      4E41565F 
 822      4F464653 
 822      5F5A00
 823 047f 00       		.align	2
 824              	.LC75:
 825 0480 56454C5F 		.ascii	"VEL_OFFSET_X\000"
 825      4F464653 
 825      45545F58 
 825      00
 826 048d 000000   		.align	2
 827              	.LC76:
 828 0490 56454C5F 		.ascii	"VEL_OFFSET_Y\000"
 828      4F464653 
 828      45545F59 
 828      00
 829 049d 000000   		.align	2
 830              	.LC77:
 831 04a0 56454C5F 		.ascii	"VEL_OFFSET_Z\000"
 831      4F464653 
 831      45545F5A 
 831      00
 832 04ad 000000   		.align	2
 833              	.LC78:
 834 04b0 56454C5F 		.ascii	"VEL_DAMP\000"
 834      44414D50 
 834      00
 835 04b9 000000   		.align	2
 836              	.LC79:
 837 04bc 4154545F 		.ascii	"ATT_KAL_KACC\000"
 837      4B414C5F 
 837      4B414343 
 837      00
 838 04c9 000000   		.align	2
 839              	.LC80:
 840 04cc 4154545F 		.ascii	"ATT_KAL_IYAW\000"
 840      4B414C5F 
 840      49594157 
 840      00
 841 04d9 000000   		.align	2
 842              	.LC81:
 843 04dc 4154545F 		.ascii	"ATT_OFFSET_X\000"
 843      4F464653 
 843      45545F58 
 843      00
 844 04e9 000000   		.align	2
 845              	.LC82:
 846 04ec 4154545F 		.ascii	"ATT_OFFSET_Y\000"
 846      4F464653 
 846      45545F59 
 846      00
 847 04f9 000000   		.align	2
 848              	.LC83:
 849 04fc 4154545F 		.ascii	"ATT_OFFSET_Z\000"
 849      4F464653 
 849      45545F5A 
 849      00
 850 0509 000000   		.align	2
 851              	.LC84:
 852 050c 53454E44 		.ascii	"SEND_DEBUGCHAN\000"
 852      5F444542 
 852      55474348 
 852      414E00
 853 051b 00       		.align	2
 854              	.LC85:
 855 051c 534C4F54 		.ascii	"SLOT_ATTITUDE\000"
 855      5F415454 
 855      49545544 
 855      4500
 856 052a 0000     		.align	2
 857              	.LC86:
 858 052c 534C4F54 		.ascii	"SLOT_RAW_IMU\000"
 858      5F524157 
 858      5F494D55 
 858      00
 859 0539 000000   		.align	2
 860              	.LC87:
 861 053c 534C4F54 		.ascii	"SLOT_RC\000"
 861      5F524300 
 862              		.align	2
 863              	.LC88:
 864 0544 534C4F54 		.ascii	"SLOT_CONTROL\000"
 864      5F434F4E 
 864      54524F4C 
 864      00
 865 0551 000000   		.align	2
 866              	.LC89:
 867 0554 44454255 		.ascii	"DEBUG_1\000"
 867      475F3100 
 868              		.align	2
 869              	.LC90:
 870 055c 44454255 		.ascii	"DEBUG_2\000"
 870      475F3200 
 871              		.align	2
 872              	.LC91:
 873 0564 44454255 		.ascii	"DEBUG_3\000"
 873      475F3300 
 874              		.align	2
 875              	.LC92:
 876 056c 44454255 		.ascii	"DEBUG_4\000"
 876      475F3400 
 877              		.align	2
 878              	.LC93:
 879 0574 44454255 		.ascii	"DEBUG_5\000"
 879      475F3500 
 880              		.align	2
 881              	.LC94:
 882 057c 44454255 		.ascii	"DEBUG_6\000"
 882      475F3600 
 883              		.align	2
 884              	.LC95:
 885 0584 4D49585F 		.ascii	"MIX_REMOTE\000"
 885      52454D4F 
 885      544500
 886 058f 00       		.align	2
 887              	.LC96:
 888 0590 4D49585F 		.ascii	"MIX_POSITION\000"
 888      504F5349 
 888      54494F4E 
 888      00
 889 059d 000000   		.align	2
 890              	.LC97:
 891 05a0 4D49585F 		.ascii	"MIX_Z_POSITION\000"
 891      5A5F504F 
 891      53495449 
 891      4F4E00
 892 05af 00       		.align	2
 893              	.LC98:
 894 05b0 4D49585F 		.ascii	"MIX_POS_YAW\000"
 894      504F535F 
 894      59415700 
 895              		.align	2
 896              	.LC99:
 897 05bc 4D49585F 		.ascii	"MIX_OFFSET\000"
 897      4F464653 
 897      455400
 898 05c7 00       		.align	2
 899              	.LC100:
 900 05c8 5649535F 		.ascii	"VIS_YAWCORR\000"
 900      59415743 
 900      4F525200 
 901              		.align	2
 902              	.LC101:
 903 05d4 5649535F 		.ascii	"VIS_OUTL_TRESH\000"
 903      4F55544C 
 903      5F545245 
 903      534800
 904 05e3 00       		.align	2
 905              	.LC102:
 906 05e4 4750535F 		.ascii	"GPS_MODE\000"
 906      4D4F4445 
 906      00
 907 05ed 000000   		.align	2
 908              	.LC103:
 909 05f0 43414D5F 		.ascii	"CAM_ANG_X_OFF\000"
 909      414E475F 
 909      585F4F46 
 909      4600
 910 05fe 0000     		.align	2
 911              	.LC104:
 912 0600 43414D5F 		.ascii	"CAM_ANG_X_FAC\000"
 912      414E475F 
 912      585F4641 
 912      4300
 913 060e 0000     		.align	2
 914              	.LC105:
 915 0610 43414D5F 		.ascii	"CAM_ANG_Y_OFF\000"
 915      414E475F 
 915      595F4F46 
 915      4600
 916 061e 0000     		.align	2
 917              	.LC106:
 918 0620 43414D5F 		.ascii	"CAM_ANG_Y_FAC\000"
 918      414E475F 
 918      595F4641 
 918      4300
 919 062e 0000     		.align	2
 920              	.LC107:
 921 0630 5359535F 		.ascii	"SYS_IMU_RESET\000"
 921      494D555F 
 921      52455345 
 921      5400
 922              		.text
 923              		.align	2
 925              	global_data_reset_param_defaults:
 926              		@ Function supports interworking.
 927              		@ args = 0, pretend = 0, frame = 0
 928              		@ frame_needed = 0, uses_anonymous_args = 0
 929 085c F04F2DE9 		stmfd	sp!, {r4, r5, r6, r7, r8, r9, sl, fp, lr}
 930 0860 004B9FE5 		ldr	r4, .L89
 931 0864 4234A0E3 		mov	r3, #1107296256
 932 0868 0A3783E2 		add	r3, r3, #2621440
 933 086c F81A9FE5 		ldr	r1, .L89+4
 934 0870 0720A0E3 		mov	r2, #7
 935 0874 FA0F84E2 		add	r0, r4, #1000
 936 0878 0C90A0E3 		mov	r9, #12
 937 087c 543284E5 		str	r3, [r4, #596]	@ float
 938 0880 FEFFFFEB 		bl	memcpy
 939 0884 FD0F84E2 		add	r0, r4, #1012
 940 0888 4334A0E3 		mov	r3, #1124073472
 941 088c 123783E2 		add	r3, r3, #4718592
 942 0890 0920A0E1 		mov	r2, r9
 943 0894 D41A9FE5 		ldr	r1, .L89+8
 944 0898 030080E2 		add	r0, r0, #3
 945 089c 583284E5 		str	r3, [r4, #600]	@ float
 946 08a0 FEFFFFEB 		bl	memcpy
 947 08a4 010B84E2 		add	r0, r4, #1024
 948 08a8 0060A0E3 		mov	r6, #0
 949 08ac C01A9FE5 		ldr	r1, .L89+12
 950 08b0 0920A0E3 		mov	r2, #9
 951 08b4 060080E2 		add	r0, r0, #6
 952 08b8 5C6284E5 		str	r6, [r4, #604]	@ float
 953 08bc FEFFFFEB 		bl	memcpy
 954 08c0 410E84E2 		add	r0, r4, #1040
 955 08c4 1133A0E3 		mov	r3, #1140850688
 956 08c8 FA3883E2 		add	r3, r3, #16384000
 957 08cc A41A9FE5 		ldr	r1, .L89+16
 958 08d0 0B20A0E3 		mov	r2, #11
 959 08d4 050080E2 		add	r0, r0, #5
 960 08d8 0F80A0E3 		mov	r8, #15
 961 08dc 603284E5 		str	r3, [r4, #608]	@ float
 962 08e0 FEFFFFEB 		bl	memcpy
 963 08e4 8E0E84E2 		add	r0, r4, #2272
 964 08e8 0131A0E3 		mov	r3, #1073741824
 965 08ec 0A3683E2 		add	r3, r3, #10485760
 966 08f0 0820A0E1 		mov	r2, r8
 967 08f4 801A9FE5 		ldr	r1, .L89+20
 968 08f8 030080E2 		add	r0, r0, #3
 969 08fc A83384E5 		str	r3, [r4, #936]	@ float
 970 0900 4754A0E3 		mov	r5, #1191182336
 971 0904 FEFFFFEB 		bl	memcpy
 972 0908 430E84E2 		add	r0, r4, #1072
 973 090c 615885E2 		add	r5, r5, #6356992
 974 0910 0920A0E1 		mov	r2, r9
 975 0914 641A9FE5 		ldr	r1, .L89+24
 976 0918 030080E2 		add	r0, r0, #3
 977 091c 685284E5 		str	r5, [r4, #616]	@ float
 978 0920 FEFFFFEB 		bl	memcpy
 979 0924 110D84E2 		add	r0, r4, #1088
 980 0928 0920A0E1 		mov	r2, r9
 981 092c 501A9FE5 		ldr	r1, .L89+28
 982 0930 020080E2 		add	r0, r0, #2
 983 0934 0EA0A0E3 		mov	sl, #14
 984 0938 6C5284E5 		str	r5, [r4, #620]	@ float
 985 093c FEFFFFEB 		bl	memcpy
 986 0940 8F0E84E2 		add	r0, r4, #2288
 987 0944 0131A0E3 		mov	r3, #1073741824
 988 0948 0A20A0E1 		mov	r2, sl
 989 094c 0E3683E2 		add	r3, r3, #14680064
 990 0950 301A9FE5 		ldr	r1, .L89+32
 991 0954 020080E2 		add	r0, r0, #2
 992 0958 AC3384E5 		str	r3, [r4, #940]	@ float
 993 095c FEFFFFEB 		bl	memcpy
 994 0960 090C84E2 		add	r0, r4, #2304
 995 0964 0131A0E3 		mov	r3, #1073741824
 996 0968 0A20A0E1 		mov	r2, sl
 997 096c 0A3683E2 		add	r3, r3, #10485760
 998 0970 141A9FE5 		ldr	r1, .L89+36
 999 0974 010080E2 		add	r0, r0, #1
 1000 0978 B03384E5 		str	r3, [r4, #944]	@ float
 1001 097c FEFFFFEB 		bl	memcpy
 1002 0980 0131A0E3 		mov	r3, #1073741824
 1003 0984 0A20A0E1 		mov	r2, sl
 1004 0988 033583E2 		add	r3, r3, #12582912
 1005 098c FC199FE5 		ldr	r1, .L89+40
 1006 0990 910E84E2 		add	r0, r4, #2320
 1007 0994 B43384E5 		str	r3, [r4, #948]	@ float
 1008 0998 FEFFFFEB 		bl	memcpy
 1009 099c 910E84E2 		add	r0, r4, #2320
 1010 09a0 0A20A0E1 		mov	r2, sl
 1011 09a4 4134A0E3 		mov	r3, #1090519040
 1012 09a8 080080E0 		add	r0, r0, r8
 1013 09ac E0199FE5 		ldr	r1, .L89+44
 1014 09b0 B83384E5 		str	r3, [r4, #952]	@ float
 1015 09b4 FEFFFFEB 		bl	memcpy
 1016 09b8 920E84E2 		add	r0, r4, #2336
 1017 09bc 0131A0E3 		mov	r3, #1073741824
 1018 09c0 0820A0E1 		mov	r2, r8
 1019 09c4 013583E2 		add	r3, r3, #4194304
 1020 09c8 0A0080E0 		add	r0, r0, sl
 1021 09cc C4199FE5 		ldr	r1, .L89+48
 1022 09d0 BC3384E5 		str	r3, [r4, #956]	@ float
 1023 09d4 FEFFFFEB 		bl	memcpy
 1024 09d8 930E84E2 		add	r0, r4, #2352
 1025 09dc 0131A0E3 		mov	r3, #1073741824
 1026 09e0 0920A0E1 		mov	r2, r9
 1027 09e4 023583E2 		add	r3, r3, #8388608
 1028 09e8 AC199FE5 		ldr	r1, .L89+52
 1029 09ec 0D0080E2 		add	r0, r0, #13
 1030 09f0 0D70A0E3 		mov	r7, #13
 1031 09f4 C03384E5 		str	r3, [r4, #960]	@ float
 1032 09f8 FEFFFFEB 		bl	memcpy
 1033 09fc 250D84E2 		add	r0, r4, #2368
 1034 0a00 0131A0E3 		mov	r3, #1073741824
 1035 0a04 0720A0E1 		mov	r2, r7
 1036 0a08 090080E0 		add	r0, r0, r9
 1037 0a0c 8C199FE5 		ldr	r1, .L89+56
 1038 0a10 C43384E5 		str	r3, [r4, #964]	@ float
 1039 0a14 FEFFFFEB 		bl	memcpy
 1040 0a18 490E84E2 		add	r0, r4, #1168
 1041 0a1c 0720A0E1 		mov	r2, r7
 1042 0a20 090080E0 		add	r0, r0, r9
 1043 0a24 78199FE5 		ldr	r1, .L89+60
 1044 0a28 846284E5 		str	r6, [r4, #644]	@ float
 1045 0a2c FEFFFFEB 		bl	memcpy
 1046 0a30 950E84E2 		add	r0, r4, #2384
 1047 0a34 0720A0E1 		mov	r2, r7
 1048 0a38 FE35A0E3 		mov	r3, #1065353216
 1049 0a3c 64199FE5 		ldr	r1, .L89+64
 1050 0a40 0B0080E2 		add	r0, r0, #11
 1051 0a44 C83384E5 		str	r3, [r4, #968]	@ float
 1052 0a48 FEFFFFEB 		bl	memcpy
 1053 0a4c 970E84E2 		add	r0, r4, #2416
 1054 0a50 4734A0E3 		mov	r3, #1191182336
 1055 0a54 0720A0E1 		mov	r2, r7
 1056 0a58 CA3A83E2 		add	r3, r3, #827392
 1057 0a5c 48199FE5 		ldr	r1, .L89+68
 1058 0a60 090080E2 		add	r0, r0, #9
 1059 0a64 D03384E5 		str	r3, [r4, #976]	@ float
 1060 0a68 FEFFFFEB 		bl	memcpy
 1061 0a6c 260D84E2 		add	r0, r4, #2432
 1062 0a70 1133A0E3 		mov	r3, #1140850688
 1063 0a74 7A3883E2 		add	r3, r3, #7995392
 1064 0a78 30199FE5 		ldr	r1, .L89+72
 1065 0a7c 0820A0E3 		mov	r2, #8
 1066 0a80 080080E2 		add	r0, r0, #8
 1067 0a84 D43384E5 		str	r3, [r4, #980]	@ float
 1068 0a88 FEFFFFEB 		bl	memcpy
 1069 0a8c 620E84E2 		add	r0, r4, #1568
 1070 0a90 0A20A0E1 		mov	r2, sl
 1071 0a94 18199FE5 		ldr	r1, .L89+76
 1072 0a98 020080E2 		add	r0, r0, #2
 1073 0a9c EC6284E5 		str	r6, [r4, #748]	@ float
 1074 0aa0 FEFFFFEB 		bl	memcpy
 1075 0aa4 4934A0E3 		mov	r3, #1224736768
 1076 0aa8 630E84E2 		add	r0, r4, #1584
 1077 0aac 3D3783E2 		add	r3, r3, #15990784
 1078 0ab0 0920A0E1 		mov	r2, r9
 1079 0ab4 093B83E2 		add	r3, r3, #9216
 1080 0ab8 F8189FE5 		ldr	r1, .L89+80
 1081 0abc 010080E2 		add	r0, r0, #1
 1082 0ac0 F03284E5 		str	r3, [r4, #752]	@ float
 1083 0ac4 FEFFFFEB 		bl	memcpy
 1084 0ac8 73C8E0E3 		mvn	ip, #7536640
 1085 0acc B338E0E3 		mvn	r3, #11730944
 1086 0ad0 33CC4CE2 		sub	ip, ip, #13056
 1087 0ad4 333C43E2 		sub	r3, r3, #13056
 1088 0ad8 CBC14CE2 		sub	ip, ip, #-1073741774
 1089 0adc C93143E2 		sub	r3, r3, #1073741874
 1090 0ae0 D4189FE5 		ldr	r1, .L89+84
 1091 0ae4 0920A0E3 		mov	r2, #9
 1092 0ae8 190D84E2 		add	r0, r4, #1600
 1093 0aec F8C284E5 		str	ip, [r4, #760]	@ float
 1094 0af0 F4C284E5 		str	ip, [r4, #756]	@ float
 1095 0af4 FC3284E5 		str	r3, [r4, #764]	@ float
 1096 0af8 006384E5 		str	r6, [r4, #768]	@ float
 1097 0afc 046384E5 		str	r6, [r4, #772]	@ float
 1098 0b00 EC6084E5 		str	r6, [r4, #236]	@ float
 1099 0b04 F06084E5 		str	r6, [r4, #240]	@ float
 1100 0b08 F46084E5 		str	r6, [r4, #244]	@ float
 1101 0b0c FEFFFFEB 		bl	memcpy
 1102 0b10 190D84E2 		add	r0, r4, #1600
 1103 0b14 080080E0 		add	r0, r0, r8
 1104 0b18 A0189FE5 		ldr	r1, .L89+88
 1105 0b1c 0920A0E3 		mov	r2, #9
 1106 0b20 FEFFFFEB 		bl	memcpy
 1107 0b24 650E84E2 		add	r0, r4, #1616
 1108 0b28 0A0080E0 		add	r0, r0, sl
 1109 0b2c 90189FE5 		ldr	r1, .L89+92
 1110 0b30 0920A0E3 		mov	r2, #9
 1111 0b34 FEFFFFEB 		bl	memcpy
 1112 0b38 660E84E2 		add	r0, r4, #1632
 1113 0b3c 070080E0 		add	r0, r0, r7
 1114 0b40 80189FE5 		ldr	r1, .L89+96
 1115 0b44 0B20A0E3 		mov	r2, #11
 1116 0b48 FEFFFFEB 		bl	memcpy
 1117 0b4c 670E84E2 		add	r0, r4, #1648
 1118 0b50 0A20A0E1 		mov	r2, sl
 1119 0b54 090080E0 		add	r0, r0, r9
 1120 0b58 6C189FE5 		ldr	r1, .L89+100
 1121 0b5c 0A50A0E3 		mov	r5, #10
 1122 0b60 FEFFFFEB 		bl	memcpy
 1123 0b64 4A0E84E2 		add	r0, r4, #1184
 1124 0b68 4234A0E3 		mov	r3, #1107296256
 1125 0b6c 0520A0E1 		mov	r2, r5
 1126 0b70 2D3783E2 		add	r3, r3, #11796480
 1127 0b74 54189FE5 		ldr	r1, .L89+104
 1128 0b78 0B0080E2 		add	r0, r0, #11
 1129 0b7c 883284E5 		str	r3, [r4, #648]	@ float
 1130 0b80 FEFFFFEB 		bl	memcpy
 1131 0b84 4B0E84E2 		add	r0, r4, #1200
 1132 0b88 4234A0E3 		mov	r3, #1107296256
 1133 0b8c 0520A0E1 		mov	r2, r5
 1134 0b90 073683E2 		add	r3, r3, #7340032
 1135 0b94 050080E0 		add	r0, r0, r5
 1136 0b98 34189FE5 		ldr	r1, .L89+108
 1137 0b9c 8C3284E5 		str	r3, [r4, #652]	@ float
 1138 0ba0 FEFFFFEB 		bl	memcpy
 1139 0ba4 130D84E2 		add	r0, r4, #1216
 1140 0ba8 4134A0E3 		mov	r3, #1090519040
 1141 0bac 0520A0E1 		mov	r2, r5
 1142 0bb0 0F3683E2 		add	r3, r3, #15728640
 1143 0bb4 1C189FE5 		ldr	r1, .L89+112
 1144 0bb8 090080E2 		add	r0, r0, #9
 1145 0bbc 903284E5 		str	r3, [r4, #656]	@ float
 1146 0bc0 FEFFFFEB 		bl	memcpy
 1147 0bc4 4D0E84E2 		add	r0, r4, #1232
 1148 0bc8 4234A0E3 		mov	r3, #1107296256
 1149 0bcc 323783E2 		add	r3, r3, #13107200
 1150 0bd0 0920A0E1 		mov	r2, r9
 1151 0bd4 00189FE5 		ldr	r1, .L89+116
 1152 0bd8 080080E2 		add	r0, r0, #8
 1153 0bdc 943284E5 		str	r3, [r4, #660]	@ float
 1154 0be0 F8B79FE5 		ldr	fp, .L89+120
 1155 0be4 FEFFFFEB 		bl	memcpy
 1156 0be8 4E0E84E2 		add	r0, r4, #1248
 1157 0bec 0920A0E1 		mov	r2, r9
 1158 0bf0 EC179FE5 		ldr	r1, .L89+124
 1159 0bf4 070080E2 		add	r0, r0, #7
 1160 0bf8 98B284E5 		str	fp, [r4, #664]	@ float
 1161 0bfc FEFFFFEB 		bl	memcpy
 1162 0c00 160D84E2 		add	r0, r4, #1408
 1163 0c04 0131A0E3 		mov	r3, #1073741824
 1164 0c08 0720A0E1 		mov	r2, r7
 1165 0c0c 0A3683E2 		add	r3, r3, #10485760
 1166 0c10 090080E0 		add	r0, r0, r9
 1167 0c14 CC179FE5 		ldr	r1, .L89+128
 1168 0c18 C43284E5 		str	r3, [r4, #708]	@ float
 1169 0c1c FEFFFFEB 		bl	memcpy
 1170 0c20 C4379FE5 		ldr	r3, .L89+132
 1171 0c24 590E84E2 		add	r0, r4, #1424
 1172 0c28 0720A0E1 		mov	r2, r7
 1173 0c2c BC179FE5 		ldr	r1, .L89+136
 1174 0c30 0B0080E2 		add	r0, r0, #11
 1175 0c34 C83284E5 		str	r3, [r4, #712]	@ float
 1176 0c38 FEFFFFEB 		bl	memcpy
 1177 0c3c 5A0E84E2 		add	r0, r4, #1440
 1178 0c40 0720A0E1 		mov	r2, r7
 1179 0c44 FE35A0E3 		mov	r3, #1065353216
 1180 0c48 050080E0 		add	r0, r0, r5
 1181 0c4c A0179FE5 		ldr	r1, .L89+140
 1182 0c50 CC3284E5 		str	r3, [r4, #716]	@ float
 1183 0c54 FEFFFFEB 		bl	memcpy
 1184 0c58 5B0E84E2 		add	r0, r4, #1456
 1185 0c5c 0131A0E3 		mov	r3, #1073741824
 1186 0c60 0820A0E1 		mov	r2, r8
 1187 0c64 013583E2 		add	r3, r3, #4194304
 1188 0c68 88179FE5 		ldr	r1, .L89+144
 1189 0c6c 090080E2 		add	r0, r0, #9
 1190 0c70 D03284E5 		str	r3, [r4, #720]	@ float
 1191 0c74 FEFFFFEB 		bl	memcpy
 1192 0c78 170D84E2 		add	r0, r4, #1472
 1193 0c7c 0820A0E1 		mov	r2, r8
 1194 0c80 FE35A0E3 		mov	r3, #1065353216
 1195 0c84 70179FE5 		ldr	r1, .L89+148
 1196 0c88 080080E2 		add	r0, r0, #8
 1197 0c8c D43284E5 		str	r3, [r4, #724]	@ float
 1198 0c90 FEFFFFEB 		bl	memcpy
 1199 0c94 5D0E84E2 		add	r0, r4, #1488
 1200 0c98 4134A0E3 		mov	r3, #1090519040
 1201 0c9c 0820A0E1 		mov	r2, r8
 1202 0ca0 073683E2 		add	r3, r3, #7340032
 1203 0ca4 54179FE5 		ldr	r1, .L89+152
 1204 0ca8 070080E2 		add	r0, r0, #7
 1205 0cac D83284E5 		str	r3, [r4, #728]	@ float
 1206 0cb0 FEFFFFEB 		bl	memcpy
 1207 0cb4 5E0E84E2 		add	r0, r4, #1504
 1208 0cb8 0131A0E3 		mov	r3, #1073741824
 1209 0cbc 0A3683E2 		add	r3, r3, #10485760
 1210 0cc0 0820A0E1 		mov	r2, r8
 1211 0cc4 38179FE5 		ldr	r1, .L89+156
 1212 0cc8 060080E2 		add	r0, r0, #6
 1213 0ccc DC3284E5 		str	r3, [r4, #732]	@ float
 1214 0cd0 FEFFFFEB 		bl	memcpy
 1215 0cd4 5F0E84E2 		add	r0, r4, #1520
 1216 0cd8 0820A0E1 		mov	r2, r8
 1217 0cdc 24179FE5 		ldr	r1, .L89+160
 1218 0ce0 050080E2 		add	r0, r0, #5
 1219 0ce4 E06284E5 		str	r6, [r4, #736]	@ float
 1220 0ce8 FEFFFFEB 		bl	memcpy
 1221 0cec 060C84E2 		add	r0, r4, #1536
 1222 0cf0 4234A0E3 		mov	r3, #1107296256
 1223 0cf4 0820A0E1 		mov	r2, r8
 1224 0cf8 123783E2 		add	r3, r3, #4718592
 1225 0cfc 08179FE5 		ldr	r1, .L89+164
 1226 0d00 040080E2 		add	r0, r0, #4
 1227 0d04 E43284E5 		str	r3, [r4, #740]	@ float
 1228 0d08 FEFFFFEB 		bl	memcpy
 1229 0d0c 610E84E2 		add	r0, r4, #1552
 1230 0d10 0820A0E1 		mov	r2, r8
 1231 0d14 FE35A0E3 		mov	r3, #1065353216
 1232 0d18 F0169FE5 		ldr	r1, .L89+168
 1233 0d1c 030080E2 		add	r0, r0, #3
 1234 0d20 E83284E5 		str	r3, [r4, #744]	@ float
 1235 0d24 FEFFFFEB 		bl	memcpy
 1236 0d28 6639E0E3 		mvn	r3, #1671168
 1237 0d2c 4F0E84E2 		add	r0, r4, #1264
 1238 0d30 663D43E2 		sub	r3, r3, #6528
 1239 0d34 0520A0E1 		mov	r2, r5
 1240 0d38 673143E2 		sub	r3, r3, #-1073741799
 1241 0d3c D0169FE5 		ldr	r1, .L89+172
 1242 0d40 060080E2 		add	r0, r0, #6
 1243 0d44 9C3284E5 		str	r3, [r4, #668]	@ float
 1244 0d48 FEFFFFEB 		bl	memcpy
 1245 0d4c C4369FE5 		ldr	r3, .L89+176
 1246 0d50 050C84E2 		add	r0, r4, #1280
 1247 0d54 0520A0E1 		mov	r2, r5
 1248 0d58 BC169FE5 		ldr	r1, .L89+180
 1249 0d5c 050080E2 		add	r0, r0, #5
 1250 0d60 A03284E5 		str	r3, [r4, #672]	@ float
 1251 0d64 FEFFFFEB 		bl	memcpy
 1252 0d68 510E84E2 		add	r0, r4, #1296
 1253 0d6c 0520A0E1 		mov	r2, r5
 1254 0d70 0131A0E3 		mov	r3, #1073741824
 1255 0d74 A4169FE5 		ldr	r1, .L89+184
 1256 0d78 040080E2 		add	r0, r0, #4
 1257 0d7c A43284E5 		str	r3, [r4, #676]	@ float
 1258 0d80 FEFFFFEB 		bl	memcpy
 1259 0d84 8C369FE5 		ldr	r3, .L89+176
 1260 0d88 520E84E2 		add	r0, r4, #1312
 1261 0d8c 0920A0E1 		mov	r2, r9
 1262 0d90 8C169FE5 		ldr	r1, .L89+188
 1263 0d94 030080E2 		add	r0, r0, #3
 1264 0d98 A83284E5 		str	r3, [r4, #680]	@ float
 1265 0d9c FEFFFFEB 		bl	memcpy
 1266 0da0 530E84E2 		add	r0, r4, #1328
 1267 0da4 0131A0E3 		mov	r3, #1073741824
 1268 0da8 0920A0E1 		mov	r2, r9
 1269 0dac 0A3683E2 		add	r3, r3, #10485760
 1270 0db0 70169FE5 		ldr	r1, .L89+192
 1271 0db4 020080E2 		add	r0, r0, #2
 1272 0db8 AC3284E5 		str	r3, [r4, #684]	@ float
 1273 0dbc FEFFFFEB 		bl	memcpy
 1274 0dc0 150D84E2 		add	r0, r4, #1344
 1275 0dc4 3F34A0E3 		mov	r3, #1056964608
 1276 0dc8 0920A0E1 		mov	r2, r9
 1277 0dcc 58169FE5 		ldr	r1, .L89+196
 1278 0dd0 010080E2 		add	r0, r0, #1
 1279 0dd4 B03284E5 		str	r3, [r4, #688]	@ float
 1280 0dd8 FEFFFFEB 		bl	memcpy
 1281 0ddc 0920A0E1 		mov	r2, r9
 1282 0de0 48169FE5 		ldr	r1, .L89+200
 1283 0de4 550E84E2 		add	r0, r4, #1360
 1284 0de8 B4B284E5 		str	fp, [r4, #692]	@ float
 1285 0dec FEFFFFEB 		bl	memcpy
 1286 0df0 20369FE5 		ldr	r3, .L89+176
 1287 0df4 550E84E2 		add	r0, r4, #1360
 1288 0df8 0920A0E1 		mov	r2, r9
 1289 0dfc 080080E0 		add	r0, r0, r8
 1290 0e00 2C169FE5 		ldr	r1, .L89+204
 1291 0e04 B83284E5 		str	r3, [r4, #696]	@ float
 1292 0e08 FEFFFFEB 		bl	memcpy
 1293 0e0c 560E84E2 		add	r0, r4, #1376
 1294 0e10 0A20A0E1 		mov	r2, sl
 1295 0e14 0A0080E0 		add	r0, r0, sl
 1296 0e18 18169FE5 		ldr	r1, .L89+208
 1297 0e1c BCB284E5 		str	fp, [r4, #700]	@ float
 1298 0e20 FEFFFFEB 		bl	memcpy
 1299 0e24 570E84E2 		add	r0, r4, #1392
 1300 0e28 0131A0E3 		mov	r3, #1073741824
 1301 0e2c 0A20A0E1 		mov	r2, sl
 1302 0e30 013583E2 		add	r3, r3, #4194304
 1303 0e34 070080E0 		add	r0, r0, r7
 1304 0e38 FC159FE5 		ldr	r1, .L89+212
 1305 0e3c C03284E5 		str	r3, [r4, #704]	@ float
 1306 0e40 FEFFFFEB 		bl	memcpy
 1307 0e44 710E84E2 		add	r0, r4, #1808
 1308 0e48 4734A0E3 		mov	r3, #1191182336
 1309 0e4c 5E3943E2 		sub	r3, r3, #1540096
 1310 0e50 E8159FE5 		ldr	r1, .L89+216
 1311 0e54 0B20A0E3 		mov	r2, #11
 1312 0e58 020080E2 		add	r0, r0, #2
 1313 0e5c 2C3384E5 		str	r3, [r4, #812]	@ float
 1314 0e60 FEFFFFEB 		bl	memcpy
 1315 0e64 4634A0E3 		mov	r3, #1174405120
 1316 0e68 720E84E2 		add	r0, r4, #1824
 1317 0e6c E93883E2 		add	r3, r3, #15269888
 1318 0e70 123B83E2 		add	r3, r3, #18432
 1319 0e74 C8159FE5 		ldr	r1, .L89+220
 1320 0e78 0B20A0E3 		mov	r2, #11
 1321 0e7c 010080E2 		add	r0, r0, #1
 1322 0e80 303384E5 		str	r3, [r4, #816]	@ float
 1323 0e84 FEFFFFEB 		bl	memcpy
 1324 0e88 4634A0E3 		mov	r3, #1174405120
 1325 0e8c E93883E2 		add	r3, r3, #15269888
 1326 0e90 6A3C83E2 		add	r3, r3, #27136
 1327 0e94 AC159FE5 		ldr	r1, .L89+224
 1328 0e98 0B20A0E3 		mov	r2, #11
 1329 0e9c 730E84E2 		add	r0, r4, #1840
 1330 0ea0 343384E5 		str	r3, [r4, #820]	@ float
 1331 0ea4 FEFFFFEB 		bl	memcpy
 1332 0ea8 730E84E2 		add	r0, r4, #1840
 1333 0eac 4234A0E3 		mov	r3, #1107296256
 1334 0eb0 080080E0 		add	r0, r0, r8
 1335 0eb4 90159FE5 		ldr	r1, .L89+228
 1336 0eb8 0920A0E3 		mov	r2, #9
 1337 0ebc 383384E5 		str	r3, [r4, #824]	@ float
 1338 0ec0 FEFFFFEB 		bl	memcpy
 1339 0ec4 1E0D84E2 		add	r0, r4, #1920
 1340 0ec8 0520A0E1 		mov	r2, r5
 1341 0ecc 050080E0 		add	r0, r0, r5
 1342 0ed0 78159FE5 		ldr	r1, .L89+232
 1343 0ed4 FEFFFFEB 		bl	memcpy
 1344 0ed8 790E84E2 		add	r0, r4, #1936
 1345 0edc 0520A0E1 		mov	r2, r5
 1346 0ee0 6C159FE5 		ldr	r1, .L89+236
 1347 0ee4 090080E2 		add	r0, r0, #9
 1348 0ee8 4C6384E5 		str	r6, [r4, #844]	@ float
 1349 0eec FEFFFFEB 		bl	memcpy
 1350 0ef0 7A0E84E2 		add	r0, r4, #1952
 1351 0ef4 0520A0E1 		mov	r2, r5
 1352 0ef8 58159FE5 		ldr	r1, .L89+240
 1353 0efc 080080E2 		add	r0, r0, #8
 1354 0f00 506384E5 		str	r6, [r4, #848]	@ float
 1355 0f04 FEFFFFEB 		bl	memcpy
 1356 0f08 4C359FE5 		ldr	r3, .L89+244
 1357 0f0c 4CC59FE5 		ldr	ip, .L89+248
 1358 0f10 3C3384E5 		str	r3, [r4, #828]	@ float
 1359 0f14 1D0D84E2 		add	r0, r4, #1856
 1360 0f18 44359FE5 		ldr	r3, .L89+252
 1361 0f1c 0820A0E1 		mov	r2, r8
 1362 0f20 0A0080E0 		add	r0, r0, sl
 1363 0f24 3C159FE5 		ldr	r1, .L89+256
 1364 0f28 40C384E5 		str	ip, [r4, #832]	@ float
 1365 0f2c 443384E5 		str	r3, [r4, #836]	@ float
 1366 0f30 546384E5 		str	r6, [r4, #852]	@ float
 1367 0f34 486384E5 		str	r6, [r4, #840]	@ float
 1368 0f38 FEFFFFEB 		bl	memcpy
 1369 0f3c 750E84E2 		add	r0, r4, #1872
 1370 0f40 0820A0E1 		mov	r2, r8
 1371 0f44 070080E0 		add	r0, r0, r7
 1372 0f48 1C159FE5 		ldr	r1, .L89+260
 1373 0f4c FEFFFFEB 		bl	memcpy
 1374 0f50 760E84E2 		add	r0, r4, #1888
 1375 0f54 0820A0E1 		mov	r2, r8
 1376 0f58 090080E0 		add	r0, r0, r9
 1377 0f5c 0C159FE5 		ldr	r1, .L89+264
 1378 0f60 FEFFFFEB 		bl	memcpy
 1379 0f64 770E84E2 		add	r0, r4, #1904
 1380 0f68 0820A0E1 		mov	r2, r8
 1381 0f6c 00159FE5 		ldr	r1, .L89+268
 1382 0f70 0B0080E2 		add	r0, r0, #11
 1383 0f74 FEFFFFEB 		bl	memcpy
 1384 0f78 7B0E84E2 		add	r0, r4, #1968
 1385 0f7c 4634A0E3 		mov	r3, #1174405120
 1386 0f80 713983E2 		add	r3, r3, #1851392
 1387 0f84 0A20A0E1 		mov	r2, sl
 1388 0f88 E8149FE5 		ldr	r1, .L89+272
 1389 0f8c 070080E2 		add	r0, r0, #7
 1390 0f90 583384E5 		str	r3, [r4, #856]	@ float
 1391 0f94 FEFFFFEB 		bl	memcpy
 1392 0f98 1F0D84E2 		add	r0, r4, #1984
 1393 0f9c 0520A0E1 		mov	r2, r5
 1394 0fa0 D4149FE5 		ldr	r1, .L89+276
 1395 0fa4 060080E2 		add	r0, r0, #6
 1396 0fa8 5C6384E5 		str	r6, [r4, #860]	@ float
 1397 0fac FEFFFFEB 		bl	memcpy
 1398 0fb0 7D0E84E2 		add	r0, r4, #2000
 1399 0fb4 0520A0E1 		mov	r2, r5
 1400 0fb8 C0149FE5 		ldr	r1, .L89+280
 1401 0fbc 050080E2 		add	r0, r0, #5
 1402 0fc0 606384E5 		str	r6, [r4, #864]	@ float
 1403 0fc4 FEFFFFEB 		bl	memcpy
 1404 0fc8 7E0E84E2 		add	r0, r4, #2016
 1405 0fcc 0520A0E1 		mov	r2, r5
 1406 0fd0 AC149FE5 		ldr	r1, .L89+284
 1407 0fd4 040080E2 		add	r0, r0, #4
 1408 0fd8 646384E5 		str	r6, [r4, #868]	@ float
 1409 0fdc FEFFFFEB 		bl	memcpy
 1410 0fe0 7F0E84E2 		add	r0, r4, #2032
 1411 0fe4 0820A0E1 		mov	r2, r8
 1412 0fe8 98149FE5 		ldr	r1, .L89+288
 1413 0fec 030080E2 		add	r0, r0, #3
 1414 0ff0 686384E5 		str	r6, [r4, #872]	@ float
 1415 0ff4 FEFFFFEB 		bl	memcpy
 1416 0ff8 020B84E2 		add	r0, r4, #2048
 1417 0ffc 0820A0E1 		mov	r2, r8
 1418 1000 84149FE5 		ldr	r1, .L89+292
 1419 1004 020080E2 		add	r0, r0, #2
 1420 1008 6C6384E5 		str	r6, [r4, #876]	@ float
 1421 100c FEFFFFEB 		bl	memcpy
 1422 1010 810E84E2 		add	r0, r4, #2064
 1423 1014 3133A0E3 		mov	r3, #-1006632960
 1424 1018 7A3883E2 		add	r3, r3, #7995392
 1425 101c 0820A0E1 		mov	r2, r8
 1426 1020 68149FE5 		ldr	r1, .L89+296
 1427 1024 010080E2 		add	r0, r0, #1
 1428 1028 703384E5 		str	r3, [r4, #880]	@ float
 1429 102c FEFFFFEB 		bl	memcpy
 1430 1030 6B0E84E2 		add	r0, r4, #1712
 1431 1034 0720A0E1 		mov	r2, r7
 1432 1038 54149FE5 		ldr	r1, .L89+300
 1433 103c 080080E2 		add	r0, r0, #8
 1434 1040 146384E5 		str	r6, [r4, #788]	@ float
 1435 1044 FEFFFFEB 		bl	memcpy
 1436 1048 1B0D84E2 		add	r0, r4, #1728
 1437 104c 0720A0E1 		mov	r2, r7
 1438 1050 40149FE5 		ldr	r1, .L89+304
 1439 1054 070080E2 		add	r0, r0, #7
 1440 1058 186384E5 		str	r6, [r4, #792]	@ float
 1441 105c FEFFFFEB 		bl	memcpy
 1442 1060 6D0E84E2 		add	r0, r4, #1744
 1443 1064 0720A0E1 		mov	r2, r7
 1444 1068 2C149FE5 		ldr	r1, .L89+308
 1445 106c 060080E2 		add	r0, r0, #6
 1446 1070 1C6384E5 		str	r6, [r4, #796]	@ float
 1447 1074 FEFFFFEB 		bl	memcpy
 1448 1078 20349FE5 		ldr	r3, .L89+312
 1449 107c 6E0E84E2 		add	r0, r4, #1760
 1450 1080 1C149FE5 		ldr	r1, .L89+316
 1451 1084 0920A0E3 		mov	r2, #9
 1452 1088 050080E2 		add	r0, r0, #5
 1453 108c 203384E5 		str	r3, [r4, #800]	@ float
 1454 1090 FEFFFFEB 		bl	memcpy
 1455 1094 ED35A0E3 		mov	r3, #994050048
 1456 1098 6F0E84E2 		add	r0, r4, #1776
 1457 109c 613983E2 		add	r3, r3, #1589248
 1458 10a0 0720A0E1 		mov	r2, r7
 1459 10a4 4D3E83E2 		add	r3, r3, #1232
 1460 10a8 F8139FE5 		ldr	r1, .L89+320
 1461 10ac 040080E2 		add	r0, r0, #4
 1462 10b0 243384E5 		str	r3, [r4, #804]	@ float
 1463 10b4 FEFFFFEB 		bl	memcpy
 1464 10b8 070C84E2 		add	r0, r4, #1792
 1465 10bc FE35A0E3 		mov	r3, #1065353216
 1466 10c0 0720A0E1 		mov	r2, r7
 1467 10c4 E0139FE5 		ldr	r1, .L89+324
 1468 10c8 030080E2 		add	r0, r0, #3
 1469 10cc 283384E5 		str	r3, [r4, #808]	@ float
 1470 10d0 FEFFFFEB 		bl	memcpy
 1471 10d4 1A0D84E2 		add	r0, r4, #1664
 1472 10d8 0720A0E1 		mov	r2, r7
 1473 10dc CC139FE5 		ldr	r1, .L89+328
 1474 10e0 0B0080E2 		add	r0, r0, #11
 1475 10e4 086384E5 		str	r6, [r4, #776]	@ float
 1476 10e8 FEFFFFEB 		bl	memcpy
 1477 10ec 690E84E2 		add	r0, r4, #1680
 1478 10f0 0720A0E1 		mov	r2, r7
 1479 10f4 050080E0 		add	r0, r0, r5
 1480 10f8 B4139FE5 		ldr	r1, .L89+332
 1481 10fc 0C6384E5 		str	r6, [r4, #780]	@ float
 1482 1100 FEFFFFEB 		bl	memcpy
 1483 1104 A33DE0E3 		mvn	r3, #10432
 1484 1108 6A0E84E2 		add	r0, r4, #1696
 1485 110c D53143E2 		sub	r3, r3, #1073741877
 1486 1110 973743E2 		sub	r3, r3, #39583744
 1487 1114 0720A0E1 		mov	r2, r7
 1488 1118 98139FE5 		ldr	r1, .L89+336
 1489 111c 090080E2 		add	r0, r0, #9
 1490 1120 103384E5 		str	r3, [r4, #784]	@ float
 1491 1124 FEFFFFEB 		bl	memcpy
 1492 1128 830E84E2 		add	r0, r4, #2096
 1493 112c 0820A0E1 		mov	r2, r8
 1494 1130 0A0080E0 		add	r0, r0, sl
 1495 1134 80139FE5 		ldr	r1, .L89+340
 1496 1138 7C6384E5 		str	r6, [r4, #892]	@ float
 1497 113c FEFFFFEB 		bl	memcpy
 1498 1140 210D84E2 		add	r0, r4, #2112
 1499 1144 FE35A0E3 		mov	r3, #1065353216
 1500 1148 0A20A0E1 		mov	r2, sl
 1501 114c 070080E0 		add	r0, r0, r7
 1502 1150 68139FE5 		ldr	r1, .L89+344
 1503 1154 803384E5 		str	r3, [r4, #896]	@ float
 1504 1158 846384E5 		str	r6, [r4, #900]	@ float
 1505 115c 886384E5 		str	r6, [r4, #904]	@ float
 1506 1160 8C6384E5 		str	r6, [r4, #908]	@ float
 1507 1164 906384E5 		str	r6, [r4, #912]	@ float
 1508 1168 946384E5 		str	r6, [r4, #916]	@ float
 1509 116c 986384E5 		str	r6, [r4, #920]	@ float
 1510 1170 9C6384E5 		str	r6, [r4, #924]	@ float
 1511 1174 A06384E5 		str	r6, [r4, #928]	@ float
 1512 1178 A46384E5 		str	r6, [r4, #932]	@ float
 1513 117c FEFFFFEB 		bl	memcpy
 1514 1180 850E84E2 		add	r0, r4, #2128
 1515 1184 0720A0E1 		mov	r2, r7
 1516 1188 090080E0 		add	r0, r0, r9
 1517 118c 30139FE5 		ldr	r1, .L89+348
 1518 1190 FEFFFFEB 		bl	memcpy
 1519 1194 875E84E2 		add	r5, r4, #2160
 1520 1198 860E84E2 		add	r0, r4, #2144
 1521 119c 0A5085E2 		add	r5, r5, #10
 1522 11a0 20139FE5 		ldr	r1, .L89+352
 1523 11a4 0820A0E3 		mov	r2, #8
 1524 11a8 0B0080E2 		add	r0, r0, #11
 1525 11ac FEFFFFEB 		bl	memcpy
 1526 11b0 0720A0E1 		mov	r2, r7
 1527 11b4 10139FE5 		ldr	r1, .L89+356
 1528 11b8 0500A0E1 		mov	r0, r5
 1529 11bc FEFFFFEB 		bl	memcpy
 1530 11c0 08139FE5 		ldr	r1, .L89+360
 1531 11c4 0820A0E3 		mov	r2, #8
 1532 11c8 080085E0 		add	r0, r5, r8
 1533 11cc FEFFFFEB 		bl	memcpy
 1534 11d0 FC129FE5 		ldr	r1, .L89+364
 1535 11d4 0820A0E3 		mov	r2, #8
 1536 11d8 1E0085E2 		add	r0, r5, #30
 1537 11dc FEFFFFEB 		bl	memcpy
 1538 11e0 F0129FE5 		ldr	r1, .L89+368
 1539 11e4 0820A0E3 		mov	r2, #8
 1540 11e8 2D0085E2 		add	r0, r5, #45
 1541 11ec FEFFFFEB 		bl	memcpy
 1542 11f0 E4129FE5 		ldr	r1, .L89+372
 1543 11f4 0820A0E3 		mov	r2, #8
 1544 11f8 3C0085E2 		add	r0, r5, #60
 1545 11fc FEFFFFEB 		bl	memcpy
 1546 1200 D8129FE5 		ldr	r1, .L89+376
 1547 1204 0820A0E3 		mov	r2, #8
 1548 1208 4B0085E2 		add	r0, r5, #75
 1549 120c FEFFFFEB 		bl	memcpy
 1550 1210 0820A0E3 		mov	r2, #8
 1551 1214 C8129FE5 		ldr	r1, .L89+380
 1552 1218 5A0085E2 		add	r0, r5, #90
 1553 121c FEFFFFEB 		bl	memcpy
 1554 1220 FE35A0E3 		mov	r3, #1065353216
 1555 1224 450E84E2 		add	r0, r4, #1104
 1556 1228 0A3605E5 		str	r3, [r5, #-1546]	@ float
 1557 122c B4129FE5 		ldr	r1, .L89+384
 1558 1230 0B20A0E3 		mov	r2, #11
 1559 1234 010080E2 		add	r0, r0, #1
 1560 1238 FEFFFFEB 		bl	memcpy
 1561 123c 0720A0E1 		mov	r2, r7
 1562 1240 A4129FE5 		ldr	r1, .L89+388
 1563 1244 460E84E2 		add	r0, r4, #1120
 1564 1248 066605E5 		str	r6, [r5, #-1542]	@ float
 1565 124c FEFFFFEB 		bl	memcpy
 1566 1250 460E84E2 		add	r0, r4, #1120
 1567 1254 0820A0E1 		mov	r2, r8
 1568 1258 080080E0 		add	r0, r0, r8
 1569 125c 8C129FE5 		ldr	r1, .L89+392
 1570 1260 026605E5 		str	r6, [r5, #-1538]	@ float
 1571 1264 FEFFFFEB 		bl	memcpy
 1572 1268 FE35A0E3 		mov	r3, #1065353216
 1573 126c 470E84E2 		add	r0, r4, #1136
 1574 1270 0920A0E1 		mov	r2, r9
 1575 1274 FE3505E5 		str	r3, [r5, #-1534]	@ float
 1576 1278 0A0080E0 		add	r0, r0, sl
 1577 127c 70129FE5 		ldr	r1, .L89+396
 1578 1280 FEFFFFEB 		bl	memcpy
 1579 1284 FE35A0E3 		mov	r3, #1065353216
 1580 1288 120D84E2 		add	r0, r4, #1152
 1581 128c FA3505E5 		str	r3, [r5, #-1530]	@ float
 1582 1290 0B20A0E3 		mov	r2, #11
 1583 1294 070080E0 		add	r0, r0, r7
 1584 1298 58129FE5 		ldr	r1, .L89+400
 1585 129c FEFFFFEB 		bl	memcpy
 1586 12a0 0920A0E1 		mov	r2, r9
 1587 12a4 50129FE5 		ldr	r1, .L89+404
 1588 12a8 820E84E2 		add	r0, r4, #2080
 1589 12ac 066505E5 		str	r6, [r5, #-1286]	@ float
 1590 12b0 FEFFFFEB 		bl	memcpy
 1591 12b4 5C319FE5 		ldr	r3, .L89+176
 1592 12b8 820E84E2 		add	r0, r4, #2080
 1593 12bc 023505E5 		str	r3, [r5, #-1282]	@ float
 1594 12c0 0820A0E1 		mov	r2, r8
 1595 12c4 080080E0 		add	r0, r0, r8
 1596 12c8 30129FE5 		ldr	r1, .L89+408
 1597 12cc FEFFFFEB 		bl	memcpy
 1598 12d0 960E84E2 		add	r0, r4, #2400
 1599 12d4 0920A0E3 		mov	r2, #9
 1600 12d8 24129FE5 		ldr	r1, .L89+412
 1601 12dc 0A0080E2 		add	r0, r0, #10
 1602 12e0 FEFFFFEB 		bl	memcpy
 1603 12e4 990E84E2 		add	r0, r4, #2448
 1604 12e8 0A20A0E1 		mov	r2, sl
 1605 12ec 14129FE5 		ldr	r1, .L89+416
 1606 12f0 AE6405E5 		str	r6, [r5, #-1198]	@ float
 1607 12f4 070080E2 		add	r0, r0, #7
 1608 12f8 FEFFFFEB 		bl	memcpy
 1609 12fc 9A0E84E2 		add	r0, r4, #2464
 1610 1300 0A20A0E1 		mov	r2, sl
 1611 1304 00129FE5 		ldr	r1, .L89+420
 1612 1308 060080E2 		add	r0, r0, #6
 1613 130c FEFFFFEB 		bl	memcpy
 1614 1310 9B0E84E2 		add	r0, r4, #2480
 1615 1314 0A20A0E1 		mov	r2, sl
 1616 1318 F0119FE5 		ldr	r1, .L89+424
 1617 131c 050080E2 		add	r0, r0, #5
 1618 1320 FEFFFFEB 		bl	memcpy
 1619 1324 270D84E2 		add	r0, r4, #2496
 1620 1328 0A20A0E1 		mov	r2, sl
 1621 132c E0119FE5 		ldr	r1, .L89+428
 1622 1330 040080E2 		add	r0, r0, #4
 1623 1334 FEFFFFEB 		bl	memcpy
 1624 1338 420E84E2 		add	r0, r4, #1056
 1625 133c 0A20A0E1 		mov	r2, sl
 1626 1340 D0119FE5 		ldr	r1, .L89+432
 1627 1344 166605E5 		str	r6, [r5, #-1558]	@ float
 1628 1348 A26405E5 		str	r6, [r5, #-1186]	@ float
 1629 134c 9E6405E5 		str	r6, [r5, #-1182]	@ float
 1630 1350 9A6405E5 		str	r6, [r5, #-1178]	@ float
 1631 1354 966405E5 		str	r6, [r5, #-1174]	@ float
 1632 1358 040080E2 		add	r0, r0, #4
 1633 135c FEFFFFEB 		bl	memcpy
 1634 1360 F04FBDE8 		ldmfd	sp!, {r4, r5, r6, r7, r8, r9, sl, fp, lr}
 1635 1364 1EFF2FE1 		bx	lr
 1636              	.L90:
 1637              		.align	2
 1638              	.L89:
 1639 1368 00000000 		.word	global_data
 1640 136c D8000000 		.word	.LC7
 1641 1370 E0000000 		.word	.LC8
 1642 1374 EC000000 		.word	.LC9
 1643 1378 F8000000 		.word	.LC10
 1644 137c 04010000 		.word	.LC11
 1645 1380 14010000 		.word	.LC12
 1646 1384 20010000 		.word	.LC13
 1647 1388 2C010000 		.word	.LC14
 1648 138c 3C010000 		.word	.LC15
 1649 1390 4C010000 		.word	.LC16
 1650 1394 5C010000 		.word	.LC17
 1651 1398 6C010000 		.word	.LC18
 1652 139c 7C010000 		.word	.LC19
 1653 13a0 88010000 		.word	.LC20
 1654 13a4 98010000 		.word	.LC21
 1655 13a8 A8010000 		.word	.LC22
 1656 13ac B8010000 		.word	.LC23
 1657 13b0 C8010000 		.word	.LC24
 1658 13b4 D0010000 		.word	.LC25
 1659 13b8 E0010000 		.word	.LC26
 1660 13bc EC010000 		.word	.LC27
 1661 13c0 F8010000 		.word	.LC28
 1662 13c4 04020000 		.word	.LC29
 1663 13c8 10020000 		.word	.LC30
 1664 13cc 1C020000 		.word	.LC31
 1665 13d0 2C020000 		.word	.LC32
 1666 13d4 38020000 		.word	.LC33
 1667 13d8 44020000 		.word	.LC34
 1668 13dc 50020000 		.word	.LC35
 1669 13e0 9A99993E 		.word	1050253722
 1670 13e4 5C020000 		.word	.LC36
 1671 13e8 68020000 		.word	.LC37
 1672 13ec CDCCCC3D 		.word	1036831949
 1673 13f0 78020000 		.word	.LC38
 1674 13f4 88020000 		.word	.LC39
 1675 13f8 98020000 		.word	.LC40
 1676 13fc A8020000 		.word	.LC41
 1677 1400 B8020000 		.word	.LC42
 1678 1404 C8020000 		.word	.LC43
 1679 1408 D8020000 		.word	.LC44
 1680 140c E8020000 		.word	.LC45
 1681 1410 F8020000 		.word	.LC46
 1682 1414 08030000 		.word	.LC47
 1683 1418 CDCC4C3E 		.word	1045220557
 1684 141c 14030000 		.word	.LC48
 1685 1420 20030000 		.word	.LC49
 1686 1424 2C030000 		.word	.LC50
 1687 1428 38030000 		.word	.LC51
 1688 142c 44030000 		.word	.LC52
 1689 1430 50030000 		.word	.LC53
 1690 1434 5C030000 		.word	.LC54
 1691 1438 68030000 		.word	.LC55
 1692 143c 78030000 		.word	.LC56
 1693 1440 88030000 		.word	.LC57
 1694 1444 94030000 		.word	.LC58
 1695 1448 A0030000 		.word	.LC59
 1696 144c AC030000 		.word	.LC60
 1697 1450 B8030000 		.word	.LC61
 1698 1454 C4030000 		.word	.LC62
 1699 1458 D0030000 		.word	.LC63
 1700 145c 8F11F646 		.word	1190531471
 1701 1460 BC8EE546 		.word	1189449404
 1702 1464 388EEB46 		.word	1189842488
 1703 1468 DC030000 		.word	.LC64
 1704 146c EC030000 		.word	.LC65
 1705 1470 FC030000 		.word	.LC66
 1706 1474 0C040000 		.word	.LC67
 1707 1478 1C040000 		.word	.LC68
 1708 147c 2C040000 		.word	.LC69
 1709 1480 38040000 		.word	.LC70
 1710 1484 44040000 		.word	.LC71
 1711 1488 50040000 		.word	.LC72
 1712 148c 60040000 		.word	.LC73
 1713 1490 70040000 		.word	.LC74
 1714 1494 80040000 		.word	.LC75
 1715 1498 90040000 		.word	.LC76
 1716 149c A0040000 		.word	.LC77
 1717 14a0 3333733F 		.word	1064514355
 1718 14a4 B0040000 		.word	.LC78
 1719 14a8 BC040000 		.word	.LC79
 1720 14ac CC040000 		.word	.LC80
 1721 14b0 DC040000 		.word	.LC81
 1722 14b4 EC040000 		.word	.LC82
 1723 14b8 FC040000 		.word	.LC83
 1724 14bc 0C050000 		.word	.LC84
 1725 14c0 1C050000 		.word	.LC85
 1726 14c4 2C050000 		.word	.LC86
 1727 14c8 3C050000 		.word	.LC87
 1728 14cc 44050000 		.word	.LC88
 1729 14d0 54050000 		.word	.LC89
 1730 14d4 5C050000 		.word	.LC90
 1731 14d8 64050000 		.word	.LC91
 1732 14dc 6C050000 		.word	.LC92
 1733 14e0 74050000 		.word	.LC93
 1734 14e4 7C050000 		.word	.LC94
 1735 14e8 84050000 		.word	.LC95
 1736 14ec 90050000 		.word	.LC96
 1737 14f0 A0050000 		.word	.LC97
 1738 14f4 B0050000 		.word	.LC98
 1739 14f8 BC050000 		.word	.LC99
 1740 14fc C8050000 		.word	.LC100
 1741 1500 D4050000 		.word	.LC101
 1742 1504 E4050000 		.word	.LC102
 1743 1508 F0050000 		.word	.LC103
 1744 150c 00060000 		.word	.LC104
 1745 1510 10060000 		.word	.LC105
 1746 1514 20060000 		.word	.LC106
 1747 1518 30060000 		.word	.LC107
 1749              		.align	2
 1751              	mavlink_send_uart:
 1752              		@ Function supports interworking.
 1753              		@ args = 0, pretend = 0, frame = 0
 1754              		@ frame_needed = 0, uses_anonymous_args = 0
 1755 151c 70402DE9 		stmfd	sp!, {r4, r5, r6, lr}
 1756 1520 0150A0E1 		mov	r5, r1
 1757 1524 0060A0E1 		mov	r6, r0
 1758 1528 5510A0E3 		mov	r1, #85
 1759 152c FEFFFFEB 		bl	comm_send_ch
 1760 1530 0600A0E1 		mov	r0, r6
 1761 1534 0010D5E5 		ldrb	r1, [r5, #0]	@ zero_extendqisi2
 1762 1538 FEFFFFEB 		bl	comm_send_ch
 1763 153c 0600A0E1 		mov	r0, r6
 1764 1540 0110D5E5 		ldrb	r1, [r5, #1]	@ zero_extendqisi2
 1765 1544 FEFFFFEB 		bl	comm_send_ch
 1766 1548 0600A0E1 		mov	r0, r6
 1767 154c 0210D5E5 		ldrb	r1, [r5, #2]	@ zero_extendqisi2
 1768 1550 FEFFFFEB 		bl	comm_send_ch
 1769 1554 0600A0E1 		mov	r0, r6
 1770 1558 0310D5E5 		ldrb	r1, [r5, #3]	@ zero_extendqisi2
 1771 155c FEFFFFEB 		bl	comm_send_ch
 1772 1560 0600A0E1 		mov	r0, r6
 1773 1564 0410D5E5 		ldrb	r1, [r5, #4]	@ zero_extendqisi2
 1774 1568 FEFFFFEB 		bl	comm_send_ch
 1775 156c 0030D5E5 		ldrb	r3, [r5, #0]	@ zero_extendqisi2
 1776 1570 000053E3 		cmp	r3, #0
 1777 1574 0A00000A 		beq	.L92
 1778 1578 0040A0E3 		mov	r4, #0
 1779              	.L94:
 1780 157c 053084E0 		add	r3, r4, r5
 1781 1580 0510D3E5 		ldrb	r1, [r3, #5]	@ zero_extendqisi2
 1782 1584 0600A0E1 		mov	r0, r6
 1783 1588 FEFFFFEB 		bl	comm_send_ch
 1784 158c 013084E2 		add	r3, r4, #1
 1785 1590 0338A0E1 		mov	r3, r3, asl #16
 1786 1594 0020D5E5 		ldrb	r2, [r5, #0]	@ zero_extendqisi2
 1787 1598 2348A0E1 		mov	r4, r3, lsr #16
 1788 159c 040052E1 		cmp	r2, r4
 1789 15a0 F5FFFF8A 		bhi	.L94
 1790              	.L92:
 1791 15a4 0411D5E5 		ldrb	r1, [r5, #260]	@ zero_extendqisi2
 1792 15a8 0600A0E1 		mov	r0, r6
 1793 15ac FEFFFFEB 		bl	comm_send_ch
 1794 15b0 0600A0E1 		mov	r0, r6
 1795 15b4 0511D5E5 		ldrb	r1, [r5, #261]	@ zero_extendqisi2
 1796 15b8 FEFFFFEB 		bl	comm_send_ch
 1797 15bc 7040BDE8 		ldmfd	sp!, {r4, r5, r6, lr}
 1798 15c0 1EFF2FE1 		bx	lr
 1800              		.section	.rodata.str1.4
 1801 063e 0000     		.align	2
 1802              	.LC108:
 1803 0640 53656E73 		.ascii	"Sensor initialized\000"
 1803      6F722069 
 1803      6E697469 
 1803      616C697A 
 1803      656400
 1804 0653 00       		.align	2
 1805              	.LC109:
 1806 0654 54657874 		.ascii	"Text message buffer initialized\000"
 1806      206D6573 
 1806      73616765 
 1806      20627566 
 1806      66657220 
 1807              		.align	2
 1808              	.LC110:
 1809 0674 45455052 		.ascii	"EEPROM detected - reading parameters from EEPROM\000"
 1809      4F4D2064 
 1809      65746563 
 1809      74656420 
 1809      2D207265 
 1810 06a5 000000   		.align	2
 1811              	.LC111:
 1812 06a8 4E4F2045 		.ascii	"NO EEPROM - reading onboard parameters from FLASH\000"
 1812      4550524F 
 1812      4D202D20 
 1812      72656164 
 1812      696E6720 
 1813              		.global	__fixunssfsi
 1814              		.global	__fixunsdfsi
 1815 06da 0000     		.align	2
 1816              	.LC112:
 1817 06dc 41747469 		.ascii	"Attitude Filter initialized\000"
 1817      74756465 
 1817      2046696C 
 1817      74657220 
 1817      696E6974 
 1818              		.align	2
 1819              	.LC113:
 1820 06f8 53797374 		.ascii	"System is initialized\000"
 1820      656D2069 
 1820      7320696E 
 1820      69746961 
 1820      6C697A65 
 1821 070e 0000     		.align	2
 1822              	.LC114:
 1823 0710 43686563 		.ascii	"Checking if remote control is switched on:\000"
 1823      6B696E67 
 1823      20696620 
 1823      72656D6F 
 1823      74652063 
 1824 073b 00       		.align	2
 1825              	.LC115:
 1826 073c 52455355 		.ascii	"RESULT: remote control switched ON\000"
 1826      4C543A20 
 1826      72656D6F 
 1826      74652063 
 1826      6F6E7472 
 1827 075f 00       		.align	2
 1828              	.LC116:
 1829 0760 52455355 		.ascii	"RESULT: remote control switched OFF\000"
 1829      4C543A20 
 1829      72656D6F 
 1829      74652063 
 1829      6F6E7472 
 1830              		.text
 1831              		.align	2
 1832              		.global	main_init_generic
 1834              	main_init_generic:
 1835              		@ Function supports interworking.
 1836              		@ args = 0, pretend = 0, frame = 412
 1837              		@ frame_needed = 0, uses_anonymous_args = 0
 1838 15c4 E0279FE5 		ldr	r2, .L206+72
 1839 15c8 1A3EA0E3 		mov	r3, #416
 1840 15cc 0000A0E3 		mov	r0, #0
 1841 15d0 023083E2 		add	r3, r3, #2
 1842 15d4 F04F2DE9 		stmfd	sp!, {r4, r5, r6, r7, r8, r9, sl, fp, lr}
 1843 15d8 B30082E1 		strh	r0, [r2, r3]	@ movhi
 1844 15dc C1E4A0E3 		mov	lr, #-1056964608
 1845 15e0 C4379FE5 		ldr	r3, .L206+72
 1846 15e4 0AE68EE2 		add	lr, lr, #10485760
 1847 15e8 692FA0E3 		mov	r2, #420
 1848 15ec B20083E1 		strh	r0, [r3, r2]	@ movhi
 1849 15f0 740183E5 		str	r0, [r3, #372]
 1850 15f4 B0279FE5 		ldr	r2, .L206+72
 1851 15f8 94E083E5 		str	lr, [r3, #148]	@ float
 1852 15fc 3338E0E3 		mvn	r3, #3342336
 1853 1600 4144A0E3 		mov	r4, #1090519040
 1854 1604 333C43E2 		sub	r3, r3, #13056
 1855 1608 0010A0E3 		mov	r1, #0
 1856 160c 00C0A0E1 		mov	ip, r0	@ movhi
 1857 1610 500182E5 		str	r0, [r2, #336]
 1858 1614 5C0182E5 		str	r0, [r2, #348]
 1859 1618 440AC2E5 		strb	r0, [r2, #2628]
 1860 161c 2C01C2E5 		strb	r0, [r2, #300]
 1861 1620 2D01C2E5 		strb	r0, [r2, #301]
 1862 1624 2E01C2E5 		strb	r0, [r2, #302]
 1863 1628 3101C2E5 		strb	r0, [r2, #305]
 1864 162c 3201C2E5 		strb	r0, [r2, #306]
 1865 1630 3001C2E5 		strb	r0, [r2, #304]
 1866 1634 2F01C2E5 		strb	r0, [r2, #303]
 1867 1638 3301C2E5 		strb	r0, [r2, #307]
 1868 163c 680182E5 		str	r0, [r2, #360]
 1869 1640 6C0182E5 		str	r0, [r2, #364]
 1870 1644 700182E5 		str	r0, [r2, #368]
 1871 1648 6401C2E5 		strb	r0, [r2, #356]
 1872 164c 0A4684E2 		add	r4, r4, #10485760
 1873 1650 54079FE5 		ldr	r0, .L206+72
 1874 1654 C93143E2 		sub	r3, r3, #1073741874
 1875 1658 D41982E5 		str	r1, [r2, #2516]	@ float
 1876 165c D81982E5 		str	r1, [r2, #2520]	@ float
 1877 1660 041182E5 		str	r1, [r2, #260]	@ float
 1878 1664 081182E5 		str	r1, [r2, #264]	@ float
 1879 1668 0C1182E5 		str	r1, [r2, #268]	@ float
 1880 166c 8C1082E5 		str	r1, [r2, #140]	@ float
 1881 1670 B41082E5 		str	r1, [r2, #180]	@ float
 1882 1674 B81082E5 		str	r1, [r2, #184]	@ float
 1883 1678 BC1082E5 		str	r1, [r2, #188]	@ float
 1884 167c C01082E5 		str	r1, [r2, #192]	@ float
 1885 1680 983082E5 		str	r3, [r2, #152]	@ float
 1886 1684 90E082E5 		str	lr, [r2, #144]	@ float
 1887 1688 9C4082E5 		str	r4, [r2, #156]	@ float
 1888 168c 0030A0E3 		mov	r3, #0
 1889 1690 0020A0E3 		mov	r2, #0
 1890 1694 182A80E5 		str	r2, [r0, #2584]
 1891 1698 1C3A80E5 		str	r3, [r0, #2588]
 1892 169c 823FE0E3 		mvn	r3, #520
 1893 16a0 F13343E2 		sub	r3, r3, #-1006632957
 1894 16a4 AB3843E2 		sub	r3, r3, #11206656
 1895 16a8 343A80E5 		str	r3, [r0, #2612]	@ float
 1896 16ac 301080E5 		str	r1, [r0, #48]	@ float
 1897 16b0 3DCAC0E5 		strb	ip, [r0, #2621]
 1898 16b4 A41080E5 		str	r1, [r0, #164]	@ float
 1899 16b8 301A80E5 		str	r1, [r0, #2608]	@ float
 1900 16bc 381A80E5 		str	r1, [r0, #2616]	@ float
 1901 16c0 401A80E5 		str	r1, [r0, #2624]	@ float
 1902 16c4 3CCAC0E5 		strb	ip, [r0, #2620]
 1903 16c8 69DF4DE2 		sub	sp, sp, #420
 1904 16cc A04080E5 		str	r4, [r0, #160]	@ float
 1905 16d0 61FCFFEB 		bl	global_data_reset_param_defaults
 1906 16d4 0E32A0E3 		mov	r3, #-536870912
 1907 16d8 7F3983E2 		add	r3, r3, #2080768
 1908 16dc 2420A0E3 		mov	r2, #36
 1909 16e0 0110A0E3 		mov	r1, #1
 1910 16e4 8420C3E5 		strb	r2, [r3, #132]
 1911 16e8 8010C3E5 		strb	r1, [r3, #128]
 1912 16ec 7A2042E2 		sub	r2, r2, #122
 1913 16f0 541081E2 		add	r1, r1, #84
 1914 16f4 8C20C3E5 		strb	r2, [r3, #140]
 1915 16f8 8C10C3E5 		strb	r1, [r3, #140]
 1916 16fc 03C0A0E1 		mov	ip, r3
 1917              	.L98:
 1918 1700 B838DCE1 		ldrh	r3, [ip, #136]
 1919 1704 010B13E3 		tst	r3, #1024
 1920 1708 FCFFFF0A 		beq	.L98
 1921 170c 0300A0E3 		mov	r0, #3
 1922 1710 5530E0E3 		mvn	r3, #85
 1923 1714 8000CCE5 		strb	r0, [ip, #128]
 1924 1718 5520A0E3 		mov	r2, #85
 1925 171c 8C30CCE5 		strb	r3, [ip, #140]
 1926 1720 0050E0E3 		mvn	r5, #0
 1927 1724 583083E2 		add	r3, r3, #88
 1928 1728 8C20CCE5 		strb	r2, [ip, #140]
 1929 172c 0040A0E3 		mov	r4, #0
 1930 1730 0400CCE5 		strb	r0, [ip, #4]
 1931 1734 0030CCE5 		strb	r3, [ip, #0]
 1932 1738 053083E0 		add	r3, r3, r5
 1933 173c 0041CCE5 		strb	r4, [ip, #256]
 1934 1740 4030CCE5 		strb	r3, [ip, #64]
 1935 1744 20369FE5 		ldr	r3, .L206+8
 1936 1748 0F1CE0E3 		mvn	r1, #3840
 1937 174c EB5001E5 		str	r5, [r1, #-235]
 1938 1750 F34001E5 		str	r4, [r1, #-243]
 1939 1754 CB3001E5 		str	r3, [r1, #-203]
 1940 1758 FEFFFFEB 		bl	enableIRQ
 1941 175c FEFFFFEB 		bl	led_init
 1942 1760 1000A0E3 		mov	r0, #16
 1943 1764 FEFFFFEB 		bl	led_on
 1944 1768 0E12A0E3 		mov	r1, #-536870912
 1945 176c 0A1981E2 		add	r1, r1, #163840
 1946 1770 183091E5 		ldr	r3, [r1, #24]
 1947 1774 013483E3 		orr	r3, r3, #16777216
 1948 1778 183081E5 		str	r3, [r1, #24]
 1949 177c 1C2091E5 		ldr	r2, [r1, #28]
 1950 1780 012482E3 		orr	r2, r2, #16777216
 1951 1784 1C2081E5 		str	r2, [r1, #28]
 1952 1788 FEFFFFEB 		bl	sys_time_init
 1953 178c FEFFFFEB 		bl	sys_time_periodic_init
 1954 1790 FEFFFFEB 		bl	sys_time_clock_init
 1955 1794 FEFFFFEB 		bl	ppm_init
 1956 1798 FEFFFFEB 		bl	pwm_init
 1957 179c FEFFFFEB 		bl	adc_init
 1958 17a0 FEFFFFEB 		bl	spi_init
 1959 17a4 FEFFFFEB 		bl	i2c_init
 1960 17a8 FEFFFFEB 		bl	ads8341_init
 1961 17ac BC359FE5 		ldr	r3, .L206+12
 1962 17b0 0040C3E5 		strb	r4, [r3, #0]
 1963 17b4 FEFFFFEB 		bl	bmp085_init
 1964 17b8 B4359FE5 		ldr	r3, .L206+16
 1965 17bc B4059FE5 		ldr	r0, .L206+20
 1966 17c0 0050C3E5 		strb	r5, [r3, #0]
 1967 17c4 FEFFFFEB 		bl	debug_message_buffer
 1968 17c8 FEFFFFEB 		bl	shutter_init
 1969 17cc 0400A0E1 		mov	r0, r4
 1970 17d0 FEFFFFEB 		bl	shutter_control
 1971 17d4 FEFFFFEB 		bl	debug_message_init
 1972 17d8 9C059FE5 		ldr	r0, .L206+24
 1973 17dc FEFFFFEB 		bl	debug_message_buffer
 1974 17e0 FEFFFFEB 		bl	eeprom_check_start
 1975 17e4 7A4984E2 		add	r4, r4, #1998848
 1976 17e8 474E84E2 		add	r4, r4, #1136
 1977 17ec 0F4084E2 		add	r4, r4, #15
 1978              	.L204:
 1979 17f0 FEFFFFEB 		bl	sys_time_clock_get_time_usec
 1980 17f4 000051E3 		cmp	r1, #0
 1981 17f8 0200008A 		bhi	.L102
 1982 17fc FBFFFF1A 		bne	.L204
 1983 1800 040050E1 		cmp	r0, r4
 1984 1804 F9FFFF9A 		bls	.L204
 1985              	.L102:
 1986 1808 1100A0E3 		mov	r0, #17
 1987 180c FEFFFFEB 		bl	led_on
 1988 1810 0050A0E3 		mov	r5, #0
 1989              	.L103:
 1990 1814 0000A0E3 		mov	r0, #0
 1991 1818 0110A0E3 		mov	r1, #1
 1992 181c FEFFFFEB 		bl	ads8341_read
 1993              	.L104:
 1994 1820 FEFFFFEB 		bl	spi_running
 1995 1824 004050E2 		subs	r4, r0, #0
 1996 1828 FCFFFF1A 		bne	.L104
 1997 182c 0110A0E3 		mov	r1, #1
 1998 1830 FEFFFFEB 		bl	ads8341_get_value
 1999 1834 0400A0E1 		mov	r0, r4
 2000 1838 0410A0E1 		mov	r1, r4
 2001 183c FEFFFFEB 		bl	ads8341_read
 2002              	.L106:
 2003 1840 FEFFFFEB 		bl	spi_running
 2004 1844 004050E2 		subs	r4, r0, #0
 2005 1848 FCFFFF1A 		bne	.L106
 2006 184c 0410A0E1 		mov	r1, r4
 2007 1850 FEFFFFEB 		bl	ads8341_get_value
 2008 1854 0400A0E1 		mov	r0, r4
 2009 1858 0210A0E3 		mov	r1, #2
 2010 185c FEFFFFEB 		bl	ads8341_read
 2011              	.L108:
 2012 1860 FEFFFFEB 		bl	spi_running
 2013 1864 004050E2 		subs	r4, r0, #0
 2014 1868 FCFFFF1A 		bne	.L108
 2015 186c 015085E2 		add	r5, r5, #1
 2016 1870 0210A0E3 		mov	r1, #2
 2017 1874 FEFFFFEB 		bl	ads8341_get_value
 2018 1878 FA0F55E3 		cmp	r5, #1000
 2019 187c E4FFFF1A 		bne	.L103
 2020 1880 1100A0E3 		mov	r0, #17
 2021 1884 FEFFFFEB 		bl	led_off
 2022 1888 FEFFFFEB 		bl	eeprom_check_ok
 2023 188c FF0010E3 		tst	r0, #255
 2024 1890 FE03000A 		beq	.L111
 2025 1894 FEFFFFEB 		bl	param_read_all
 2026 1898 E0049FE5 		ldr	r0, .L206+28
 2027 189c FEFFFFEB 		bl	debug_message_buffer
 2028 18a0 0E52A0E3 		mov	r5, #-536870912
 2029 18a4 015985E2 		add	r5, r5, #16384
 2030              	.L113:
 2031 18a8 FEFFFFEB 		bl	param_handler
 2032 18ac 083095E5 		ldr	r3, [r5, #8]
 2033 18b0 EA2D83E2 		add	r2, r3, #14976
 2034 18b4 182082E2 		add	r2, r2, #24
 2035              	.L114:
 2036 18b8 083095E5 		ldr	r3, [r5, #8]
 2037 18bc 030052E1 		cmp	r2, r3
 2038 18c0 FCFFFF8A 		bhi	.L114
 2039 18c4 014084E2 		add	r4, r4, #1
 2040 18c8 DE0054E3 		cmp	r4, #222
 2041 18cc F5FFFF1A 		bne	.L113
 2042              	.L116:
 2043 18d0 FEFFFFEB 		bl	hmc5843_init
 2044 18d4 FEFFFFEB 		bl	sca3100_init
 2045 18d8 CC149FE5 		ldr	r1, .L206+72
 2046 18dc 540291E5 		ldr	r0, [r1, #596]	@ float
 2047 18e0 FEFFFFEB 		bl	__fixunssfsi
 2048 18e4 C0349FE5 		ldr	r3, .L206+72
 2049 18e8 A8249FE5 		ldr	r2, .L206+52
 2050 18ec 0000C2E5 		strb	r0, [r2, #0]
 2051 18f0 580293E5 		ldr	r0, [r3, #600]	@ float
 2052 18f4 FEFFFFEB 		bl	__fixunssfsi
 2053 18f8 98149FE5 		ldr	r1, .L206+52
 2054 18fc 0100C1E5 		strb	r0, [r1, #1]
 2055 1900 0000A0E3 		mov	r0, #0
 2056 1904 FEFFFFEB 		bl	comm_init
 2057 1908 0100A0E3 		mov	r0, #1
 2058 190c FEFFFFEB 		bl	comm_init
 2059 1910 FEFFFFEB 		bl	communication_init
 2060 1914 90249FE5 		ldr	r2, .L206+72
 2061 1918 CC4392E5 		ldr	r4, [r2, #972]	@ float
 2062 191c 0400A0E1 		mov	r0, r4
 2063 1920 FEFFFFEB 		bl	__fixsfsi
 2064 1924 58349FE5 		ldr	r3, .L206+32
 2065 1928 9310C2E0 		smull	r1, r2, r3, r0
 2066 192c C00FA0E1 		mov	r0, r0, asr #31
 2067 1930 420160E0 		rsb	r0, r0, r2, asr #2
 2068 1934 FEFFFFEB 		bl	__floatsisf
 2069 1938 0010A0E1 		mov	r1, r0
 2070 193c 0400A0E1 		mov	r0, r4
 2071 1940 FEFFFFEB 		bl	__subsf3
 2072 1944 FEFFFFEB 		bl	__fixunssfsi
 2073 1948 38349FE5 		ldr	r3, .L206+36
 2074 194c 0000C3E5 		strb	r0, [r3, #0]
 2075 1950 FEFFFFEB 		bl	us_run_init
 2076 1954 0040A0E3 		mov	r4, #0
 2077              	.L117:
 2078 1958 5D0EA0E3 		mov	r0, #1488
 2079 195c 0410A0E1 		mov	r1, r4
 2080 1960 0C0080E2 		add	r0, r0, #12
 2081 1964 014084E2 		add	r4, r4, #1
 2082 1968 FEFFFFEB 		bl	pwm_set_channel
 2083 196c 090054E3 		cmp	r4, #9
 2084 1970 F8FFFF1A 		bne	.L117
 2085 1974 0500A0E3 		mov	r0, #5
 2086 1978 FEFFFFEB 		bl	adc_get_value
 2087 197c 0048A0E1 		mov	r4, r0, asl #16
 2088 1980 4448A0E1 		mov	r4, r4, asr #16
 2089 1984 0400A0E1 		mov	r0, r4
 2090 1988 FEFFFFEB 		bl	__floatsisf
 2091 198c 000054E3 		cmp	r4, #0
 2092 1990 14649FE5 		ldr	r6, .L206+72
 2093 1994 C80300BA 		blt	.L205
 2094              	.L119:
 2095 1998 FEFFFFEB 		bl	__extendsfdf2
 2096 199c 0F2D8FE2 		adr	r2, .L206
 2097 19a0 0C0092E8 		ldmia	r2, {r2-r3}
 2098 19a4 FEFFFFEB 		bl	__muldf3
 2099 19a8 FEFFFFEB 		bl	__fixunsdfsi
 2100 19ac 0140A0E3 		mov	r4, #1
 2101 19b0 1A3EA0E3 		mov	r3, #416
 2102 19b4 0250A0E3 		mov	r5, #2
 2103 19b8 B30086E1 		strh	r0, [r6, r3]	@ movhi
 2104 19bc 504186E5 		str	r4, [r6, #336]
 2105 19c0 5C0296E5 		ldr	r0, [r6, #604]	@ float
 2106 19c4 5C5186E5 		str	r5, [r6, #348]
 2107 19c8 FEFFFFEB 		bl	__fixunssfsi
 2108 19cc C8339FE5 		ldr	r3, .L206+56
 2109 19d0 0E20D3E5 		ldrb	r2, [r3, #14]	@ zero_extendqisi2
 2110 19d4 BC339FE5 		ldr	r3, .L206+52
 2111 19d8 8900CDE5 		strb	r0, [sp, #137]
 2112 19dc 01C0D3E5 		ldrb	ip, [r3, #1]	@ zero_extendqisi2
 2113 19e0 0010D3E5 		ldrb	r1, [r3, #0]	@ zero_extendqisi2
 2114 19e4 B0039FE5 		ldr	r0, .L206+56
 2115 19e8 04E082E0 		add	lr, r2, r4
 2116 19ec 0060A0E3 		mov	r6, #0
 2117 19f0 0330A0E3 		mov	r3, #3
 2118 19f4 87C0CDE5 		strb	ip, [sp, #135]
 2119 19f8 8A40CDE5 		strb	r4, [sp, #138]
 2120 19fc 8B50CDE5 		strb	r5, [sp, #139]
 2121 1a00 8430CDE5 		strb	r3, [sp, #132]
 2122 1a04 8610CDE5 		strb	r1, [sp, #134]
 2123 1a08 01C8A0E3 		mov	ip, #65536
 2124 1a0c 0EE0C0E5 		strb	lr, [r0, #14]
 2125 1a10 8860CDE5 		strb	r6, [sp, #136]
 2126 1a14 8520CDE5 		strb	r2, [sp, #133]
 2127 1a18 01C04CE2 		sub	ip, ip, #1
 2128 1a1c 84B08DE2 		add	fp, sp, #132
 2129              	.L120:
 2130 1a20 0B30D6E7 		ldrb	r3, [r6, fp]	@ zero_extendqisi2
 2131 1a24 0C3023E0 		eor	r3, r3, ip
 2132 1a28 FF3003E2 		and	r3, r3, #255
 2133 1a2c 033223E0 		eor	r3, r3, r3, asl #4
 2134 1a30 FF3003E2 		and	r3, r3, #255
 2135 1a34 0324A0E1 		mov	r2, r3, asl #8
 2136 1a38 2C2482E1 		orr	r2, r2, ip, lsr #8
 2137 1a3c 232222E0 		eor	r2, r2, r3, lsr #4
 2138 1a40 832122E0 		eor	r2, r2, r3, asl #3
 2139 1a44 016086E2 		add	r6, r6, #1
 2140 1a48 0228A0E1 		mov	r2, r2, asl #16
 2141 1a4c 080056E3 		cmp	r6, #8
 2142 1a50 22C8A0E1 		mov	ip, r2, lsr #16
 2143 1a54 F1FFFF1A 		bne	.L120
 2144 1a58 2C34A0E1 		mov	r3, ip, lsr #8
 2145 1a5c 0100A0E3 		mov	r0, #1
 2146 1a60 0B10A0E1 		mov	r1, fp
 2147 1a64 8931CDE5 		strb	r3, [sp, #393]
 2148 1a68 88C1CDE5 		strb	ip, [sp, #392]
 2149 1a6c AAFEFFEB 		bl	mavlink_send_uart
 2150 1a70 34139FE5 		ldr	r1, .L206+72
 2151 1a74 5C0291E5 		ldr	r0, [r1, #604]	@ float
 2152 1a78 FEFFFFEB 		bl	__fixunssfsi
 2153 1a7c 10239FE5 		ldr	r2, .L206+48
 2154 1a80 10339FE5 		ldr	r3, .L206+52
 2155 1a84 0EC0D2E5 		ldrb	ip, [r2, #14]	@ zero_extendqisi2
 2156 1a88 00E0D3E5 		ldrb	lr, [r3, #0]	@ zero_extendqisi2
 2157 1a8c 0140D3E5 		ldrb	r4, [r3, #1]	@ zero_extendqisi2
 2158 1a90 8900CDE5 		strb	r0, [sp, #137]
 2159 1a94 0130A0E3 		mov	r3, #1
 2160 1a98 0220A0E3 		mov	r2, #2
 2161 1a9c F0029FE5 		ldr	r0, .L206+48
 2162 1aa0 01508CE2 		add	r5, ip, #1
 2163 1aa4 8A30CDE5 		strb	r3, [sp, #138]
 2164 1aa8 0010A0E3 		mov	r1, #0
 2165 1aac 023083E0 		add	r3, r3, r2
 2166 1ab0 8B20CDE5 		strb	r2, [sp, #139]
 2167 1ab4 8430CDE5 		strb	r3, [sp, #132]
 2168 1ab8 86E0CDE5 		strb	lr, [sp, #134]
 2169 1abc 8740CDE5 		strb	r4, [sp, #135]
 2170 1ac0 0E50C0E5 		strb	r5, [r0, #14]
 2171 1ac4 85C0CDE5 		strb	ip, [sp, #133]
 2172 1ac8 8810CDE5 		strb	r1, [sp, #136]
 2173 1acc 01C8A0E3 		mov	ip, #65536
 2174 1ad0 01C04CE2 		sub	ip, ip, #1
 2175              	.L122:
 2176 1ad4 0B30D1E7 		ldrb	r3, [r1, fp]	@ zero_extendqisi2
 2177 1ad8 0C3023E0 		eor	r3, r3, ip
 2178 1adc FF3003E2 		and	r3, r3, #255
 2179 1ae0 033223E0 		eor	r3, r3, r3, asl #4
 2180 1ae4 FF3003E2 		and	r3, r3, #255
 2181 1ae8 0324A0E1 		mov	r2, r3, asl #8
 2182 1aec 2C2482E1 		orr	r2, r2, ip, lsr #8
 2183 1af0 232222E0 		eor	r2, r2, r3, lsr #4
 2184 1af4 832122E0 		eor	r2, r2, r3, asl #3
 2185 1af8 011081E2 		add	r1, r1, #1
 2186 1afc 0228A0E1 		mov	r2, r2, asl #16
 2187 1b00 080051E3 		cmp	r1, #8
 2188 1b04 22C8A0E1 		mov	ip, r2, lsr #16
 2189 1b08 F1FFFF1A 		bne	.L122
 2190 1b0c 2C34A0E1 		mov	r3, ip, lsr #8
 2191 1b10 0000A0E3 		mov	r0, #0
 2192 1b14 0B10A0E1 		mov	r1, fp
 2193 1b18 88C1CDE5 		strb	ip, [sp, #392]
 2194 1b1c 8931CDE5 		strb	r3, [sp, #393]
 2195 1b20 7DFEFFEB 		bl	mavlink_send_uart
 2196 1b24 80129FE5 		ldr	r1, .L206+72
 2197 1b28 1A3EA0E3 		mov	r3, #416
 2198 1b2c 023083E2 		add	r3, r3, #2
 2199 1b30 1A2EA0E3 		mov	r2, #416
 2200 1b34 B34091E1 		ldrh	r4, [r1, r3]
 2201 1b38 B25091E1 		ldrh	r5, [r1, r2]
 2202 1b3c 5431D1E5 		ldrb	r3, [r1, #340]	@ zero_extendqisi2
 2203 1b40 5021D1E5 		ldrb	r2, [r1, #336]	@ zero_extendqisi2
 2204 1b44 5C01D1E5 		ldrb	r0, [r1, #348]	@ zero_extendqisi2
 2205 1b48 6461D1E5 		ldrb	r6, [r1, #356]	@ zero_extendqisi2
 2206 1b4c 44208DE5 		str	r2, [sp, #68]
 2207 1b50 48308DE5 		str	r3, [sp, #72]
 2208 1b54 4C008DE5 		str	r0, [sp, #76]
 2209 1b58 FEFFFFEB 		bl	communication_get_uart_drop_rate
 2210 1b5c 30129FE5 		ldr	r1, .L206+48
 2211 1b60 30329FE5 		ldr	r3, .L206+52
 2212 1b64 0E20D1E5 		ldrb	r2, [r1, #14]	@ zero_extendqisi2
 2213 1b68 01C0D3E5 		ldrb	ip, [r3, #1]	@ zero_extendqisi2
 2214 1b6c 0010D3E5 		ldrb	r1, [r3, #0]	@ zero_extendqisi2
 2215 1b70 013082E2 		add	r3, r2, #1
 2216 1b74 40308DE5 		str	r3, [sp, #64]
 2217 1b78 2230A0E3 		mov	r3, #34
 2218 1b7c 8830CDE5 		strb	r3, [sp, #136]
 2219 1b80 44309DE5 		ldr	r3, [sp, #68]
 2220 1b84 8930CDE5 		strb	r3, [sp, #137]
 2221 1b88 48309DE5 		ldr	r3, [sp, #72]
 2222 1b8c 0008A0E1 		mov	r0, r0, asl #16
 2223 1b90 208CA0E1 		mov	r8, r0, lsr #24
 2224 1b94 8A30CDE5 		strb	r3, [sp, #138]
 2225 1b98 2008A0E1 		mov	r0, r0, lsr #16
 2226 1b9c 4C309DE5 		ldr	r3, [sp, #76]
 2227 1ba0 0448A0E1 		mov	r4, r4, asl #16
 2228 1ba4 0558A0E1 		mov	r5, r5, asl #16
 2229 1ba8 0668A0E1 		mov	r6, r6, asl #16
 2230 1bac 9300CDE5 		strb	r0, [sp, #147]
 2231 1bb0 8610CDE5 		strb	r1, [sp, #134]
 2232 1bb4 D8019FE5 		ldr	r0, .L206+48
 2233 1bb8 40109DE5 		ldr	r1, [sp, #64]
 2234 1bbc 24ECA0E1 		mov	lr, r4, lsr #24
 2235 1bc0 259CA0E1 		mov	r9, r5, lsr #24
 2236 1bc4 26ACA0E1 		mov	sl, r6, lsr #24
 2237 1bc8 8B30CDE5 		strb	r3, [sp, #139]
 2238 1bcc 2448A0E1 		mov	r4, r4, lsr #16
 2239 1bd0 2558A0E1 		mov	r5, r5, lsr #16
 2240 1bd4 2668A0E1 		mov	r6, r6, lsr #16
 2241 1bd8 0B30A0E3 		mov	r3, #11
 2242 1bdc 87C0CDE5 		strb	ip, [sp, #135]
 2243 1be0 8CE0CDE5 		strb	lr, [sp, #140]
 2244 1be4 8D40CDE5 		strb	r4, [sp, #141]
 2245 1be8 8E90CDE5 		strb	r9, [sp, #142]
 2246 1bec 8F50CDE5 		strb	r5, [sp, #143]
 2247 1bf0 90A0CDE5 		strb	sl, [sp, #144]
 2248 1bf4 9160CDE5 		strb	r6, [sp, #145]
 2249 1bf8 9280CDE5 		strb	r8, [sp, #146]
 2250 1bfc 8430CDE5 		strb	r3, [sp, #132]
 2251 1c00 01C8A0E3 		mov	ip, #65536
 2252 1c04 0E10C0E5 		strb	r1, [r0, #14]
 2253 1c08 8520CDE5 		strb	r2, [sp, #133]
 2254 1c0c 01C04CE2 		sub	ip, ip, #1
 2255 1c10 0010A0E3 		mov	r1, #0
 2256              	.L124:
 2257 1c14 0B30D1E7 		ldrb	r3, [r1, fp]	@ zero_extendqisi2
 2258 1c18 0C3023E0 		eor	r3, r3, ip
 2259 1c1c FF3003E2 		and	r3, r3, #255
 2260 1c20 033223E0 		eor	r3, r3, r3, asl #4
 2261 1c24 FF3003E2 		and	r3, r3, #255
 2262 1c28 0324A0E1 		mov	r2, r3, asl #8
 2263 1c2c 2C2482E1 		orr	r2, r2, ip, lsr #8
 2264 1c30 232222E0 		eor	r2, r2, r3, lsr #4
 2265 1c34 832122E0 		eor	r2, r2, r3, asl #3
 2266 1c38 011081E2 		add	r1, r1, #1
 2267 1c3c 0228A0E1 		mov	r2, r2, asl #16
 2268 1c40 100051E3 		cmp	r1, #16
 2269 1c44 22C8A0E1 		mov	ip, r2, lsr #16
 2270 1c48 F1FFFF1A 		bne	.L124
 2271 1c4c 2C34A0E1 		mov	r3, ip, lsr #8
 2272 1c50 0000A0E3 		mov	r0, #0
 2273 1c54 0B10A0E1 		mov	r1, fp
 2274 1c58 88C1CDE5 		strb	ip, [sp, #392]
 2275 1c5c 8931CDE5 		strb	r3, [sp, #393]
 2276 1c60 2DFEFFEB 		bl	mavlink_send_uart
 2277 1c64 40219FE5 		ldr	r2, .L206+72
 2278 1c68 1A3EA0E3 		mov	r3, #416
 2279 1c6c 023083E2 		add	r3, r3, #2
 2280 1c70 B34092E1 		ldrh	r4, [r2, r3]
 2281 1c74 30319FE5 		ldr	r3, .L206+72
 2282 1c78 1A2EA0E3 		mov	r2, #416
 2283 1c7c B25093E1 		ldrh	r5, [r3, r2]
 2284 1c80 5411D3E5 		ldrb	r1, [r3, #340]	@ zero_extendqisi2
 2285 1c84 5C21D3E5 		ldrb	r2, [r3, #348]	@ zero_extendqisi2
 2286 1c88 5001D3E5 		ldrb	r0, [r3, #336]	@ zero_extendqisi2
 2287 1c8c 6461D3E5 		ldrb	r6, [r3, #356]	@ zero_extendqisi2
 2288 1c90 60108DE5 		str	r1, [sp, #96]
 2289 1c94 50208DE5 		str	r2, [sp, #80]
 2290 1c98 74008DE5 		str	r0, [sp, #116]
 2291 1c9c FEFFFFEB 		bl	communication_get_uart_drop_rate
 2292 1ca0 F4309FE5 		ldr	r3, .L206+56
 2293 1ca4 0E20D3E5 		ldrb	r2, [r3, #14]	@ zero_extendqisi2
 2294 1ca8 E8309FE5 		ldr	r3, .L206+52
 2295 1cac 0008A0E1 		mov	r0, r0, asl #16
 2296 1cb0 0010D3E5 		ldrb	r1, [r3, #0]	@ zero_extendqisi2
 2297 1cb4 01C0D3E5 		ldrb	ip, [r3, #1]	@ zero_extendqisi2
 2298 1cb8 203CA0E1 		mov	r3, r0, lsr #24
 2299 1cbc 3C308DE5 		str	r3, [sp, #60]
 2300 1cc0 013082E2 		add	r3, r2, #1
 2301 1cc4 38308DE5 		str	r3, [sp, #56]
 2302 1cc8 2230A0E3 		mov	r3, #34
 2303 1ccc 8830CDE5 		strb	r3, [sp, #136]
 2304 1cd0 74309DE5 		ldr	r3, [sp, #116]
 2305 1cd4 8930CDE5 		strb	r3, [sp, #137]
 2306 1cd8 60309DE5 		ldr	r3, [sp, #96]
 2307 1cdc 8A30CDE5 		strb	r3, [sp, #138]
 2308 1ce0 50309DE5 		ldr	r3, [sp, #80]
 2309 1ce4 2008A0E1 		mov	r0, r0, lsr #16
 2310 1ce8 8B30CDE5 		strb	r3, [sp, #139]
 2311 1cec 3C309DE5 		ldr	r3, [sp, #60]
 2312 1cf0 0448A0E1 		mov	r4, r4, asl #16
 2313 1cf4 0558A0E1 		mov	r5, r5, asl #16
 2314 1cf8 0668A0E1 		mov	r6, r6, asl #16
 2315 1cfc 9300CDE5 		strb	r0, [sp, #147]
 2316 1d00 8610CDE5 		strb	r1, [sp, #134]
 2317 1d04 90009FE5 		ldr	r0, .L206+56
 2318 1d08 38109DE5 		ldr	r1, [sp, #56]
 2319 1d0c 24ECA0E1 		mov	lr, r4, lsr #24
 2320 1d10 259CA0E1 		mov	r9, r5, lsr #24
 2321 1d14 267CA0E1 		mov	r7, r6, lsr #24
 2322 1d18 9230CDE5 		strb	r3, [sp, #146]
 2323 1d1c 2448A0E1 		mov	r4, r4, lsr #16
 2324 1d20 2558A0E1 		mov	r5, r5, lsr #16
 2325 1d24 2668A0E1 		mov	r6, r6, lsr #16
 2326 1d28 0B30A0E3 		mov	r3, #11
 2327 1d2c 87C0CDE5 		strb	ip, [sp, #135]
 2328 1d30 8CE0CDE5 		strb	lr, [sp, #140]
 2329 1d34 8D40CDE5 		strb	r4, [sp, #141]
 2330 1d38 8E90CDE5 		strb	r9, [sp, #142]
 2331 1d3c 8F50CDE5 		strb	r5, [sp, #143]
 2332 1d40 9070CDE5 		strb	r7, [sp, #144]
 2333 1d44 9160CDE5 		strb	r6, [sp, #145]
 2334 1d48 8430CDE5 		strb	r3, [sp, #132]
 2335 1d4c 01C8A0E3 		mov	ip, #65536
 2336 1d50 0E10C0E5 		strb	r1, [r0, #14]
 2337 1d54 8520CDE5 		strb	r2, [sp, #133]
 2338 1d58 01C04CE2 		sub	ip, ip, #1
 2339 1d5c 0010A0E3 		mov	r1, #0
 2340 1d60 130000EA 		b	.L207
 2341              	.L208:
 2342              		.align	2
 2343              	.L206:
 2344 1d64 F5282F40 		.word	1076832501
 2345 1d68 295C8FC2 		.word	-1030792151
 2346 1d6c 00000000 		.word	reset
 2347 1d70 00000000 		.word	mag_axis
 2348 1d74 00000000 		.word	bmp085_measurement_mode
 2349 1d78 40060000 		.word	.LC108
 2350 1d7c 54060000 		.word	.LC109
 2351 1d80 74060000 		.word	.LC110
 2352 1d84 67666666 		.word	1717986919
 2353 1d88 00000000 		.word	gps_device_mode
 2354 1d8c DC060000 		.word	.LC112
 2355 1d90 F8060000 		.word	.LC113
 2356 1d94 0C000000 		.word	m_mavlink_status.2147
 2357 1d98 00000000 		.word	mavlink_system
 2358 1d9c 20000000 		.word	m_mavlink_status.2147+20
 2359 1da0 10070000 		.word	.LC114
 2360 1da4 3C070000 		.word	.LC115
 2361 1da8 A8060000 		.word	.LC111
 2362 1dac 00000000 		.word	global_data
 2363 1db0 60070000 		.word	.LC116
 2364              	.L207:
 2365              	.L126:
 2366 1db4 0B30D1E7 		ldrb	r3, [r1, fp]	@ zero_extendqisi2
 2367 1db8 0C3023E0 		eor	r3, r3, ip
 2368 1dbc FF3003E2 		and	r3, r3, #255
 2369 1dc0 033223E0 		eor	r3, r3, r3, asl #4
 2370 1dc4 FF3003E2 		and	r3, r3, #255
 2371 1dc8 0324A0E1 		mov	r2, r3, asl #8
 2372 1dcc 2C2482E1 		orr	r2, r2, ip, lsr #8
 2373 1dd0 232222E0 		eor	r2, r2, r3, lsr #4
 2374 1dd4 832122E0 		eor	r2, r2, r3, asl #3
 2375 1dd8 011081E2 		add	r1, r1, #1
 2376 1ddc 0228A0E1 		mov	r2, r2, asl #16
 2377 1de0 100051E3 		cmp	r1, #16
 2378 1de4 22C8A0E1 		mov	ip, r2, lsr #16
 2379 1de8 F1FFFF1A 		bne	.L126
 2380 1dec 2C34A0E1 		mov	r3, ip, lsr #8
 2381 1df0 0100A0E3 		mov	r0, #1
 2382 1df4 0B10A0E1 		mov	r1, fp
 2383 1df8 8931CDE5 		strb	r3, [sp, #393]
 2384 1dfc 88C1CDE5 		strb	ip, [sp, #392]
 2385 1e00 C5FDFFEB 		bl	mavlink_send_uart
 2386 1e04 0020A0E3 		mov	r2, #0
 2387 1e08 A0218DE5 		str	r2, [sp, #416]	@ float
 2388 1e0c 9C218DE5 		str	r2, [sp, #412]	@ float
 2389 1e10 67CF8DE2 		add	ip, sp, #412
 2390 1e14 03009CE8 		ldmia	ip, {r0, r1}
 2391 1e18 3133A0E3 		mov	r3, #-1006632960
 2392 1e1c 7A3883E2 		add	r3, r3, #7995392
 2393 1e20 03008DE8 		stmia	sp, {r0, r1}
 2394 1e24 94318DE5 		str	r3, [sp, #404]	@ float
 2395 1e28 8C218DE5 		str	r2, [sp, #396]	@ float
 2396 1e2c 90218DE5 		str	r2, [sp, #400]	@ float
 2397 1e30 FE35A0E3 		mov	r3, #1065353216
 2398 1e34 63CF8DE2 		add	ip, sp, #396
 2399 1e38 98318DE5 		str	r3, [sp, #408]	@ float
 2400 1e3c 07009CE8 		ldmia	ip, {r0, r1, r2}
 2401 1e40 98319DE5 		ldr	r3, [sp, #408]
 2402 1e44 FEFFFFEB 		bl	attitude_observer_init
 2403 1e48 C4001FE5 		ldr	r0, .L206+40
 2404 1e4c FEFFFFEB 		bl	debug_message_buffer
 2405 1e50 1100A0E3 		mov	r0, #17
 2406 1e54 FEFFFFEB 		bl	led_on
 2407 1e58 B4201FE5 		ldr	r2, .L206+72
 2408 1e5c 5C0292E5 		ldr	r0, [r2, #604]	@ float
 2409 1e60 FEFFFFEB 		bl	__fixunssfsi
 2410 1e64 D0301FE5 		ldr	r3, .L206+56
 2411 1e68 D8101FE5 		ldr	r1, .L206+52
 2412 1e6c 0EC0D3E5 		ldrb	ip, [r3, #14]	@ zero_extendqisi2
 2413 1e70 0220A0E3 		mov	r2, #2
 2414 1e74 0130A0E3 		mov	r3, #1
 2415 1e78 00E0D1E5 		ldrb	lr, [r1, #0]	@ zero_extendqisi2
 2416 1e7c 0140D1E5 		ldrb	r4, [r1, #1]	@ zero_extendqisi2
 2417 1e80 8A30CDE5 		strb	r3, [sp, #138]
 2418 1e84 8B20CDE5 		strb	r2, [sp, #139]
 2419 1e88 023083E0 		add	r3, r3, r2
 2420 1e8c F8201FE5 		ldr	r2, .L206+56
 2421 1e90 01508CE2 		add	r5, ip, #1
 2422 1e94 0010A0E3 		mov	r1, #0
 2423 1e98 8900CDE5 		strb	r0, [sp, #137]
 2424 1e9c 8430CDE5 		strb	r3, [sp, #132]
 2425 1ea0 86E0CDE5 		strb	lr, [sp, #134]
 2426 1ea4 8740CDE5 		strb	r4, [sp, #135]
 2427 1ea8 0E50C2E5 		strb	r5, [r2, #14]
 2428 1eac 85C0CDE5 		strb	ip, [sp, #133]
 2429 1eb0 8810CDE5 		strb	r1, [sp, #136]
 2430 1eb4 01C8A0E3 		mov	ip, #65536
 2431 1eb8 01C04CE2 		sub	ip, ip, #1
 2432              	.L128:
 2433 1ebc 0B30D1E7 		ldrb	r3, [r1, fp]	@ zero_extendqisi2
 2434 1ec0 0C3023E0 		eor	r3, r3, ip
 2435 1ec4 FF3003E2 		and	r3, r3, #255
 2436 1ec8 033223E0 		eor	r3, r3, r3, asl #4
 2437 1ecc FF3003E2 		and	r3, r3, #255
 2438 1ed0 0324A0E1 		mov	r2, r3, asl #8
 2439 1ed4 2C2482E1 		orr	r2, r2, ip, lsr #8
 2440 1ed8 232222E0 		eor	r2, r2, r3, lsr #4
 2441 1edc 832122E0 		eor	r2, r2, r3, asl #3
 2442 1ee0 011081E2 		add	r1, r1, #1
 2443 1ee4 0228A0E1 		mov	r2, r2, asl #16
 2444 1ee8 080051E3 		cmp	r1, #8
 2445 1eec 22C8A0E1 		mov	ip, r2, lsr #16
 2446 1ef0 F1FFFF1A 		bne	.L128
 2447 1ef4 2C34A0E1 		mov	r3, ip, lsr #8
 2448 1ef8 0B10A0E1 		mov	r1, fp
 2449 1efc 0100A0E3 		mov	r0, #1
 2450 1f00 88C1CDE5 		strb	ip, [sp, #392]
 2451 1f04 8931CDE5 		strb	r3, [sp, #393]
 2452 1f08 83FDFFEB 		bl	mavlink_send_uart
 2453 1f0c 68311FE5 		ldr	r3, .L206+72
 2454 1f10 5C0293E5 		ldr	r0, [r3, #604]	@ float
 2455 1f14 FEFFFFEB 		bl	__fixunssfsi
 2456 1f18 88211FE5 		ldr	r2, .L206+52
 2457 1f1c 90111FE5 		ldr	r1, .L206+48
 2458 1f20 00E0D2E5 		ldrb	lr, [r2, #0]	@ zero_extendqisi2
 2459 1f24 0140D2E5 		ldrb	r4, [r2, #1]	@ zero_extendqisi2
 2460 1f28 0130A0E3 		mov	r3, #1
 2461 1f2c 0220A0E3 		mov	r2, #2
 2462 1f30 0EC0D1E5 		ldrb	ip, [r1, #14]	@ zero_extendqisi2
 2463 1f34 8A30CDE5 		strb	r3, [sp, #138]
 2464 1f38 023083E0 		add	r3, r3, r2
 2465 1f3c 8430CDE5 		strb	r3, [sp, #132]
 2466 1f40 B4311FE5 		ldr	r3, .L206+48
 2467 1f44 01508CE2 		add	r5, ip, #1
 2468 1f48 0010A0E3 		mov	r1, #0
 2469 1f4c 8900CDE5 		strb	r0, [sp, #137]
 2470 1f50 8B20CDE5 		strb	r2, [sp, #139]
 2471 1f54 86E0CDE5 		strb	lr, [sp, #134]
 2472 1f58 8740CDE5 		strb	r4, [sp, #135]
 2473 1f5c 0E50C3E5 		strb	r5, [r3, #14]
 2474 1f60 85C0CDE5 		strb	ip, [sp, #133]
 2475 1f64 8810CDE5 		strb	r1, [sp, #136]
 2476 1f68 01C8A0E3 		mov	ip, #65536
 2477 1f6c 01C04CE2 		sub	ip, ip, #1
 2478              	.L130:
 2479 1f70 0B30D1E7 		ldrb	r3, [r1, fp]	@ zero_extendqisi2
 2480 1f74 0C3023E0 		eor	r3, r3, ip
 2481 1f78 FF3003E2 		and	r3, r3, #255
 2482 1f7c 033223E0 		eor	r3, r3, r3, asl #4
 2483 1f80 FF3003E2 		and	r3, r3, #255
 2484 1f84 0324A0E1 		mov	r2, r3, asl #8
 2485 1f88 2C2482E1 		orr	r2, r2, ip, lsr #8
 2486 1f8c 232222E0 		eor	r2, r2, r3, lsr #4
 2487 1f90 832122E0 		eor	r2, r2, r3, asl #3
 2488 1f94 011081E2 		add	r1, r1, #1
 2489 1f98 0228A0E1 		mov	r2, r2, asl #16
 2490 1f9c 080051E3 		cmp	r1, #8
 2491 1fa0 22C8A0E1 		mov	ip, r2, lsr #16
 2492 1fa4 F1FFFF1A 		bne	.L130
 2493 1fa8 2C34A0E1 		mov	r3, ip, lsr #8
 2494 1fac 0000A0E3 		mov	r0, #0
 2495 1fb0 4D1081E2 		add	r1, r1, #77
 2496 1fb4 8931CDE5 		strb	r3, [sp, #393]
 2497 1fb8 88C1CDE5 		strb	ip, [sp, #392]
 2498 1fbc FEFFFFEB 		bl	comm_send_ch
 2499 1fc0 0000A0E3 		mov	r0, #0
 2500 1fc4 8410DDE5 		ldrb	r1, [sp, #132]	@ zero_extendqisi2
 2501 1fc8 FEFFFFEB 		bl	comm_send_ch
 2502 1fcc 0000A0E3 		mov	r0, #0
 2503 1fd0 8510DDE5 		ldrb	r1, [sp, #133]	@ zero_extendqisi2
 2504 1fd4 FEFFFFEB 		bl	comm_send_ch
 2505 1fd8 0000A0E3 		mov	r0, #0
 2506 1fdc 8610DDE5 		ldrb	r1, [sp, #134]	@ zero_extendqisi2
 2507 1fe0 FEFFFFEB 		bl	comm_send_ch
 2508 1fe4 0000A0E3 		mov	r0, #0
 2509 1fe8 8710DDE5 		ldrb	r1, [sp, #135]	@ zero_extendqisi2
 2510 1fec FEFFFFEB 		bl	comm_send_ch
 2511 1ff0 0000A0E3 		mov	r0, #0
 2512 1ff4 8810DDE5 		ldrb	r1, [sp, #136]	@ zero_extendqisi2
 2513 1ff8 FEFFFFEB 		bl	comm_send_ch
 2514 1ffc 8430DDE5 		ldrb	r3, [sp, #132]	@ zero_extendqisi2
 2515 2000 000053E3 		cmp	r3, #0
 2516 2004 0B00000A 		beq	.L132
 2517 2008 0040A0E3 		mov	r4, #0
 2518              	.L134:
 2519 200c 690F8DE2 		add	r0, sp, #420
 2520 2010 043080E0 		add	r3, r0, r4
 2521 2014 1B1153E5 		ldrb	r1, [r3, #-283]	@ zero_extendqisi2
 2522 2018 0000A0E3 		mov	r0, #0
 2523 201c FEFFFFEB 		bl	comm_send_ch
 2524 2020 013084E2 		add	r3, r4, #1
 2525 2024 0338A0E1 		mov	r3, r3, asl #16
 2526 2028 8420DDE5 		ldrb	r2, [sp, #132]	@ zero_extendqisi2
 2527 202c 2348A0E1 		mov	r4, r3, lsr #16
 2528 2030 040052E1 		cmp	r2, r4
 2529 2034 F4FFFF8A 		bhi	.L134
 2530              	.L132:
 2531 2038 0000A0E3 		mov	r0, #0
 2532 203c 8811DDE5 		ldrb	r1, [sp, #392]	@ zero_extendqisi2
 2533 2040 FEFFFFEB 		bl	comm_send_ch
 2534 2044 0000A0E3 		mov	r0, #0
 2535 2048 8911DDE5 		ldrb	r1, [sp, #393]	@ zero_extendqisi2
 2536 204c FEFFFFEB 		bl	comm_send_ch
 2537 2050 AC121FE5 		ldr	r1, .L206+72
 2538 2054 1A3EA0E3 		mov	r3, #416
 2539 2058 023083E2 		add	r3, r3, #2
 2540 205c 1A2EA0E3 		mov	r2, #416
 2541 2060 B34091E1 		ldrh	r4, [r1, r3]
 2542 2064 B25091E1 		ldrh	r5, [r1, r2]
 2543 2068 5431D1E5 		ldrb	r3, [r1, #340]	@ zero_extendqisi2
 2544 206c 5021D1E5 		ldrb	r2, [r1, #336]	@ zero_extendqisi2
 2545 2070 5C01D1E5 		ldrb	r0, [r1, #348]	@ zero_extendqisi2
 2546 2074 6461D1E5 		ldrb	r6, [r1, #356]	@ zero_extendqisi2
 2547 2078 78208DE5 		str	r2, [sp, #120]
 2548 207c 64308DE5 		str	r3, [sp, #100]
 2549 2080 54008DE5 		str	r0, [sp, #84]
 2550 2084 FEFFFFEB 		bl	communication_get_uart_drop_rate
 2551 2088 F8321FE5 		ldr	r3, .L206+52
 2552 208c 00131FE5 		ldr	r1, .L206+48
 2553 2090 0668A0E1 		mov	r6, r6, asl #16
 2554 2094 0E20D1E5 		ldrb	r2, [r1, #14]	@ zero_extendqisi2
 2555 2098 01C0D3E5 		ldrb	ip, [r3, #1]	@ zero_extendqisi2
 2556 209c 0010D3E5 		ldrb	r1, [r3, #0]	@ zero_extendqisi2
 2557 20a0 0008A0E1 		mov	r0, r0, asl #16
 2558 20a4 263CA0E1 		mov	r3, r6, lsr #24
 2559 20a8 34308DE5 		str	r3, [sp, #52]
 2560 20ac 203CA0E1 		mov	r3, r0, lsr #24
 2561 20b0 30308DE5 		str	r3, [sp, #48]
 2562 20b4 013082E2 		add	r3, r2, #1
 2563 20b8 2C308DE5 		str	r3, [sp, #44]
 2564 20bc 2230A0E3 		mov	r3, #34
 2565 20c0 8830CDE5 		strb	r3, [sp, #136]
 2566 20c4 78309DE5 		ldr	r3, [sp, #120]
 2567 20c8 8930CDE5 		strb	r3, [sp, #137]
 2568 20cc 64309DE5 		ldr	r3, [sp, #100]
 2569 20d0 8A30CDE5 		strb	r3, [sp, #138]
 2570 20d4 54309DE5 		ldr	r3, [sp, #84]
 2571 20d8 8B30CDE5 		strb	r3, [sp, #139]
 2572 20dc 34309DE5 		ldr	r3, [sp, #52]
 2573 20e0 2008A0E1 		mov	r0, r0, lsr #16
 2574 20e4 9030CDE5 		strb	r3, [sp, #144]
 2575 20e8 30309DE5 		ldr	r3, [sp, #48]
 2576 20ec 0448A0E1 		mov	r4, r4, asl #16
 2577 20f0 0558A0E1 		mov	r5, r5, asl #16
 2578 20f4 9300CDE5 		strb	r0, [sp, #147]
 2579 20f8 8610CDE5 		strb	r1, [sp, #134]
 2580 20fc 70031FE5 		ldr	r0, .L206+48
 2581 2100 2C109DE5 		ldr	r1, [sp, #44]
 2582 2104 24ECA0E1 		mov	lr, r4, lsr #24
 2583 2108 259CA0E1 		mov	r9, r5, lsr #24
 2584 210c 9230CDE5 		strb	r3, [sp, #146]
 2585 2110 2448A0E1 		mov	r4, r4, lsr #16
 2586 2114 2558A0E1 		mov	r5, r5, lsr #16
 2587 2118 2668A0E1 		mov	r6, r6, lsr #16
 2588 211c 0B30A0E3 		mov	r3, #11
 2589 2120 87C0CDE5 		strb	ip, [sp, #135]
 2590 2124 8CE0CDE5 		strb	lr, [sp, #140]
 2591 2128 8D40CDE5 		strb	r4, [sp, #141]
 2592 212c 8E90CDE5 		strb	r9, [sp, #142]
 2593 2130 8F50CDE5 		strb	r5, [sp, #143]
 2594 2134 9160CDE5 		strb	r6, [sp, #145]
 2595 2138 8430CDE5 		strb	r3, [sp, #132]
 2596 213c 01C8A0E3 		mov	ip, #65536
 2597 2140 0E10C0E5 		strb	r1, [r0, #14]
 2598 2144 8520CDE5 		strb	r2, [sp, #133]
 2599 2148 01C04CE2 		sub	ip, ip, #1
 2600 214c 0010A0E3 		mov	r1, #0
 2601              	.L135:
 2602 2150 0B30D1E7 		ldrb	r3, [r1, fp]	@ zero_extendqisi2
 2603 2154 0C3023E0 		eor	r3, r3, ip
 2604 2158 FF3003E2 		and	r3, r3, #255
 2605 215c 033223E0 		eor	r3, r3, r3, asl #4
 2606 2160 FF3003E2 		and	r3, r3, #255
 2607 2164 0324A0E1 		mov	r2, r3, asl #8
 2608 2168 2C2482E1 		orr	r2, r2, ip, lsr #8
 2609 216c 232222E0 		eor	r2, r2, r3, lsr #4
 2610 2170 832122E0 		eor	r2, r2, r3, asl #3
 2611 2174 011081E2 		add	r1, r1, #1
 2612 2178 0228A0E1 		mov	r2, r2, asl #16
 2613 217c 100051E3 		cmp	r1, #16
 2614 2180 22C8A0E1 		mov	ip, r2, lsr #16
 2615 2184 F1FFFF1A 		bne	.L135
 2616 2188 2C34A0E1 		mov	r3, ip, lsr #8
 2617 218c 0000A0E3 		mov	r0, #0
 2618 2190 0B10A0E1 		mov	r1, fp
 2619 2194 88C1CDE5 		strb	ip, [sp, #392]
 2620 2198 8931CDE5 		strb	r3, [sp, #393]
 2621 219c DEFCFFEB 		bl	mavlink_send_uart
 2622 21a0 FC231FE5 		ldr	r2, .L206+72
 2623 21a4 1A3EA0E3 		mov	r3, #416
 2624 21a8 023083E2 		add	r3, r3, #2
 2625 21ac B34092E1 		ldrh	r4, [r2, r3]
 2626 21b0 0C341FE5 		ldr	r3, .L206+72
 2627 21b4 1A2EA0E3 		mov	r2, #416
 2628 21b8 B25093E1 		ldrh	r5, [r3, r2]
 2629 21bc 5411D3E5 		ldrb	r1, [r3, #340]	@ zero_extendqisi2
 2630 21c0 5C21D3E5 		ldrb	r2, [r3, #348]	@ zero_extendqisi2
 2631 21c4 5001D3E5 		ldrb	r0, [r3, #336]	@ zero_extendqisi2
 2632 21c8 6461D3E5 		ldrb	r6, [r3, #356]	@ zero_extendqisi2
 2633 21cc 68108DE5 		str	r1, [sp, #104]
 2634 21d0 58208DE5 		str	r2, [sp, #88]
 2635 21d4 7C008DE5 		str	r0, [sp, #124]
 2636 21d8 FEFFFFEB 		bl	communication_get_uart_drop_rate
 2637 21dc 48341FE5 		ldr	r3, .L206+56
 2638 21e0 0E20D3E5 		ldrb	r2, [r3, #14]	@ zero_extendqisi2
 2639 21e4 54341FE5 		ldr	r3, .L206+52
 2640 21e8 0668A0E1 		mov	r6, r6, asl #16
 2641 21ec 0010D3E5 		ldrb	r1, [r3, #0]	@ zero_extendqisi2
 2642 21f0 01C0D3E5 		ldrb	ip, [r3, #1]	@ zero_extendqisi2
 2643 21f4 0008A0E1 		mov	r0, r0, asl #16
 2644 21f8 263CA0E1 		mov	r3, r6, lsr #24
 2645 21fc 28308DE5 		str	r3, [sp, #40]
 2646 2200 203CA0E1 		mov	r3, r0, lsr #24
 2647 2204 24308DE5 		str	r3, [sp, #36]
 2648 2208 013082E2 		add	r3, r2, #1
 2649 220c 20308DE5 		str	r3, [sp, #32]
 2650 2210 2230A0E3 		mov	r3, #34
 2651 2214 8830CDE5 		strb	r3, [sp, #136]
 2652 2218 7C309DE5 		ldr	r3, [sp, #124]
 2653 221c 8930CDE5 		strb	r3, [sp, #137]
 2654 2220 68309DE5 		ldr	r3, [sp, #104]
 2655 2224 8A30CDE5 		strb	r3, [sp, #138]
 2656 2228 58309DE5 		ldr	r3, [sp, #88]
 2657 222c 8B30CDE5 		strb	r3, [sp, #139]
 2658 2230 28309DE5 		ldr	r3, [sp, #40]
 2659 2234 2008A0E1 		mov	r0, r0, lsr #16
 2660 2238 9030CDE5 		strb	r3, [sp, #144]
 2661 223c 24309DE5 		ldr	r3, [sp, #36]
 2662 2240 0448A0E1 		mov	r4, r4, asl #16
 2663 2244 0558A0E1 		mov	r5, r5, asl #16
 2664 2248 9300CDE5 		strb	r0, [sp, #147]
 2665 224c 8610CDE5 		strb	r1, [sp, #134]
 2666 2250 BC041FE5 		ldr	r0, .L206+56
 2667 2254 20109DE5 		ldr	r1, [sp, #32]
 2668 2258 24ECA0E1 		mov	lr, r4, lsr #24
 2669 225c 259CA0E1 		mov	r9, r5, lsr #24
 2670 2260 9230CDE5 		strb	r3, [sp, #146]
 2671 2264 2448A0E1 		mov	r4, r4, lsr #16
 2672 2268 2558A0E1 		mov	r5, r5, lsr #16
 2673 226c 2668A0E1 		mov	r6, r6, lsr #16
 2674 2270 0B30A0E3 		mov	r3, #11
 2675 2274 87C0CDE5 		strb	ip, [sp, #135]
 2676 2278 8CE0CDE5 		strb	lr, [sp, #140]
 2677 227c 8D40CDE5 		strb	r4, [sp, #141]
 2678 2280 8E90CDE5 		strb	r9, [sp, #142]
 2679 2284 8F50CDE5 		strb	r5, [sp, #143]
 2680 2288 9160CDE5 		strb	r6, [sp, #145]
 2681 228c 8430CDE5 		strb	r3, [sp, #132]
 2682 2290 01C8A0E3 		mov	ip, #65536
 2683 2294 0E10C0E5 		strb	r1, [r0, #14]
 2684 2298 8520CDE5 		strb	r2, [sp, #133]
 2685 229c 01C04CE2 		sub	ip, ip, #1
 2686 22a0 0010A0E3 		mov	r1, #0
 2687              	.L137:
 2688 22a4 0B30D1E7 		ldrb	r3, [r1, fp]	@ zero_extendqisi2
 2689 22a8 0C3023E0 		eor	r3, r3, ip
 2690 22ac FF3003E2 		and	r3, r3, #255
 2691 22b0 033223E0 		eor	r3, r3, r3, asl #4
 2692 22b4 FF3003E2 		and	r3, r3, #255
 2693 22b8 0324A0E1 		mov	r2, r3, asl #8
 2694 22bc 2C2482E1 		orr	r2, r2, ip, lsr #8
 2695 22c0 232222E0 		eor	r2, r2, r3, lsr #4
 2696 22c4 832122E0 		eor	r2, r2, r3, asl #3
 2697 22c8 011081E2 		add	r1, r1, #1
 2698 22cc 0228A0E1 		mov	r2, r2, asl #16
 2699 22d0 100051E3 		cmp	r1, #16
 2700 22d4 22C8A0E1 		mov	ip, r2, lsr #16
 2701 22d8 F1FFFF1A 		bne	.L137
 2702 22dc 2C34A0E1 		mov	r3, ip, lsr #8
 2703 22e0 0100A0E3 		mov	r0, #1
 2704 22e4 451081E2 		add	r1, r1, #69
 2705 22e8 8931CDE5 		strb	r3, [sp, #393]
 2706 22ec 88C1CDE5 		strb	ip, [sp, #392]
 2707 22f0 FEFFFFEB 		bl	comm_send_ch
 2708 22f4 0100A0E3 		mov	r0, #1
 2709 22f8 8410DDE5 		ldrb	r1, [sp, #132]	@ zero_extendqisi2
 2710 22fc FEFFFFEB 		bl	comm_send_ch
 2711 2300 0100A0E3 		mov	r0, #1
 2712 2304 8510DDE5 		ldrb	r1, [sp, #133]	@ zero_extendqisi2
 2713 2308 FEFFFFEB 		bl	comm_send_ch
 2714 230c 0100A0E3 		mov	r0, #1
 2715 2310 8610DDE5 		ldrb	r1, [sp, #134]	@ zero_extendqisi2
 2716 2314 FEFFFFEB 		bl	comm_send_ch
 2717 2318 0100A0E3 		mov	r0, #1
 2718 231c 8710DDE5 		ldrb	r1, [sp, #135]	@ zero_extendqisi2
 2719 2320 FEFFFFEB 		bl	comm_send_ch
 2720 2324 0100A0E3 		mov	r0, #1
 2721 2328 8810DDE5 		ldrb	r1, [sp, #136]	@ zero_extendqisi2
 2722 232c FEFFFFEB 		bl	comm_send_ch
 2723 2330 8430DDE5 		ldrb	r3, [sp, #132]	@ zero_extendqisi2
 2724 2334 000053E3 		cmp	r3, #0
 2725 2338 0B00000A 		beq	.L139
 2726 233c 0040A0E3 		mov	r4, #0
 2727              	.L141:
 2728 2340 692F8DE2 		add	r2, sp, #420
 2729 2344 043082E0 		add	r3, r2, r4
 2730 2348 1B1153E5 		ldrb	r1, [r3, #-283]	@ zero_extendqisi2
 2731 234c 0100A0E3 		mov	r0, #1
 2732 2350 FEFFFFEB 		bl	comm_send_ch
 2733 2354 013084E2 		add	r3, r4, #1
 2734 2358 0338A0E1 		mov	r3, r3, asl #16
 2735 235c 8420DDE5 		ldrb	r2, [sp, #132]	@ zero_extendqisi2
 2736 2360 2348A0E1 		mov	r4, r3, lsr #16
 2737 2364 040052E1 		cmp	r2, r4
 2738 2368 F4FFFF8A 		bhi	.L141
 2739              	.L139:
 2740 236c 0100A0E3 		mov	r0, #1
 2741 2370 8811DDE5 		ldrb	r1, [sp, #392]	@ zero_extendqisi2
 2742 2374 FEFFFFEB 		bl	comm_send_ch
 2743 2378 8911DDE5 		ldrb	r1, [sp, #393]	@ zero_extendqisi2
 2744 237c 0100A0E3 		mov	r0, #1
 2745 2380 FEFFFFEB 		bl	comm_send_ch
 2746 2384 E0351FE5 		ldr	r3, .L206+72
 2747 2388 600293E5 		ldr	r0, [r3, #608]	@ float
 2748 238c FEFFFFEB 		bl	__fixunssfsi
 2749 2390 04161FE5 		ldr	r1, .L206+48
 2750 2394 04261FE5 		ldr	r2, .L206+52
 2751 2398 0130A0E3 		mov	r3, #1
 2752 239c 0EE0D1E5 		ldrb	lr, [r1, #14]	@ zero_extendqisi2
 2753 23a0 8830CDE5 		strb	r3, [sp, #136]
 2754 23a4 033083E2 		add	r3, r3, #3
 2755 23a8 0040D2E5 		ldrb	r4, [r2, #0]	@ zero_extendqisi2
 2756 23ac 0150D2E5 		ldrb	r5, [r2, #1]	@ zero_extendqisi2
 2757 23b0 8430CDE5 		strb	r3, [sp, #132]
 2758 23b4 28361FE5 		ldr	r3, .L206+48
 2759 23b8 2018A0E1 		mov	r1, r0, lsr #16
 2760 23bc 20C4A0E1 		mov	ip, r0, lsr #8
 2761 23c0 01608EE2 		add	r6, lr, #1
 2762 23c4 202CA0E1 		mov	r2, r0, lsr #24
 2763 23c8 8A10CDE5 		strb	r1, [sp, #138]
 2764 23cc 8BC0CDE5 		strb	ip, [sp, #139]
 2765 23d0 8920CDE5 		strb	r2, [sp, #137]
 2766 23d4 8C00CDE5 		strb	r0, [sp, #140]
 2767 23d8 8640CDE5 		strb	r4, [sp, #134]
 2768 23dc 8750CDE5 		strb	r5, [sp, #135]
 2769 23e0 01C8A0E3 		mov	ip, #65536
 2770 23e4 0E60C3E5 		strb	r6, [r3, #14]
 2771 23e8 85E0CDE5 		strb	lr, [sp, #133]
 2772 23ec 01C04CE2 		sub	ip, ip, #1
 2773 23f0 0010A0E3 		mov	r1, #0
 2774              	.L142:
 2775 23f4 0B30D1E7 		ldrb	r3, [r1, fp]	@ zero_extendqisi2
 2776 23f8 0C3023E0 		eor	r3, r3, ip
 2777 23fc FF3003E2 		and	r3, r3, #255
 2778 2400 033223E0 		eor	r3, r3, r3, asl #4
 2779 2404 FF3003E2 		and	r3, r3, #255
 2780 2408 0324A0E1 		mov	r2, r3, asl #8
 2781 240c 2C2482E1 		orr	r2, r2, ip, lsr #8
 2782 2410 232222E0 		eor	r2, r2, r3, lsr #4
 2783 2414 832122E0 		eor	r2, r2, r3, asl #3
 2784 2418 011081E2 		add	r1, r1, #1
 2785 241c 0228A0E1 		mov	r2, r2, asl #16
 2786 2420 090051E3 		cmp	r1, #9
 2787 2424 22C8A0E1 		mov	ip, r2, lsr #16
 2788 2428 F1FFFF1A 		bne	.L142
 2789 242c 2C34A0E1 		mov	r3, ip, lsr #8
 2790 2430 0000A0E3 		mov	r0, #0
 2791 2434 0B10A0E1 		mov	r1, fp
 2792 2438 8931CDE5 		strb	r3, [sp, #393]
 2793 243c 88C1CDE5 		strb	ip, [sp, #392]
 2794 2440 35FCFFEB 		bl	mavlink_send_uart
 2795 2444 A0161FE5 		ldr	r1, .L206+72
 2796 2448 600291E5 		ldr	r0, [r1, #608]	@ float
 2797 244c FEFFFFEB 		bl	__fixunssfsi
 2798 2450 BC261FE5 		ldr	r2, .L206+56
 2799 2454 C4361FE5 		ldr	r3, .L206+52
 2800 2458 0EE0D2E5 		ldrb	lr, [r2, #14]	@ zero_extendqisi2
 2801 245c 0040D3E5 		ldrb	r4, [r3, #0]	@ zero_extendqisi2
 2802 2460 0150D3E5 		ldrb	r5, [r3, #1]	@ zero_extendqisi2
 2803 2464 2018A0E1 		mov	r1, r0, lsr #16
 2804 2468 20C4A0E1 		mov	ip, r0, lsr #8
 2805 246c 202CA0E1 		mov	r2, r0, lsr #24
 2806 2470 0130A0E3 		mov	r3, #1
 2807 2474 8C00CDE5 		strb	r0, [sp, #140]
 2808 2478 E4061FE5 		ldr	r0, .L206+56
 2809 247c 8830CDE5 		strb	r3, [sp, #136]
 2810 2480 01608EE2 		add	r6, lr, #1
 2811 2484 033083E2 		add	r3, r3, #3
 2812 2488 8A10CDE5 		strb	r1, [sp, #138]
 2813 248c 8BC0CDE5 		strb	ip, [sp, #139]
 2814 2490 8920CDE5 		strb	r2, [sp, #137]
 2815 2494 8430CDE5 		strb	r3, [sp, #132]
 2816 2498 8640CDE5 		strb	r4, [sp, #134]
 2817 249c 8750CDE5 		strb	r5, [sp, #135]
 2818 24a0 01C8A0E3 		mov	ip, #65536
 2819 24a4 0E60C0E5 		strb	r6, [r0, #14]
 2820 24a8 85E0CDE5 		strb	lr, [sp, #133]
 2821 24ac 01C04CE2 		sub	ip, ip, #1
 2822 24b0 0010A0E3 		mov	r1, #0
 2823              	.L144:
 2824 24b4 0B30D1E7 		ldrb	r3, [r1, fp]	@ zero_extendqisi2
 2825 24b8 0C3023E0 		eor	r3, r3, ip
 2826 24bc FF3003E2 		and	r3, r3, #255
 2827 24c0 033223E0 		eor	r3, r3, r3, asl #4
 2828 24c4 FF3003E2 		and	r3, r3, #255
 2829 24c8 0324A0E1 		mov	r2, r3, asl #8
 2830 24cc 2C2482E1 		orr	r2, r2, ip, lsr #8
 2831 24d0 232222E0 		eor	r2, r2, r3, lsr #4
 2832 24d4 832122E0 		eor	r2, r2, r3, asl #3
 2833 24d8 011081E2 		add	r1, r1, #1
 2834 24dc 0228A0E1 		mov	r2, r2, asl #16
 2835 24e0 090051E3 		cmp	r1, #9
 2836 24e4 22C8A0E1 		mov	ip, r2, lsr #16
 2837 24e8 F1FFFF1A 		bne	.L144
 2838 24ec 2C34A0E1 		mov	r3, ip, lsr #8
 2839 24f0 0100A0E3 		mov	r0, #1
 2840 24f4 4C1081E2 		add	r1, r1, #76
 2841 24f8 8931CDE5 		strb	r3, [sp, #393]
 2842 24fc 88C1CDE5 		strb	ip, [sp, #392]
 2843 2500 FEFFFFEB 		bl	comm_send_ch
 2844 2504 0100A0E3 		mov	r0, #1
 2845 2508 8410DDE5 		ldrb	r1, [sp, #132]	@ zero_extendqisi2
 2846 250c FEFFFFEB 		bl	comm_send_ch
 2847 2510 0100A0E3 		mov	r0, #1
 2848 2514 8510DDE5 		ldrb	r1, [sp, #133]	@ zero_extendqisi2
 2849 2518 FEFFFFEB 		bl	comm_send_ch
 2850 251c 0100A0E3 		mov	r0, #1
 2851 2520 8610DDE5 		ldrb	r1, [sp, #134]	@ zero_extendqisi2
 2852 2524 FEFFFFEB 		bl	comm_send_ch
 2853 2528 0100A0E3 		mov	r0, #1
 2854 252c 8710DDE5 		ldrb	r1, [sp, #135]	@ zero_extendqisi2
 2855 2530 FEFFFFEB 		bl	comm_send_ch
 2856 2534 0100A0E3 		mov	r0, #1
 2857 2538 8810DDE5 		ldrb	r1, [sp, #136]	@ zero_extendqisi2
 2858 253c FEFFFFEB 		bl	comm_send_ch
 2859 2540 8430DDE5 		ldrb	r3, [sp, #132]	@ zero_extendqisi2
 2860 2544 000053E3 		cmp	r3, #0
 2861 2548 0B00000A 		beq	.L146
 2862 254c 0040A0E3 		mov	r4, #0
 2863              	.L148:
 2864 2550 691F8DE2 		add	r1, sp, #420
 2865 2554 043081E0 		add	r3, r1, r4
 2866 2558 1B1153E5 		ldrb	r1, [r3, #-283]	@ zero_extendqisi2
 2867 255c 0100A0E3 		mov	r0, #1
 2868 2560 FEFFFFEB 		bl	comm_send_ch
 2869 2564 013084E2 		add	r3, r4, #1
 2870 2568 0338A0E1 		mov	r3, r3, asl #16
 2871 256c 8420DDE5 		ldrb	r2, [sp, #132]	@ zero_extendqisi2
 2872 2570 2348A0E1 		mov	r4, r3, lsr #16
 2873 2574 040052E1 		cmp	r2, r4
 2874 2578 F4FFFF8A 		bhi	.L148
 2875              	.L146:
 2876 257c 0100A0E3 		mov	r0, #1
 2877 2580 8811DDE5 		ldrb	r1, [sp, #392]	@ zero_extendqisi2
 2878 2584 FEFFFFEB 		bl	comm_send_ch
 2879 2588 8911DDE5 		ldrb	r1, [sp, #393]	@ zero_extendqisi2
 2880 258c 0100A0E3 		mov	r0, #1
 2881 2590 FEFFFFEB 		bl	comm_send_ch
 2882 2594 0C081FE5 		ldr	r0, .L206+44
 2883 2598 FEFFFFEB 		bl	debug_message_buffer
 2884 259c 1100A0E3 		mov	r0, #17
 2885 25a0 FEFFFFEB 		bl	led_off
 2886 25a4 00281FE5 		ldr	r2, .L206+72
 2887 25a8 1A3EA0E3 		mov	r3, #416
 2888 25ac 023083E2 		add	r3, r3, #2
 2889 25b0 B34092E1 		ldrh	r4, [r2, r3]
 2890 25b4 10381FE5 		ldr	r3, .L206+72
 2891 25b8 1A2EA0E3 		mov	r2, #416
 2892 25bc B25093E1 		ldrh	r5, [r3, r2]
 2893 25c0 0310A0E3 		mov	r1, #3
 2894 25c4 5421D3E5 		ldrb	r2, [r3, #340]	@ zero_extendqisi2
 2895 25c8 0800A0E3 		mov	r0, #8
 2896 25cc 5C1183E5 		str	r1, [r3, #348]
 2897 25d0 500183E5 		str	r0, [r3, #336]
 2898 25d4 6461D3E5 		ldrb	r6, [r3, #356]	@ zero_extendqisi2
 2899 25d8 6C208DE5 		str	r2, [sp, #108]
 2900 25dc FEFFFFEB 		bl	communication_get_uart_drop_rate
 2901 25e0 54381FE5 		ldr	r3, .L206+48
 2902 25e4 54281FE5 		ldr	r2, .L206+52
 2903 25e8 0558A0E1 		mov	r5, r5, asl #16
 2904 25ec 0E10D3E5 		ldrb	r1, [r3, #14]	@ zero_extendqisi2
 2905 25f0 0008A0E1 		mov	r0, r0, asl #16
 2906 25f4 253CA0E1 		mov	r3, r5, lsr #24
 2907 25f8 00C0D2E5 		ldrb	ip, [r2, #0]	@ zero_extendqisi2
 2908 25fc 01E0D2E5 		ldrb	lr, [r2, #1]	@ zero_extendqisi2
 2909 2600 0668A0E1 		mov	r6, r6, asl #16
 2910 2604 1C308DE5 		str	r3, [sp, #28]
 2911 2608 203CA0E1 		mov	r3, r0, lsr #24
 2912 260c 262CA0E1 		mov	r2, r6, lsr #24
 2913 2610 14308DE5 		str	r3, [sp, #20]
 2914 2614 88381FE5 		ldr	r3, .L206+48
 2915 2618 18208DE5 		str	r2, [sp, #24]
 2916 261c 012081E2 		add	r2, r1, #1
 2917 2620 0E20C3E5 		strb	r2, [r3, #14]
 2918 2624 2230A0E3 		mov	r3, #34
 2919 2628 8830CDE5 		strb	r3, [sp, #136]
 2920 262c 6C309DE5 		ldr	r3, [sp, #108]
 2921 2630 8A30CDE5 		strb	r3, [sp, #138]
 2922 2634 1C309DE5 		ldr	r3, [sp, #28]
 2923 2638 0820A0E3 		mov	r2, #8
 2924 263c 8920CDE5 		strb	r2, [sp, #137]
 2925 2640 8E30CDE5 		strb	r3, [sp, #142]
 2926 2644 0320A0E3 		mov	r2, #3
 2927 2648 14309DE5 		ldr	r3, [sp, #20]
 2928 264c 0448A0E1 		mov	r4, r4, asl #16
 2929 2650 8B20CDE5 		strb	r2, [sp, #139]
 2930 2654 18209DE5 		ldr	r2, [sp, #24]
 2931 2658 249CA0E1 		mov	r9, r4, lsr #24
 2932 265c 2558A0E1 		mov	r5, r5, lsr #16
 2933 2660 2448A0E1 		mov	r4, r4, lsr #16
 2934 2664 2668A0E1 		mov	r6, r6, lsr #16
 2935 2668 2008A0E1 		mov	r0, r0, lsr #16
 2936 266c 9230CDE5 		strb	r3, [sp, #146]
 2937 2670 0B30A0E3 		mov	r3, #11
 2938 2674 86C0CDE5 		strb	ip, [sp, #134]
 2939 2678 8C90CDE5 		strb	r9, [sp, #140]
 2940 267c 01C8A0E3 		mov	ip, #65536
 2941 2680 8D40CDE5 		strb	r4, [sp, #141]
 2942 2684 8F50CDE5 		strb	r5, [sp, #143]
 2943 2688 9020CDE5 		strb	r2, [sp, #144]
 2944 268c 9160CDE5 		strb	r6, [sp, #145]
 2945 2690 9300CDE5 		strb	r0, [sp, #147]
 2946 2694 8430CDE5 		strb	r3, [sp, #132]
 2947 2698 87E0CDE5 		strb	lr, [sp, #135]
 2948 269c 8510CDE5 		strb	r1, [sp, #133]
 2949 26a0 01C04CE2 		sub	ip, ip, #1
 2950 26a4 0010A0E3 		mov	r1, #0
 2951              	.L149:
 2952 26a8 0B30D1E7 		ldrb	r3, [r1, fp]	@ zero_extendqisi2
 2953 26ac 0C3023E0 		eor	r3, r3, ip
 2954 26b0 FF3003E2 		and	r3, r3, #255
 2955 26b4 033223E0 		eor	r3, r3, r3, asl #4
 2956 26b8 FF3003E2 		and	r3, r3, #255
 2957 26bc 0324A0E1 		mov	r2, r3, asl #8
 2958 26c0 2C2482E1 		orr	r2, r2, ip, lsr #8
 2959 26c4 232222E0 		eor	r2, r2, r3, lsr #4
 2960 26c8 832122E0 		eor	r2, r2, r3, asl #3
 2961 26cc 011081E2 		add	r1, r1, #1
 2962 26d0 0228A0E1 		mov	r2, r2, asl #16
 2963 26d4 100051E3 		cmp	r1, #16
 2964 26d8 22C8A0E1 		mov	ip, r2, lsr #16
 2965 26dc F1FFFF1A 		bne	.L149
 2966 26e0 2C34A0E1 		mov	r3, ip, lsr #8
 2967 26e4 0000A0E3 		mov	r0, #0
 2968 26e8 0B10A0E1 		mov	r1, fp
 2969 26ec 88C1CDE5 		strb	ip, [sp, #392]
 2970 26f0 8931CDE5 		strb	r3, [sp, #393]
 2971 26f4 88FBFFEB 		bl	mavlink_send_uart
 2972 26f8 54091FE5 		ldr	r0, .L206+72
 2973 26fc 1A3EA0E3 		mov	r3, #416
 2974 2700 023083E2 		add	r3, r3, #2
 2975 2704 1A2EA0E3 		mov	r2, #416
 2976 2708 B34090E1 		ldrh	r4, [r0, r3]
 2977 270c B25090E1 		ldrh	r5, [r0, r2]
 2978 2710 5011D0E5 		ldrb	r1, [r0, #336]	@ zero_extendqisi2
 2979 2714 5421D0E5 		ldrb	r2, [r0, #340]	@ zero_extendqisi2
 2980 2718 5C31D0E5 		ldrb	r3, [r0, #348]	@ zero_extendqisi2
 2981 271c 80108DE5 		str	r1, [sp, #128]
 2982 2720 70208DE5 		str	r2, [sp, #112]
 2983 2724 5C308DE5 		str	r3, [sp, #92]
 2984 2728 6461D0E5 		ldrb	r6, [r0, #356]	@ zero_extendqisi2
 2985 272c FEFFFFEB 		bl	communication_get_uart_drop_rate
 2986 2730 A0391FE5 		ldr	r3, .L206+52
 2987 2734 A0291FE5 		ldr	r2, .L206+56
 2988 2738 0558A0E1 		mov	r5, r5, asl #16
 2989 273c 0668A0E1 		mov	r6, r6, asl #16
 2990 2740 0E10D2E5 		ldrb	r1, [r2, #14]	@ zero_extendqisi2
 2991 2744 01C0D3E5 		ldrb	ip, [r3, #1]	@ zero_extendqisi2
 2992 2748 00E0D3E5 		ldrb	lr, [r3, #0]	@ zero_extendqisi2
 2993 274c 252CA0E1 		mov	r2, r5, lsr #24
 2994 2750 263CA0E1 		mov	r3, r6, lsr #24
 2995 2754 0008A0E1 		mov	r0, r0, asl #16
 2996 2758 10208DE5 		str	r2, [sp, #16]
 2997 275c 0C308DE5 		str	r3, [sp, #12]
 2998 2760 202CA0E1 		mov	r2, r0, lsr #24
 2999 2764 D0391FE5 		ldr	r3, .L206+56
 3000 2768 08208DE5 		str	r2, [sp, #8]
 3001 276c 012081E2 		add	r2, r1, #1
 3002 2770 0E20C3E5 		strb	r2, [r3, #14]
 3003 2774 2230A0E3 		mov	r3, #34
 3004 2778 8830CDE5 		strb	r3, [sp, #136]
 3005 277c 70309DE5 		ldr	r3, [sp, #112]
 3006 2780 80209DE5 		ldr	r2, [sp, #128]
 3007 2784 8A30CDE5 		strb	r3, [sp, #138]
 3008 2788 10309DE5 		ldr	r3, [sp, #16]
 3009 278c 8920CDE5 		strb	r2, [sp, #137]
 3010 2790 5C209DE5 		ldr	r2, [sp, #92]
 3011 2794 8E30CDE5 		strb	r3, [sp, #142]
 3012 2798 08309DE5 		ldr	r3, [sp, #8]
 3013 279c 0448A0E1 		mov	r4, r4, asl #16
 3014 27a0 8B20CDE5 		strb	r2, [sp, #139]
 3015 27a4 0C209DE5 		ldr	r2, [sp, #12]
 3016 27a8 249CA0E1 		mov	r9, r4, lsr #24
 3017 27ac 2558A0E1 		mov	r5, r5, lsr #16
 3018 27b0 2668A0E1 		mov	r6, r6, lsr #16
 3019 27b4 2008A0E1 		mov	r0, r0, lsr #16
 3020 27b8 9230CDE5 		strb	r3, [sp, #146]
 3021 27bc 0B30A0E3 		mov	r3, #11
 3022 27c0 2448A0E1 		mov	r4, r4, lsr #16
 3023 27c4 87C0CDE5 		strb	ip, [sp, #135]
 3024 27c8 8C90CDE5 		strb	r9, [sp, #140]
 3025 27cc 01C8A0E3 		mov	ip, #65536
 3026 27d0 8F50CDE5 		strb	r5, [sp, #143]
 3027 27d4 9020CDE5 		strb	r2, [sp, #144]
 3028 27d8 9160CDE5 		strb	r6, [sp, #145]
 3029 27dc 9300CDE5 		strb	r0, [sp, #147]
 3030 27e0 8430CDE5 		strb	r3, [sp, #132]
 3031 27e4 86E0CDE5 		strb	lr, [sp, #134]
 3032 27e8 8510CDE5 		strb	r1, [sp, #133]
 3033 27ec 8D40CDE5 		strb	r4, [sp, #141]
 3034 27f0 01C04CE2 		sub	ip, ip, #1
 3035 27f4 0040A0E3 		mov	r4, #0
 3036              	.L151:
 3037 27f8 0B30D4E7 		ldrb	r3, [r4, fp]	@ zero_extendqisi2
 3038 27fc 0C3023E0 		eor	r3, r3, ip
 3039 2800 FF3003E2 		and	r3, r3, #255
 3040 2804 033223E0 		eor	r3, r3, r3, asl #4
 3041 2808 FF3003E2 		and	r3, r3, #255
 3042 280c 0324A0E1 		mov	r2, r3, asl #8
 3043 2810 2C2482E1 		orr	r2, r2, ip, lsr #8
 3044 2814 232222E0 		eor	r2, r2, r3, lsr #4
 3045 2818 832122E0 		eor	r2, r2, r3, asl #3
 3046 281c 014084E2 		add	r4, r4, #1
 3047 2820 0228A0E1 		mov	r2, r2, asl #16
 3048 2824 100054E3 		cmp	r4, #16
 3049 2828 22C8A0E1 		mov	ip, r2, lsr #16
 3050 282c F1FFFF1A 		bne	.L151
 3051 2830 2C34A0E1 		mov	r3, ip, lsr #8
 3052 2834 0B10A0E1 		mov	r1, fp
 3053 2838 0100A0E3 		mov	r0, #1
 3054 283c 8931CDE5 		strb	r3, [sp, #393]
 3055 2840 88C1CDE5 		strb	ip, [sp, #392]
 3056 2844 34FBFFEB 		bl	mavlink_send_uart
 3057 2848 B00A1FE5 		ldr	r0, .L206+60
 3058 284c FEFFFFEB 		bl	debug_message_buffer
 3059 2850 0100A0E3 		mov	r0, #1
 3060 2854 FEFFFFEB 		bl	ppm_get_channel
 3061 2858 7B3EA0E3 		mov	r3, #1968
 3062 285c 013083E2 		add	r3, r3, #1
 3063 2860 030050E1 		cmp	r0, r3
 3064 2864 0C0000CA 		bgt	.L153
 3065 2868 C41A1FE5 		ldr	r1, .L206+72
 3066 286c 0230A0E3 		mov	r3, #2
 3067 2870 D40A1FE5 		ldr	r0, .L206+64
 3068 2874 503181E5 		str	r3, [r1, #336]
 3069 2878 FEFFFFEB 		bl	debug_message_buffer
 3070 287c 0400A0E1 		mov	r0, r4
 3071 2880 FEFFFFEB 		bl	led_on
 3072              	.L156:
 3073 2884 69DF8DE2 		add	sp, sp, #420
 3074 2888 F04FBDE8 		ldmfd	sp!, {r4, r5, r6, r7, r8, r9, sl, fp, lr}
 3075 288c 1EFF2FE1 		bx	lr
 3076              	.L111:
 3077 2890 F00A1FE5 		ldr	r0, .L206+68
 3078 2894 FEFFFFEB 		bl	debug_message_buffer
 3079 2898 0CFCFFEA 		b	.L116
 3080              	.L153:
 3081 289c F82A1FE5 		ldr	r2, .L206+72
 3082 28a0 0130A0E3 		mov	r3, #1
 3083 28a4 503182E5 		str	r3, [r2, #336]
 3084 28a8 000B1FE5 		ldr	r0, .L206+76
 3085 28ac FEFFFFEB 		bl	debug_message_buffer
 3086 28b0 0400A0E1 		mov	r0, r4
 3087 28b4 FEFFFFEB 		bl	led_off
 3088 28b8 F1FFFFEA 		b	.L156
 3089              	.L205:
 3090 28bc 4714A0E3 		mov	r1, #1191182336
 3091 28c0 021581E2 		add	r1, r1, #8388608
 3092 28c4 FEFFFFEB 		bl	__addsf3
 3093 28c8 32FCFFEA 		b	.L119
 3095              		.bss
 3096              		.align	2
 3097              	last_mainloop_idle:
 3098 0000 00000000 		.space	8
 3098      00000000 
 3099              	mag_count.20852:
 3100 0008 00       		.space	1
 3101              		.data
 3102              		.align	2
 3105              	pressure_lowpass.19286:
 3106 0000 0050C347 		.word	1203982336
 3107              		.bss
 3108 0009 000000   		.align	2
 3109              	m_mavlink_status.2147:
 3110 000c 00000000 		.space	80
 3110      00000000 
 3110      00000000 
 3110      00000000 
 3110      00000000 
 3111              		.comm	mavlink_system,8,4
 3112              		.comm	global_param_id,4,4
 3113              		.comm	state_fly_id,4,4
 3114              		.comm	global_data,2684,4
 3115              		.comm	mag_axis,1,1
 3116              		.comm	bmp085_measurement_mode,1,1
 3117              		.comm	gps_device_mode,1,1
 3118              		.ident	"GCC: (GNU) 4.1.1 (WinARM)"