   1              		.file	"mainloop_ground_car.c"
   2              		.section	.rodata.str1.4,"aMS",%progbits,1
   3              		.align	2
   4              	.LC0:
   5 0000 53746172 		.ascii	"Starting main loop\000"
   5      74696E67 
   5      206D6169 
   5      6E206C6F 
   5      6F7000
   6              		.global	__eqsf2
   7              		.global	__floatsidf
   8              		.global	__floatsisf
   9              		.global	__muldf3
  10              		.global	__extendsfdf2
  11              		.global	__adddf3
  12              		.global	__truncdfsf2
  13              		.global	__subsf3
  14 0013 00       		.align	2
  15              	.LC1:
  16 0014 4759524F 		.ascii	"GYRO_RAW_X was ZERO!!!\000"
  16      5F524157 
  16      5F582077 
  16      6173205A 
  16      45524F21 
  17 002b 00       		.align	2
  18              	.LC2:
  19 002c 4759524F 		.ascii	"GYRO_RAW_Y was ZERO!!!\000"
  19      5F524157 
  19      5F592077 
  19      6173205A 
  19      45524F21 
  20 0043 00       		.align	2
  21              	.LC3:
  22 0044 4759524F 		.ascii	"GYRO_RAW_Z was ZERO!!!\000"
  22      5F524157 
  22      5F5A2077 
  22      6173205A 
  22      45524F21 
  23              		.global	__mulsf3
  24              		.global	__divsf3
  25              		.global	__fixsfsi
  26              		.global	__nesf2
  27              		.global	__addsf3
  28              		.global	__gtsf2
  29 005b 00       		.align	2
  30              	.LC4:
  31 005c 626D7030 		.ascii	"bmp085 pressure spike rejected\000"
  31      38352070 
  31      72657373 
  31      75726520 
  31      7370696B 
  32 007b 00       		.align	2
  33              	.LC5:
  34 007c 43524954 		.ascii	"CRITICAL WARNING! CPU LOAD TO HIGH. STARVATION!\000"
  34      4943414C 
  34      20574152 
  34      4E494E47 
  34      21204350 
  35              		.align	2
  36              	.LC6:
  37 00ac 43524954 		.ascii	"CRITICAL WARNING! CPU LOAD HIGHER THAN 80%\000"
  37      4943414C 
  37      20574152 
  37      4E494E47 
  37      21204350 
  38 00d7 00       		.text
  39              		.align	2
  40              		.global	main_loop_ground_car
  42              	main_loop_ground_car:
  43              		@ Function supports interworking.
  44              		@ args = 0, pretend = 0, frame = 16
  45              		@ frame_needed = 0, uses_anonymous_args = 0
  46 0000 F04F2DE9 		stmfd	sp!, {r4, r5, r6, r7, r8, r9, sl, fp, lr}
  47 0004 18D04DE2 		sub	sp, sp, #24
  48 0008 FEFFFFEB 		bl	sys_time_clock_get_time_usec
  49 000c 38259FE5 		ldr	r2, .L87+76
  50 0010 030082E8 		stmia	r2, {r0-r1}
  51 0014 04059FE5 		ldr	r0, .L87+32
  52 0018 FEFFFFEB 		bl	debug_message_buffer
  53 001c 00A59FE5 		ldr	sl, .L87+36
  54              	.L82:
  55 0020 FEFFFFEB 		bl	sys_time_clock_get_time_usec
  56 0024 0080A0E1 		mov	r8, r0
  57 0028 4E0DA0E3 		mov	r0, #4992
  58 002c 0190A0E1 		mov	r9, r1
  59 0030 080080E2 		add	r0, r0, #8
  60 0034 0110A0E3 		mov	r1, #1
  61 0038 0820A0E1 		mov	r2, r8
  62 003c FEFFFFEB 		bl	us_run_every
  63 0040 000050E3 		cmp	r0, #0
  64 0044 2001000A 		beq	.L3
  65 0048 0000A0E3 		mov	r0, #0
  66 004c 0110A0E3 		mov	r1, #1
  67 0050 FEFFFFEB 		bl	ads8341_read
  68              	.L5:
  69 0054 FEFFFFEB 		bl	spi_running
  70 0058 004050E2 		subs	r4, r0, #0
  71 005c FCFFFF1A 		bne	.L5
  72 0060 0110A0E3 		mov	r1, #1
  73 0064 FEFFFFEB 		bl	ads8341_get_value
  74 0068 0410A0E1 		mov	r1, r4
  75 006c B001CAE1 		strh	r0, [sl, #16]	@ movhi
  76 0070 0400A0E1 		mov	r0, r4
  77 0074 FEFFFFEB 		bl	ads8341_read
  78              	.L7:
  79 0078 FEFFFFEB 		bl	spi_running
  80 007c 004050E2 		subs	r4, r0, #0
  81 0080 FCFFFF1A 		bne	.L7
  82 0084 0410A0E1 		mov	r1, r4
  83 0088 FEFFFFEB 		bl	ads8341_get_value
  84 008c 0210A0E3 		mov	r1, #2
  85 0090 B201CAE1 		strh	r0, [sl, #18]	@ movhi
  86 0094 0400A0E1 		mov	r0, r4
  87 0098 FEFFFFEB 		bl	ads8341_read
  88              	.L9:
  89 009c FEFFFFEB 		bl	spi_running
  90 00a0 004050E2 		subs	r4, r0, #0
  91 00a4 FCFFFF1A 		bne	.L9
  92 00a8 0210A0E3 		mov	r1, #2
  93 00ac FEFFFFEB 		bl	ads8341_get_value
  94 00b0 0310A0E3 		mov	r1, #3
  95 00b4 B401CAE1 		strh	r0, [sl, #20]	@ movhi
  96 00b8 0400A0E1 		mov	r0, r4
  97 00bc FEFFFFEB 		bl	ads8341_read
  98              	.L11:
  99 00c0 FEFFFFEB 		bl	spi_running
 100 00c4 000050E3 		cmp	r0, #0
 101 00c8 FCFFFF1A 		bne	.L11
 102 00cc 0310A0E3 		mov	r1, #3
 103 00d0 FEFFFFEB 		bl	ads8341_get_value
 104 00d4 FE15A0E3 		mov	r1, #1065353216
 105 00d8 0040A0E1 		mov	r4, r0
 106 00dc 48039AE5 		ldr	r0, [sl, #840]	@ float
 107 00e0 BA42CAE1 		strh	r4, [sl, #42]	@ movhi
 108 00e4 FEFFFFEB 		bl	__eqsf2
 109 00e8 000050E3 		cmp	r0, #0
 110 00ec 30749FE5 		ldr	r7, .L87+36
 111 00f0 2101001A 		bne	.L13
 112 00f4 0400A0E1 		mov	r0, r4
 113 00f8 FEFFFFEB 		bl	__floatsidf
 114 00fc 08008DE5 		str	r0, [sp, #8]
 115 0100 0C108DE5 		str	r1, [sp, #12]
 116 0104 B001D7E1 		ldrh	r0, [r7, #16]
 117 0108 303397E5 		ldr	r3, [r7, #816]	@ float
 118 010c 344397E5 		ldr	r4, [r7, #820]	@ float
 119 0110 010B50E3 		cmp	r0, #1024
 120 0114 2CB397E5 		ldr	fp, [r7, #812]	@ float
 121 0118 14308DE5 		str	r3, [sp, #20]	@ float
 122 011c 10408DE5 		str	r4, [sp, #16]	@ float
 123 0120 5E01003A 		bcc	.L16
 124 0124 FEFFFFEB 		bl	__floatsisf
 125 0128 3D2E8FE2 		adr	r2, .L87
 126 012c 0C0092E8 		ldmia	r2, {r2-r3}
 127 0130 0060A0E1 		mov	r6, r0
 128 0134 08008DE2 		add	r0, sp, #8
 129 0138 030090E8 		ldmia	r0, {r0-r1}
 130 013c FEFFFFEB 		bl	__muldf3
 131 0140 0040A0E1 		mov	r4, r0
 132 0144 0B00A0E1 		mov	r0, fp
 133 0148 0150A0E1 		mov	r5, r1
 134 014c FEFFFFEB 		bl	__extendsfdf2
 135 0150 0020A0E1 		mov	r2, r0
 136 0154 0130A0E1 		mov	r3, r1
 137 0158 0400A0E1 		mov	r0, r4
 138 015c 0510A0E1 		mov	r1, r5
 139 0160 FEFFFFEB 		bl	__adddf3
 140 0164 FEFFFFEB 		bl	__truncdfsf2
 141 0168 0010A0E1 		mov	r1, r0
 142 016c 0600A0E1 		mov	r0, r6
 143 0170 FEFFFFEB 		bl	__subsf3
 144 0174 FEFFFFEB 		bl	__extendsfdf2
 145 0178 F92F8FE2 		adr	r2, .L87+100
 146 017c 0C0092E8 		ldmia	r2, {r2-r3}
 147 0180 FEFFFFEB 		bl	__muldf3
 148 0184 FEFFFFEB 		bl	__truncdfsf2
 149 0188 3C0087E5 		str	r0, [r7, #60]	@ float
 150              	.L18:
 151 018c B201DAE1 		ldrh	r0, [sl, #18]
 152 0190 010B50E3 		cmp	r0, #1024
 153 0194 3E01003A 		bcc	.L19
 154 0198 FEFFFFEB 		bl	__floatsisf
 155 019c D92F8FE2 		adr	r2, .L87+8
 156 01a0 0C0092E8 		ldmia	r2, {r2-r3}
 157 01a4 0060A0E1 		mov	r6, r0
 158 01a8 08008DE2 		add	r0, sp, #8
 159 01ac 030090E8 		ldmia	r0, {r0-r1}
 160 01b0 FEFFFFEB 		bl	__muldf3
 161 01b4 0040A0E1 		mov	r4, r0
 162 01b8 14009DE5 		ldr	r0, [sp, #20]	@ float
 163 01bc 0150A0E1 		mov	r5, r1
 164 01c0 FEFFFFEB 		bl	__extendsfdf2
 165 01c4 0020A0E1 		mov	r2, r0
 166 01c8 0130A0E1 		mov	r3, r1
 167 01cc 0400A0E1 		mov	r0, r4
 168 01d0 0510A0E1 		mov	r1, r5
 169 01d4 FEFFFFEB 		bl	__adddf3
 170 01d8 FEFFFFEB 		bl	__truncdfsf2
 171 01dc 0010A0E1 		mov	r1, r0
 172 01e0 0600A0E1 		mov	r0, r6
 173 01e4 FEFFFFEB 		bl	__subsf3
 174 01e8 FEFFFFEB 		bl	__extendsfdf2
 175 01ec DE2F8FE2 		adr	r2, .L87+108
 176 01f0 0C0092E8 		ldmia	r2, {r2-r3}
 177 01f4 FEFFFFEB 		bl	__muldf3
 178 01f8 FEFFFFEB 		bl	__truncdfsf2
 179 01fc 20339FE5 		ldr	r3, .L87+36
 180 0200 400083E5 		str	r0, [r3, #64]	@ float
 181              	.L21:
 182 0204 B401DAE1 		ldrh	r0, [sl, #20]
 183 0208 010B50E3 		cmp	r0, #1024
 184 020c 1D01003A 		bcc	.L22
 185 0210 FEFFFFEB 		bl	__floatsisf
 186 0214 BD2F8FE2 		adr	r2, .L87+16
 187 0218 0C0092E8 		ldmia	r2, {r2-r3}
 188 021c 0060A0E1 		mov	r6, r0
 189 0220 08008DE2 		add	r0, sp, #8
 190 0224 030090E8 		ldmia	r0, {r0-r1}
 191 0228 FEFFFFEB 		bl	__muldf3
 192 022c 0040A0E1 		mov	r4, r0
 193 0230 10009DE5 		ldr	r0, [sp, #16]	@ float
 194 0234 0150A0E1 		mov	r5, r1
 195 0238 FEFFFFEB 		bl	__extendsfdf2
 196 023c 0020A0E1 		mov	r2, r0
 197 0240 0130A0E1 		mov	r3, r1
 198 0244 0400A0E1 		mov	r0, r4
 199 0248 0510A0E1 		mov	r1, r5
 200 024c FEFFFFEB 		bl	__adddf3
 201 0250 FEFFFFEB 		bl	__truncdfsf2
 202 0254 0010A0E1 		mov	r1, r0
 203 0258 0600A0E1 		mov	r0, r6
 204 025c FEFFFFEB 		bl	__subsf3
 205 0260 FEFFFFEB 		bl	__extendsfdf2
 206 0264 C22F8FE2 		adr	r2, .L87+116
 207 0268 0C0092E8 		ldmia	r2, {r2-r3}
 208 026c FEFFFFEB 		bl	__muldf3
 209 0270 FEFFFFEB 		bl	__truncdfsf2
 210 0274 A8329FE5 		ldr	r3, .L87+36
 211 0278 440083E5 		str	r0, [r3, #68]	@ float
 212              	.L24:
 213 027c FEFFFFEB 		bl	sca3100_read_res
 214              	.L25:
 215 0280 FEFFFFEB 		bl	spi_running
 216 0284 000050E3 		cmp	r0, #0
 217 0288 FCFFFF1A 		bne	.L25
 218 028c FEFFFFEB 		bl	sca3100_get_value
 219 0290 B801CAE1 		strh	r0, [sl, #24]	@ movhi
 220 0294 0100A0E3 		mov	r0, #1
 221 0298 FEFFFFEB 		bl	sca3100_get_value
 222 029c BA01CAE1 		strh	r0, [sl, #26]	@ movhi
 223 02a0 0200A0E3 		mov	r0, #2
 224 02a4 FEFFFFEB 		bl	sca3100_get_value
 225 02a8 003060E2 		rsb	r3, r0, #0
 226 02ac F801DAE1 		ldrsh	r0, [sl, #24]
 227 02b0 BC31CAE1 		strh	r3, [sl, #28]	@ movhi
 228 02b4 FEFFFFEB 		bl	__floatsisf
 229 02b8 68129FE5 		ldr	r1, .L87+40
 230 02bc FEFFFFEB 		bl	__mulsf3
 231 02c0 1113A0E3 		mov	r1, #1140850688
 232 02c4 611881E2 		add	r1, r1, #6356992
 233 02c8 FEFFFFEB 		bl	__divsf3
 234 02cc 48008AE5 		str	r0, [sl, #72]	@ float
 235 02d0 FA01DAE1 		ldrsh	r0, [sl, #26]
 236 02d4 FEFFFFEB 		bl	__floatsisf
 237 02d8 48129FE5 		ldr	r1, .L87+40
 238 02dc FEFFFFEB 		bl	__mulsf3
 239 02e0 1113A0E3 		mov	r1, #1140850688
 240 02e4 611881E2 		add	r1, r1, #6356992
 241 02e8 FEFFFFEB 		bl	__divsf3
 242 02ec 4C008AE5 		str	r0, [sl, #76]	@ float
 243 02f0 FC01DAE1 		ldrsh	r0, [sl, #28]
 244 02f4 FEFFFFEB 		bl	__floatsisf
 245 02f8 28129FE5 		ldr	r1, .L87+40
 246 02fc FEFFFFEB 		bl	__mulsf3
 247 0300 1113A0E3 		mov	r1, #1140850688
 248 0304 611881E2 		add	r1, r1, #6356992
 249 0308 FEFFFFEB 		bl	__divsf3
 250 030c 50008AE5 		str	r0, [sl, #80]	@ float
 251 0310 FEFFFFEB 		bl	adns9500_1_read_sensor
 252              	.L27:
 253 0314 FEFFFFEB 		bl	spi_running
 254 0318 000050E3 		cmp	r0, #0
 255 031c FCFFFF1A 		bne	.L27
 256 0320 FEFFFFEB 		bl	adns9500_1_get_value
 257 0324 7C0A8AE5 		str	r0, [sl, #2684]
 258 0328 0100A0E3 		mov	r0, #1
 259 032c FEFFFFEB 		bl	adns9500_1_get_value
 260 0330 800A8AE5 		str	r0, [sl, #2688]
 261 0334 FEFFFFEB 		bl	adns9500_2_read_sensor
 262              	.L29:
 263 0338 FEFFFFEB 		bl	spi_running
 264 033c 006050E2 		subs	r6, r0, #0
 265 0340 FCFFFF1A 		bne	.L29
 266 0344 FEFFFFEB 		bl	adns9500_2_get_value
 267 0348 840A8AE5 		str	r0, [sl, #2692]
 268 034c 0100A0E3 		mov	r0, #1
 269 0350 FEFFFFEB 		bl	adns9500_2_get_value
 270 0354 D0519FE5 		ldr	r5, .L87+44
 271 0358 0030D5E5 		ldrb	r3, [r5, #0]	@ zero_extendqisi2
 272 035c 030053E3 		cmp	r3, #3
 273 0360 01308312 		addne	r3, r3, #1
 274 0364 880A8AE5 		str	r0, [sl, #2696]
 275 0368 B4719FE5 		ldr	r7, .L87+36
 276 036c 0030C515 		strneb	r3, [r5, #0]
 277 0370 CD00000A 		beq	.L84
 278              	.L33:
 279 0374 B4419FE5 		ldr	r4, .L87+48
 280 0378 18008AE2 		add	r0, sl, #24
 281 037c 030090E8 		ldmia	r0, {r0-r1}
 282 0380 FEFFFFEB 		bl	attitude_observer_correct_accel
 283 0384 0400A0E1 		mov	r0, r4
 284 0388 FEFFFFEB 		bl	attitude_observer_get_angles
 285 038c 003094E5 		ldr	r3, [r4, #0]	@ float
 286 0390 042094E5 		ldr	r2, [r4, #4]	@ float
 287 0394 28039AE5 		ldr	r0, [sl, #808]	@ float
 288 0398 0010A0E3 		mov	r1, #0
 289 039c 5C308AE5 		str	r3, [sl, #92]	@ float
 290 03a0 60208AE5 		str	r2, [sl, #96]	@ float
 291 03a4 FEFFFFEB 		bl	__nesf2
 292 03a8 000050E3 		cmp	r0, #0
 293 03ac 70619FE5 		ldr	r6, .L87+36
 294 03b0 08309405 		ldreq	r3, [r4, #8]	@ float
 295 03b4 64308605 		streq	r3, [r6, #100]	@ float
 296 03b8 0F00000A 		beq	.L37
 297 03bc 640096E5 		ldr	r0, [r6, #100]	@ float
 298 03c0 FEFFFFEB 		bl	__extendsfdf2
 299 03c4 0040A0E1 		mov	r4, r0
 300 03c8 440096E5 		ldr	r0, [r6, #68]	@ float
 301 03cc 0150A0E1 		mov	r5, r1
 302 03d0 FEFFFFEB 		bl	__extendsfdf2
 303 03d4 4F2F8FE2 		adr	r2, .L87+24
 304 03d8 0C0092E8 		ldmia	r2, {r2-r3}
 305 03dc FEFFFFEB 		bl	__muldf3
 306 03e0 0020A0E1 		mov	r2, r0
 307 03e4 0130A0E1 		mov	r3, r1
 308 03e8 0400A0E1 		mov	r0, r4
 309 03ec 0510A0E1 		mov	r1, r5
 310 03f0 FEFFFFEB 		bl	__adddf3
 311 03f4 FEFFFFEB 		bl	__truncdfsf2
 312 03f8 640086E5 		str	r0, [r6, #100]	@ float
 313              	.L37:
 314 03fc 30619FE5 		ldr	r6, .L87+52
 315 0400 070096E8 		ldmia	r6, {r0, r1, r2}
 316 0404 FEFFFFEB 		bl	attitude_observer_predict
 317              	.L38:
 318 0408 FEFFFFEB 		bl	communication_receive
 319 040c FEFFFFEB 		bl	sys_time_clock_get_time_usec
 320 0410 4E6DA0E3 		mov	r6, #4992
 321 0414 0040A0E1 		mov	r4, r0
 322 0418 0020A0E1 		mov	r2, r0
 323 041c 0130A0E1 		mov	r3, r1
 324 0420 0070A0E3 		mov	r7, #0
 325 0424 0150A0E1 		mov	r5, r1
 326 0428 086086E2 		add	r6, r6, #8
 327 042c 0910A0E1 		mov	r1, r9
 328 0430 0800A0E1 		mov	r0, r8
 329 0434 C0008DE8 		stmia	sp, {r6-r7}
 330 0438 FEFFFFEB 		bl	measure_avg_cpu_load
 331 043c 1A3EA0E3 		mov	r3, #416
 332 0440 023083E2 		add	r3, r3, #2
 333 0444 B3008AE1 		strh	r0, [sl, r3]	@ movhi
 334 0448 0420A0E1 		mov	r2, r4
 335 044c 0530A0E1 		mov	r3, r5
 336 0450 0910A0E1 		mov	r1, r9
 337 0454 0800A0E1 		mov	r0, r8
 338 0458 C0008DE8 		stmia	sp, {r6-r7}
 339 045c FEFFFFEB 		bl	measure_peak_cpu_load
 340 0460 E4709FE5 		ldr	r7, .L87+76
 341 0464 180097E8 		ldmia	r7, {r3-r4}
 342 0468 0810A0E1 		mov	r1, r8
 343 046c 0920A0E1 		mov	r2, r9
 344 0470 031051E0 		subs	r1, r1, r3
 345 0474 0420C2E0 		sbc	r2, r2, r4
 346 0478 000052E3 		cmp	r2, #0
 347 047c 693FA0E3 		mov	r3, #420
 348 0480 B3008AE1 		strh	r0, [sl, r3]	@ movhi
 349 0484 0400008A 		bhi	.L59
 350 0488 0700001A 		bne	.L57
 351 048c 4E3DA0E3 		mov	r3, #4992
 352 0490 073083E2 		add	r3, r3, #7
 353 0494 030051E1 		cmp	r1, r3
 354 0498 0300009A 		bls	.L57
 355              	.L59:
 356 049c 94009FE5 		ldr	r0, .L87+56
 357 04a0 FEFFFFEB 		bl	debug_message_buffer
 358 04a4 A0109FE5 		ldr	r1, .L87+76
 359 04a8 000381E8 		stmia	r1, {r8-r9}
 360              	.L57:
 361 04ac 1A3EA0E3 		mov	r3, #416
 362 04b0 023083E2 		add	r3, r3, #2
 363 04b4 B3209AE1 		ldrh	r2, [sl, r3]
 364 04b8 320E52E3 		cmp	r2, #800
 365 04bc D7FEFF9A 		bls	.L82
 366 04c0 74009FE5 		ldr	r0, .L87+60
 367 04c4 FEFFFFEB 		bl	debug_message_buffer
 368 04c8 D4FEFFEA 		b	.L82
 369              	.L3:
 370 04cc 4E0CA0E3 		mov	r0, #19968
 371 04d0 200080E2 		add	r0, r0, #32
 372 04d4 0210A0E3 		mov	r1, #2
 373 04d8 0820A0E1 		mov	r2, r8
 374 04dc FEFFFFEB 		bl	us_run_every
 375 04e0 000050E3 		cmp	r0, #0
 376 04e4 4300000A 		beq	.L39
 377 04e8 FEFFFFEB 		bl	adc_read
 378 04ec FEFFFFEB 		bl	remote_control
 379 04f0 0800A0E1 		mov	r0, r8
 380 04f4 0910A0E1 		mov	r1, r9
 381 04f8 FEFFFFEB 		bl	communication_send_raw_data
 382 04fc C1FFFFEA 		b	.L38
 383              	.L88:
 384              		.align	2
 385              	.L87:
 386 0500 13E4AEBF 		.word	-1079057389
 387 0504 AAB1218D 		.word	-1927171670
 388 0508 0803953F 		.word	1066730248
 389 050c 3020DF3C 		.word	1021255728
 390 0510 81C898BF 		.word	-1080506239
 391 0514 6E3526AD 		.word	-1390004882
 392 0518 E17A743F 		.word	1064598241
 393 051c 7B14AE47 		.word	1202590843
 394 0520 00000000 		.word	.LC0
 395 0524 00000000 		.word	global_data
 396 0528 C3F51C41 		.word	1092416963
 397 052c 14000000 		.word	mag_count.20999
 398 0530 08000000 		.word	att.21000
 399 0534 3C000000 		.word	global_data+60
 400 0538 7C000000 		.word	.LC5
 401 053c AC000000 		.word	.LC6
 402 0540 44000000 		.word	.LC3
 403 0544 2C000000 		.word	.LC2
 404 0548 14000000 		.word	.LC1
 405 054c 00000000 		.word	last_mainloop_idle
 406 0550 A4707D3F 		.word	1065185444
 407 0554 0AD7233C 		.word	1008981770
 408 0558 00000000 		.word	pressure_lowpass.19393
 409 055c 00000000 		.word	bmp085_measurement_mode
 410 0560 5C000000 		.word	.LC4
 411 0564 1E4B4FBF 		.word	-1085322466
 412 0568 975643E2 		.word	-498903401
 413 056c 1E4B4F3F 		.word	1062161182
 414 0570 975643E2 		.word	-498903401
 415 0574 3F8C50BF 		.word	-1085240257
 416 0578 CE70033E 		.word	1040412878
 417              	.L13:
 418 057c B001D7E1 		ldrh	r0, [r7, #16]
 419 0580 FEFFFFEB 		bl	__floatsisf
 420 0584 2C1397E5 		ldr	r1, [r7, #812]	@ float
 421 0588 FEFFFFEB 		bl	__subsf3
 422 058c FEFFFFEB 		bl	__extendsfdf2
 423 0590 34204FE2 		adr	r2, .L87+100
 424 0594 0C0092E8 		ldmia	r2, {r2-r3}
 425 0598 FEFFFFEB 		bl	__muldf3
 426 059c FEFFFFEB 		bl	__truncdfsf2
 427 05a0 3C0087E5 		str	r0, [r7, #60]	@ float
 428 05a4 B201D7E1 		ldrh	r0, [r7, #18]
 429 05a8 FEFFFFEB 		bl	__floatsisf
 430 05ac 301397E5 		ldr	r1, [r7, #816]	@ float
 431 05b0 FEFFFFEB 		bl	__subsf3
 432 05b4 FEFFFFEB 		bl	__extendsfdf2
 433 05b8 54204FE2 		adr	r2, .L87+108
 434 05bc 0C0092E8 		ldmia	r2, {r2-r3}
 435 05c0 FEFFFFEB 		bl	__muldf3
 436 05c4 FEFFFFEB 		bl	__truncdfsf2
 437 05c8 400087E5 		str	r0, [r7, #64]	@ float
 438 05cc B401D7E1 		ldrh	r0, [r7, #20]
 439 05d0 FEFFFFEB 		bl	__floatsisf
 440 05d4 341397E5 		ldr	r1, [r7, #820]	@ float
 441 05d8 FEFFFFEB 		bl	__subsf3
 442 05dc FEFFFFEB 		bl	__extendsfdf2
 443 05e0 74204FE2 		adr	r2, .L87+116
 444 05e4 0C0092E8 		ldmia	r2, {r2-r3}
 445 05e8 FEFFFFEB 		bl	__muldf3
 446 05ec FEFFFFEB 		bl	__truncdfsf2
 447 05f0 440087E5 		str	r0, [r7, #68]	@ float
 448 05f4 20FFFFEA 		b	.L24
 449              	.L39:
 450 05f8 C30BA0E3 		mov	r0, #199680
 451 05fc 050D80E2 		add	r0, r0, #320
 452 0600 0710A0E3 		mov	r1, #7
 453 0604 0820A0E1 		mov	r2, r8
 454 0608 FEFFFFEB 		bl	us_run_every
 455 060c 000050E3 		cmp	r0, #0
 456 0610 0F00000A 		beq	.L41
 457 0614 C0701FE5 		ldr	r7, .L87+92
 458 0618 FEFFFFEB 		bl	communication_queued_send
 459 061c FEFFFFEB 		bl	debug_message_send_one
 460 0620 FEFFFFEB 		bl	handle_eeprom_write_request
 461 0624 FEFFFFEB 		bl	handle_reset_request
 462 0628 FEFFFFEB 		bl	communication_send_remote_control
 463 062c 0030D7E5 		ldrb	r3, [r7, #0]	@ zero_extendqisi2
 464 0630 0A0053E3 		cmp	r3, #10
 465 0634 4800000A 		beq	.L44
 466 0638 0B0053E3 		cmp	r3, #11
 467 063c 5900000A 		beq	.L85
 468 0640 FEFFFFEB 		bl	bmp085_start_temp_measurement
 469 0644 F0601FE5 		ldr	r6, .L87+92
 470 0648 0A30A0E3 		mov	r3, #10
 471 064c 0030C6E5 		strb	r3, [r6, #0]
 472 0650 6CFFFFEA 		b	.L38
 473              	.L41:
 474 0654 C30CA0E3 		mov	r0, #49920
 475 0658 500080E2 		add	r0, r0, #80
 476 065c 0610A0E3 		mov	r1, #6
 477 0660 0820A0E1 		mov	r2, r8
 478 0664 FEFFFFEB 		bl	us_run_every
 479 0668 000050E3 		cmp	r0, #0
 480 066c 2E00000A 		beq	.L52
 481 0670 0800A0E1 		mov	r0, r8
 482 0674 0910A0E1 		mov	r1, r9
 483 0678 FEFFFFEB 		bl	communication_send_attitude_position
 484 067c 1100A0E3 		mov	r0, #17
 485 0680 FEFFFFEB 		bl	led_on
 486 0684 5FFFFFEA 		b	.L38
 487              	.L22:
 488 0688 50011FE5 		ldr	r0, .L87+64
 489 068c FEFFFFEB 		bl	debug_message_buffer
 490 0690 F9FEFFEA 		b	.L24
 491              	.L19:
 492 0694 58011FE5 		ldr	r0, .L87+68
 493 0698 FEFFFFEB 		bl	debug_message_buffer
 494 069c D8FEFFEA 		b	.L21
 495              	.L16:
 496 06a0 60011FE5 		ldr	r0, .L87+72
 497 06a4 FEFFFFEB 		bl	debug_message_buffer
 498 06a8 B7FEFFEA 		b	.L18
 499              	.L84:
 500 06ac FEFFFFEB 		bl	hmc5843_data_ok
 501 06b0 3001C7E5 		strb	r0, [r7, #304]
 502 06b4 200087E2 		add	r0, r7, #32
 503 06b8 FEFFFFEB 		bl	hmc5843_get_data
 504 06bc 3041D7E5 		ldrb	r4, [r7, #304]	@ zero_extendqisi2
 505 06c0 FEFFFFEB 		bl	hmc5843_data_ok
 506 06c4 043000E0 		and	r3, r0, r4
 507 06c8 3031C7E5 		strb	r3, [r7, #304]
 508 06cc F002D7E1 		ldrsh	r0, [r7, #32]
 509 06d0 FEFFFFEB 		bl	__floatsisf
 510 06d4 4C1397E5 		ldr	r1, [r7, #844]	@ float
 511 06d8 FEFFFFEB 		bl	__subsf3
 512 06dc FEFFFFEB 		bl	__fixsfsi
 513 06e0 B405C7E1 		strh	r0, [r7, #84]	@ movhi
 514 06e4 F202D7E1 		ldrsh	r0, [r7, #34]
 515 06e8 FEFFFFEB 		bl	__floatsisf
 516 06ec 501397E5 		ldr	r1, [r7, #848]	@ float
 517 06f0 FEFFFFEB 		bl	__subsf3
 518 06f4 020180E2 		add	r0, r0, #-2147483648
 519 06f8 FEFFFFEB 		bl	__fixsfsi
 520 06fc B605C7E1 		strh	r0, [r7, #86]	@ movhi
 521 0700 F402D7E1 		ldrsh	r0, [r7, #36]
 522 0704 FEFFFFEB 		bl	__floatsisf
 523 0708 541397E5 		ldr	r1, [r7, #852]	@ float
 524 070c FEFFFFEB 		bl	__subsf3
 525 0710 FEFFFFEB 		bl	__fixsfsi
 526 0714 B805C7E1 		strh	r0, [r7, #88]	@ movhi
 527 0718 540087E2 		add	r0, r7, #84
 528 071c 030090E8 		ldmia	r0, {r0-r1}
 529 0720 FEFFFFEB 		bl	attitude_observer_correct_magnet
 530 0724 0060C5E5 		strb	r6, [r5, #0]
 531 0728 11FFFFEA 		b	.L33
 532              	.L52:
 533 072c 4E0DA0E3 		mov	r0, #4992
 534 0730 080080E2 		add	r0, r0, #8
 535 0734 0410A0E3 		mov	r1, #4
 536 0738 0820A0E1 		mov	r2, r8
 537 073c FEFFFFEB 		bl	us_run_every
 538 0740 000050E3 		cmp	r0, #0
 539 0744 1400000A 		beq	.L54
 540 0748 5C319AE5 		ldr	r3, [sl, #348]
 541 074c 030053E3 		cmp	r3, #3
 542 0750 2CFFFF1A 		bne	.L38
 543 0754 FEFFFFEB 		bl	param_handler
 544 0758 2AFFFFEA 		b	.L38
 545              	.L44:
 546 075c FEFFFFEB 		bl	bmp085_get_temperature
 547 0760 0038A0E1 		mov	r3, r0, asl #16
 548 0764 2338A0E1 		mov	r3, r3, lsr #16
 549 0768 0308A0E1 		mov	r0, r3, asl #16
 550 076c 4008A0E1 		mov	r0, r0, asr #16
 551 0770 BC32CAE1 		strh	r3, [sl, #44]	@ movhi
 552 0774 FEFFFFEB 		bl	__floatsisf
 553 0778 4114A0E3 		mov	r1, #1090519040
 554 077c 021681E2 		add	r1, r1, #2097152
 555 0780 FEFFFFEB 		bl	__divsf3
 556 0784 30008AE5 		str	r0, [sl, #48]	@ float
 557 0788 FEFFFFEB 		bl	bmp085_start_pressure_measurement
 558 078c 38321FE5 		ldr	r3, .L87+92
 559 0790 0B20A0E3 		mov	r2, #11
 560 0794 0020C3E5 		strb	r2, [r3, #0]
 561 0798 1AFFFFEA 		b	.L38
 562              	.L54:
 563 079c 58721FE5 		ldr	r7, .L87+76
 564 07a0 000387E8 		stmia	r7, {r8-r9}
 565 07a4 17FFFFEA 		b	.L38
 566              	.L85:
 567 07a8 FEFFFFEB 		bl	bmp085_get_pressure
 568 07ac 000050E3 		cmp	r0, #0
 569 07b0 0030A0E1 		mov	r3, r0
 570 07b4 00008AE5 		str	r0, [sl, #0]
 571 07b8 240000BA 		blt	.L47
 572 07bc FEFFFFEB 		bl	__floatsisf
 573 07c0 0060A0E1 		mov	r6, r0
 574              	.L46:
 575 07c4 74221FE5 		ldr	r2, .L87+88
 576 07c8 80021FE5 		ldr	r0, .L87+80
 577 07cc 001092E5 		ldr	r1, [r2, #0]	@ float
 578 07d0 FEFFFFEB 		bl	__mulsf3
 579 07d4 88121FE5 		ldr	r1, .L87+84
 580 07d8 0040A0E1 		mov	r4, r0
 581 07dc 0600A0E1 		mov	r0, r6
 582 07e0 FEFFFFEB 		bl	__mulsf3
 583 07e4 0010A0E1 		mov	r1, r0
 584 07e8 0400A0E1 		mov	r0, r4
 585 07ec FEFFFFEB 		bl	__addsf3
 586 07f0 A0421FE5 		ldr	r4, .L87+88
 587 07f4 0030A0E1 		mov	r3, r0
 588 07f8 003084E5 		str	r3, [r4, #0]	@ float
 589 07fc 0610A0E1 		mov	r1, r6
 590 0800 FEFFFFEB 		bl	__subsf3
 591 0804 1113A0E3 		mov	r1, #1140850688
 592 0808 BB1881E2 		add	r1, r1, #12255232
 593 080c 0201C0E3 		bic	r0, r0, #-2147483648
 594 0810 021981E2 		add	r1, r1, #32768
 595 0814 FEFFFFEB 		bl	__gtsf2
 596 0818 000050E3 		cmp	r0, #0
 597 081c 0130A0D3 		movle	r3, #1
 598 0820 3131CAD5 		strleb	r3, [sl, #305]
 599 0824 040000CA 		bgt	.L86
 600              	.L51:
 601 0828 FEFFFFEB 		bl	bmp085_start_temp_measurement
 602 082c D8521FE5 		ldr	r5, .L87+92
 603 0830 0A30A0E3 		mov	r3, #10
 604 0834 0030C5E5 		strb	r3, [r5, #0]
 605 0838 F2FEFFEA 		b	.L38
 606              	.L86:
 607 083c 0030A0E3 		mov	r3, #0
 608 0840 E8021FE5 		ldr	r0, .L87+96
 609 0844 3131CAE5 		strb	r3, [sl, #305]
 610 0848 FEFFFFEB 		bl	debug_message_buffer
 611 084c F5FFFFEA 		b	.L51
 612              	.L47:
 613 0850 010000E2 		and	r0, r0, #1
 614 0854 A30080E1 		orr	r0, r0, r3, lsr #1
 615 0858 FEFFFFEB 		bl	__floatsisf
 616 085c 0010A0E1 		mov	r1, r0
 617 0860 FEFFFFEB 		bl	__addsf3
 618 0864 0060A0E1 		mov	r6, r0
 619 0868 D5FFFFEA 		b	.L46
 621              		.align	2
 622              		.global	main_init_ground_car
 624              	main_init_ground_car:
 625              		@ Function supports interworking.
 626              		@ args = 0, pretend = 0, frame = 0
 627              		@ frame_needed = 0, uses_anonymous_args = 0
 628 086c 04E02DE5 		str	lr, [sp, #-4]!
 629 0870 FEFFFFEB 		bl	main_init_generic
 630 0874 04E09DE4 		ldr	lr, [sp], #4
 631 0878 1EFF2FE1 		bx	lr
 633              		.global	last_mainloop_idle
 634              		.bss
 635              		.align	2
 638              	last_mainloop_idle:
 639 0000 00000000 		.space	8
 639      00000000 
 640              		.align	2
 641              	att.21000:
 642 0008 00000000 		.space	12
 642      00000000 
 642      00000000 
 643              	mag_count.20999:
 644 0014 00       		.space	1
 645 0015 000000   		.data
 646              		.align	2
 649              	pressure_lowpass.19393:
 650 0000 0050C347 		.word	1203982336
 651              		.comm	mavlink_system,8,4
 652              		.comm	global_param_id,4,4
 653              		.comm	state_fly_id,4,4
 654              		.comm	global_data,2700,4
 655              		.comm	mag_axis,1,1
 656              		.comm	bmp085_measurement_mode,1,1
 657              		.comm	gps_device_mode,1,1
 658              		.comm	yaw_pos_controller,32,4
 659              		.comm	yaw_speed_controller,32,4
 660              		.comm	nick_controller,32,4
 661              		.comm	roll_controller,32,4
 662              		.comm	fw_yaw_controller,32,4
 663              		.comm	fw_nick_controller,32,4
 664              		.comm	fw_roll_controller,32,4
 665              		.comm	x_axis_controller,32,4
 666              		.comm	y_axis_controller,32,4
 667              		.comm	z_axis_controller,32,4
 668              		.ident	"GCC: (GNU) 4.1.1 (WinARM)"
DEFINED SYMBOLS
                            *ABS*:00000000 mainloop_ground_car.c
C:\Users\Srdjan\AppData\Local\Temp/ccmWaaaa.s:42     .text:00000000 main_loop_ground_car
C:\Users\Srdjan\AppData\Local\Temp/ccmWaaaa.s:46     .text:00000000 $a
C:\Users\Srdjan\AppData\Local\Temp/ccmWaaaa.s:386    .text:00000500 $d
                            *COM*:00000a8c global_data
C:\Users\Srdjan\AppData\Local\Temp/ccmWaaaa.s:643    .bss:00000014 mag_count.20999
C:\Users\Srdjan\AppData\Local\Temp/ccmWaaaa.s:641    .bss:00000008 att.21000
C:\Users\Srdjan\AppData\Local\Temp/ccmWaaaa.s:638    .bss:00000000 last_mainloop_idle
C:\Users\Srdjan\AppData\Local\Temp/ccmWaaaa.s:649    .data:00000000 pressure_lowpass.19393
                            *COM*:00000001 bmp085_measurement_mode
C:\Users\Srdjan\AppData\Local\Temp/ccmWaaaa.s:418    .text:0000057c $a
C:\Users\Srdjan\AppData\Local\Temp/ccmWaaaa.s:624    .text:0000086c main_init_ground_car
                             .bss:00000000 $d
C:\Users\Srdjan\AppData\Local\Temp/ccmWaaaa.s:650    .data:00000000 $d
                            *COM*:00000008 mavlink_system
                            *COM*:00000004 global_param_id
                            *COM*:00000004 state_fly_id
                            *COM*:00000001 mag_axis
                            *COM*:00000001 gps_device_mode
                            *COM*:00000020 yaw_pos_controller
                            *COM*:00000020 yaw_speed_controller
                            *COM*:00000020 nick_controller
                            *COM*:00000020 roll_controller
                            *COM*:00000020 fw_yaw_controller
                            *COM*:00000020 fw_nick_controller
                            *COM*:00000020 fw_roll_controller
                            *COM*:00000020 x_axis_controller
                            *COM*:00000020 y_axis_controller
                            *COM*:00000020 z_axis_controller

UNDEFINED SYMBOLS
__eqsf2
__floatsidf
__floatsisf
__muldf3
__extendsfdf2
__adddf3
__truncdfsf2
__subsf3
__mulsf3
__divsf3
__fixsfsi
__nesf2
__addsf3
__gtsf2
sys_time_clock_get_time_usec
debug_message_buffer
us_run_every
ads8341_read
spi_running
ads8341_get_value
sca3100_read_res
sca3100_get_value
adns9500_1_read_sensor
adns9500_1_get_value
adns9500_2_read_sensor
adns9500_2_get_value
attitude_observer_correct_accel
attitude_observer_get_angles
attitude_observer_predict
communication_receive
measure_avg_cpu_load
measure_peak_cpu_load
adc_read
remote_control
communication_send_raw_data
communication_queued_send
debug_message_send_one
handle_eeprom_write_request
handle_reset_request
communication_send_remote_control
bmp085_start_temp_measurement
communication_send_attitude_position
led_on
hmc5843_data_ok
hmc5843_get_data
attitude_observer_correct_magnet
param_handler
bmp085_get_temperature
bmp085_start_pressure_measurement
bmp085_get_pressure
main_init_generic
